ARM GAS  /var/folders/d0/cymppscj10lcmm48h781wrc80000gn/T//cczQ1RQw.s 			page 1


   1              		.cpu cortex-m0
   2              		.arch armv6s-m
   3              		.fpu softvfp
   4              		.eabi_attribute 20, 1
   5              		.eabi_attribute 21, 1
   6              		.eabi_attribute 23, 3
   7              		.eabi_attribute 24, 1
   8              		.eabi_attribute 25, 1
   9              		.eabi_attribute 26, 1
  10              		.eabi_attribute 30, 6
  11              		.eabi_attribute 34, 0
  12              		.eabi_attribute 18, 4
  13              		.file	"lcd.c"
  14              		.text
  15              	.Ltext0:
  16              		.cfi_sections	.debug_frame
  17              		.global	tst_counter
  18              		.section	.bss.tst_counter,"aw",%nobits
  19              		.align	1
  22              	tst_counter:
  23 0000 0000     		.space	2
  24              		.section	.text.LCD_Control,"ax",%progbits
  25              		.align	1
  26              		.global	LCD_Control
  27              		.syntax unified
  28              		.code	16
  29              		.thumb_func
  31              	LCD_Control:
  32              	.LFB40:
  33              		.file 1 "Core/Src/lcd.c"
   1:Core/Src/lcd.c **** #include "lcd.h"
   2:Core/Src/lcd.c **** uint16 tst_counter;
   3:Core/Src/lcd.c **** 
   4:Core/Src/lcd.c **** void LCD_Control(void)
   5:Core/Src/lcd.c **** {
  34              		.loc 1 5 1
  35              		.cfi_startproc
  36              		@ args = 0, pretend = 0, frame = 0
  37              		@ frame_needed = 1, uses_anonymous_args = 0
  38 0000 80B5     		push	{r7, lr}
  39              	.LCFI0:
  40              		.cfi_def_cfa_offset 8
  41              		.cfi_offset 7, -8
  42              		.cfi_offset 14, -4
  43 0002 00AF     		add	r7, sp, #0
  44              	.LCFI1:
  45              		.cfi_def_cfa_register 7
   6:Core/Src/lcd.c ****     tst_counter++;
  46              		.loc 1 6 16
  47 0004 584B     		ldr	r3, .L6
  48 0006 1B88     		ldrh	r3, [r3]
  49 0008 0133     		adds	r3, r3, #1
  50 000a 9AB2     		uxth	r2, r3
  51 000c 564B     		ldr	r3, .L6
  52 000e 1A80     		strh	r2, [r3]
   7:Core/Src/lcd.c ****     if(tst_counter<=10)
  53              		.loc 1 7 19
ARM GAS  /var/folders/d0/cymppscj10lcmm48h781wrc80000gn/T//cczQ1RQw.s 			page 2


  54 0010 554B     		ldr	r3, .L6
  55 0012 1B88     		ldrh	r3, [r3]
  56              		.loc 1 7 7
  57 0014 0A2B     		cmp	r3, #10
  58 0016 4ED8     		bhi	.L2
   8:Core/Src/lcd.c ****     {
   9:Core/Src/lcd.c ****         HAL_GPIO_WritePin(GPIOA,GPIO_PIN_15,GPIO_PIN_RESET);
  59              		.loc 1 9 9
  60 0018 8023     		movs	r3, #128
  61 001a 1902     		lsls	r1, r3, #8
  62 001c 9023     		movs	r3, #144
  63 001e DB05     		lsls	r3, r3, #23
  64 0020 0022     		movs	r2, #0
  65 0022 1800     		movs	r0, r3
  66 0024 FFF7FEFF 		bl	HAL_GPIO_WritePin
  10:Core/Src/lcd.c ****         HAL_GPIO_WritePin(GPIOB,GPIO_PIN_10,GPIO_PIN_RESET);
  67              		.loc 1 10 9
  68 0028 8023     		movs	r3, #128
  69 002a DB00     		lsls	r3, r3, #3
  70 002c 4F48     		ldr	r0, .L6+4
  71 002e 0022     		movs	r2, #0
  72 0030 1900     		movs	r1, r3
  73 0032 FFF7FEFF 		bl	HAL_GPIO_WritePin
  11:Core/Src/lcd.c ****         HAL_GPIO_WritePin(GPIOB,GPIO_PIN_11,GPIO_PIN_RESET);
  74              		.loc 1 11 9
  75 0036 8023     		movs	r3, #128
  76 0038 1B01     		lsls	r3, r3, #4
  77 003a 4C48     		ldr	r0, .L6+4
  78 003c 0022     		movs	r2, #0
  79 003e 1900     		movs	r1, r3
  80 0040 FFF7FEFF 		bl	HAL_GPIO_WritePin
  12:Core/Src/lcd.c ****         HAL_GPIO_WritePin(GPIOB,GPIO_PIN_14,GPIO_PIN_RESET);
  81              		.loc 1 12 9
  82 0044 8023     		movs	r3, #128
  83 0046 DB01     		lsls	r3, r3, #7
  84 0048 4848     		ldr	r0, .L6+4
  85 004a 0022     		movs	r2, #0
  86 004c 1900     		movs	r1, r3
  87 004e FFF7FEFF 		bl	HAL_GPIO_WritePin
  13:Core/Src/lcd.c ****         HAL_GPIO_WritePin(GPIOB,GPIO_PIN_15,GPIO_PIN_RESET);
  88              		.loc 1 13 9
  89 0052 8023     		movs	r3, #128
  90 0054 1B02     		lsls	r3, r3, #8
  91 0056 4548     		ldr	r0, .L6+4
  92 0058 0022     		movs	r2, #0
  93 005a 1900     		movs	r1, r3
  94 005c FFF7FEFF 		bl	HAL_GPIO_WritePin
  14:Core/Src/lcd.c ****         HAL_GPIO_WritePin(GPIOC,GPIO_PIN_8,GPIO_PIN_RESET);
  95              		.loc 1 14 9
  96 0060 8023     		movs	r3, #128
  97 0062 5B00     		lsls	r3, r3, #1
  98 0064 4248     		ldr	r0, .L6+8
  99 0066 0022     		movs	r2, #0
 100 0068 1900     		movs	r1, r3
 101 006a FFF7FEFF 		bl	HAL_GPIO_WritePin
  15:Core/Src/lcd.c ****         HAL_GPIO_WritePin(GPIOC,GPIO_PIN_9,GPIO_PIN_RESET);
 102              		.loc 1 15 9
ARM GAS  /var/folders/d0/cymppscj10lcmm48h781wrc80000gn/T//cczQ1RQw.s 			page 3


 103 006e 8023     		movs	r3, #128
 104 0070 9B00     		lsls	r3, r3, #2
 105 0072 3F48     		ldr	r0, .L6+8
 106 0074 0022     		movs	r2, #0
 107 0076 1900     		movs	r1, r3
 108 0078 FFF7FEFF 		bl	HAL_GPIO_WritePin
  16:Core/Src/lcd.c ****         HAL_GPIO_WritePin(GPIOC,GPIO_PIN_10,GPIO_PIN_RESET);
 109              		.loc 1 16 9
 110 007c 8023     		movs	r3, #128
 111 007e DB00     		lsls	r3, r3, #3
 112 0080 3B48     		ldr	r0, .L6+8
 113 0082 0022     		movs	r2, #0
 114 0084 1900     		movs	r1, r3
 115 0086 FFF7FEFF 		bl	HAL_GPIO_WritePin
  17:Core/Src/lcd.c ****         HAL_GPIO_WritePin(GPIOC,GPIO_PIN_11,GPIO_PIN_RESET);
 116              		.loc 1 17 9
 117 008a 8023     		movs	r3, #128
 118 008c 1B01     		lsls	r3, r3, #4
 119 008e 3848     		ldr	r0, .L6+8
 120 0090 0022     		movs	r2, #0
 121 0092 1900     		movs	r1, r3
 122 0094 FFF7FEFF 		bl	HAL_GPIO_WritePin
  18:Core/Src/lcd.c ****         HAL_GPIO_WritePin(GPIOC,GPIO_PIN_12,GPIO_PIN_RESET);
 123              		.loc 1 18 9
 124 0098 8023     		movs	r3, #128
 125 009a 5B01     		lsls	r3, r3, #5
 126 009c 3448     		ldr	r0, .L6+8
 127 009e 0022     		movs	r2, #0
 128 00a0 1900     		movs	r1, r3
 129 00a2 FFF7FEFF 		bl	HAL_GPIO_WritePin
  19:Core/Src/lcd.c ****         HAL_GPIO_WritePin(GPIOC,GPIO_PIN_13,GPIO_PIN_RESET);
 130              		.loc 1 19 9
 131 00a6 8023     		movs	r3, #128
 132 00a8 9B01     		lsls	r3, r3, #6
 133 00aa 3148     		ldr	r0, .L6+8
 134 00ac 0022     		movs	r2, #0
 135 00ae 1900     		movs	r1, r3
 136 00b0 FFF7FEFF 		bl	HAL_GPIO_WritePin
 137 00b4 4DE0     		b	.L3
 138              	.L2:
  20:Core/Src/lcd.c ****     }
  21:Core/Src/lcd.c ****     else
  22:Core/Src/lcd.c ****     {
  23:Core/Src/lcd.c ****         HAL_GPIO_WritePin(GPIOA,GPIO_PIN_15,GPIO_PIN_SET);
 139              		.loc 1 23 9
 140 00b6 8023     		movs	r3, #128
 141 00b8 1902     		lsls	r1, r3, #8
 142 00ba 9023     		movs	r3, #144
 143 00bc DB05     		lsls	r3, r3, #23
 144 00be 0122     		movs	r2, #1
 145 00c0 1800     		movs	r0, r3
 146 00c2 FFF7FEFF 		bl	HAL_GPIO_WritePin
  24:Core/Src/lcd.c ****         HAL_GPIO_WritePin(GPIOB,GPIO_PIN_10,GPIO_PIN_SET);
 147              		.loc 1 24 9
 148 00c6 8023     		movs	r3, #128
 149 00c8 DB00     		lsls	r3, r3, #3
 150 00ca 2848     		ldr	r0, .L6+4
ARM GAS  /var/folders/d0/cymppscj10lcmm48h781wrc80000gn/T//cczQ1RQw.s 			page 4


 151 00cc 0122     		movs	r2, #1
 152 00ce 1900     		movs	r1, r3
 153 00d0 FFF7FEFF 		bl	HAL_GPIO_WritePin
  25:Core/Src/lcd.c ****         HAL_GPIO_WritePin(GPIOB,GPIO_PIN_11,GPIO_PIN_SET);
 154              		.loc 1 25 9
 155 00d4 8023     		movs	r3, #128
 156 00d6 1B01     		lsls	r3, r3, #4
 157 00d8 2448     		ldr	r0, .L6+4
 158 00da 0122     		movs	r2, #1
 159 00dc 1900     		movs	r1, r3
 160 00de FFF7FEFF 		bl	HAL_GPIO_WritePin
  26:Core/Src/lcd.c ****         HAL_GPIO_WritePin(GPIOB,GPIO_PIN_14,GPIO_PIN_SET);
 161              		.loc 1 26 9
 162 00e2 8023     		movs	r3, #128
 163 00e4 DB01     		lsls	r3, r3, #7
 164 00e6 2148     		ldr	r0, .L6+4
 165 00e8 0122     		movs	r2, #1
 166 00ea 1900     		movs	r1, r3
 167 00ec FFF7FEFF 		bl	HAL_GPIO_WritePin
  27:Core/Src/lcd.c ****         HAL_GPIO_WritePin(GPIOB,GPIO_PIN_15,GPIO_PIN_SET);
 168              		.loc 1 27 9
 169 00f0 8023     		movs	r3, #128
 170 00f2 1B02     		lsls	r3, r3, #8
 171 00f4 1D48     		ldr	r0, .L6+4
 172 00f6 0122     		movs	r2, #1
 173 00f8 1900     		movs	r1, r3
 174 00fa FFF7FEFF 		bl	HAL_GPIO_WritePin
  28:Core/Src/lcd.c ****         HAL_GPIO_WritePin(GPIOC,GPIO_PIN_8,GPIO_PIN_SET);
 175              		.loc 1 28 9
 176 00fe 8023     		movs	r3, #128
 177 0100 5B00     		lsls	r3, r3, #1
 178 0102 1B48     		ldr	r0, .L6+8
 179 0104 0122     		movs	r2, #1
 180 0106 1900     		movs	r1, r3
 181 0108 FFF7FEFF 		bl	HAL_GPIO_WritePin
  29:Core/Src/lcd.c ****         HAL_GPIO_WritePin(GPIOC,GPIO_PIN_9,GPIO_PIN_SET);
 182              		.loc 1 29 9
 183 010c 8023     		movs	r3, #128
 184 010e 9B00     		lsls	r3, r3, #2
 185 0110 1748     		ldr	r0, .L6+8
 186 0112 0122     		movs	r2, #1
 187 0114 1900     		movs	r1, r3
 188 0116 FFF7FEFF 		bl	HAL_GPIO_WritePin
  30:Core/Src/lcd.c ****         HAL_GPIO_WritePin(GPIOC,GPIO_PIN_10,GPIO_PIN_SET);
 189              		.loc 1 30 9
 190 011a 8023     		movs	r3, #128
 191 011c DB00     		lsls	r3, r3, #3
 192 011e 1448     		ldr	r0, .L6+8
 193 0120 0122     		movs	r2, #1
 194 0122 1900     		movs	r1, r3
 195 0124 FFF7FEFF 		bl	HAL_GPIO_WritePin
  31:Core/Src/lcd.c ****         HAL_GPIO_WritePin(GPIOC,GPIO_PIN_11,GPIO_PIN_SET);
 196              		.loc 1 31 9
 197 0128 8023     		movs	r3, #128
 198 012a 1B01     		lsls	r3, r3, #4
 199 012c 1048     		ldr	r0, .L6+8
 200 012e 0122     		movs	r2, #1
ARM GAS  /var/folders/d0/cymppscj10lcmm48h781wrc80000gn/T//cczQ1RQw.s 			page 5


 201 0130 1900     		movs	r1, r3
 202 0132 FFF7FEFF 		bl	HAL_GPIO_WritePin
  32:Core/Src/lcd.c ****         HAL_GPIO_WritePin(GPIOC,GPIO_PIN_12,GPIO_PIN_SET);
 203              		.loc 1 32 9
 204 0136 8023     		movs	r3, #128
 205 0138 5B01     		lsls	r3, r3, #5
 206 013a 0D48     		ldr	r0, .L6+8
 207 013c 0122     		movs	r2, #1
 208 013e 1900     		movs	r1, r3
 209 0140 FFF7FEFF 		bl	HAL_GPIO_WritePin
  33:Core/Src/lcd.c ****         HAL_GPIO_WritePin(GPIOC,GPIO_PIN_13,GPIO_PIN_SET);
 210              		.loc 1 33 9
 211 0144 8023     		movs	r3, #128
 212 0146 9B01     		lsls	r3, r3, #6
 213 0148 0948     		ldr	r0, .L6+8
 214 014a 0122     		movs	r2, #1
 215 014c 1900     		movs	r1, r3
 216 014e FFF7FEFF 		bl	HAL_GPIO_WritePin
 217              	.L3:
  34:Core/Src/lcd.c ****     }
  35:Core/Src/lcd.c **** 
  36:Core/Src/lcd.c ****     if(tst_counter>20)
 218              		.loc 1 36 19
 219 0152 054B     		ldr	r3, .L6
 220 0154 1B88     		ldrh	r3, [r3]
 221              		.loc 1 36 7
 222 0156 142B     		cmp	r3, #20
 223 0158 02D9     		bls	.L5
  37:Core/Src/lcd.c ****     {
  38:Core/Src/lcd.c ****         tst_counter = 0;
 224              		.loc 1 38 21
 225 015a 034B     		ldr	r3, .L6
 226 015c 0022     		movs	r2, #0
 227 015e 1A80     		strh	r2, [r3]
 228              	.L5:
  39:Core/Src/lcd.c ****     }
  40:Core/Src/lcd.c **** }...
 229              		.loc 1 40 1
 230 0160 C046     		nop
 231 0162 BD46     		mov	sp, r7
 232              		@ sp needed
 233 0164 80BD     		pop	{r7, pc}
 234              	.L7:
 235 0166 C046     		.align	2
 236              	.L6:
 237 0168 00000000 		.word	tst_counter
 238 016c 00040048 		.word	1207960576
 239 0170 00080048 		.word	1207961600
 240              		.cfi_endproc
 241              	.LFE40:
 243              		.text
 244              	.Letext0:
 245              		.file 2 "/Users/seojisu/Library/Arm-GCC-xPack/arm-none-eabi/include/machine/_default_types.h"
 246              		.file 3 "/Users/seojisu/Library/Arm-GCC-xPack/arm-none-eabi/include/sys/_stdint.h"
 247              		.file 4 "Drivers/CMSIS/Device/ST/STM32F0xx/Include/stm32f030x8.h"
 248              		.file 5 "Core/Inc/vardef.h"
 249              		.file 6 "Drivers/STM32F0xx_HAL_Driver/Inc/stm32f0xx_hal_gpio.h"
ARM GAS  /var/folders/d0/cymppscj10lcmm48h781wrc80000gn/T//cczQ1RQw.s 			page 6


ARM GAS  /var/folders/d0/cymppscj10lcmm48h781wrc80000gn/T//cczQ1RQw.s 			page 7


DEFINED SYMBOLS
                            *ABS*:0000000000000000 lcd.c
/var/folders/d0/cymppscj10lcmm48h781wrc80000gn/T//cczQ1RQw.s:22     .bss.tst_counter:0000000000000000 tst_counter
/var/folders/d0/cymppscj10lcmm48h781wrc80000gn/T//cczQ1RQw.s:19     .bss.tst_counter:0000000000000000 $d
/var/folders/d0/cymppscj10lcmm48h781wrc80000gn/T//cczQ1RQw.s:25     .text.LCD_Control:0000000000000000 $t
/var/folders/d0/cymppscj10lcmm48h781wrc80000gn/T//cczQ1RQw.s:31     .text.LCD_Control:0000000000000000 LCD_Control
/var/folders/d0/cymppscj10lcmm48h781wrc80000gn/T//cczQ1RQw.s:237    .text.LCD_Control:0000000000000168 $d

UNDEFINED SYMBOLS
HAL_GPIO_WritePin
