ARM GAS  /var/folders/d0/cymppscj10lcmm48h781wrc80000gn/T//ccBdXnbf.s 			page 1


   1              		.cpu cortex-m0
   2              		.arch armv6s-m
   3              		.fpu softvfp
   4              		.eabi_attribute 20, 1
   5              		.eabi_attribute 21, 1
   6              		.eabi_attribute 23, 3
   7              		.eabi_attribute 24, 1
   8              		.eabi_attribute 25, 1
   9              		.eabi_attribute 26, 1
  10              		.eabi_attribute 30, 6
  11              		.eabi_attribute 34, 0
  12              		.eabi_attribute 18, 4
  13              		.file	"os.c"
  14              		.text
  15              	.Ltext0:
  16              		.cfi_sections	.debug_frame
  17              		.global	Os_Var
  18              		.section	.bss.Os_Var,"aw",%nobits
  19              		.align	2
  22              	Os_Var:
  23 0000 00000000 		.space	100
  23      00000000 
  23      00000000 
  23      00000000 
  23      00000000 
  24              		.section	.text.Os_Init_Task,"ax",%progbits
  25              		.align	1
  26              		.global	Os_Init_Task
  27              		.syntax unified
  28              		.code	16
  29              		.thumb_func
  31              	Os_Init_Task:
  32              	.LFB40:
  33              		.file 1 "Core/Src/os.c"
   1:Core/Src/os.c **** #include "os.h"
   2:Core/Src/os.c **** #include "lcd.h"
   3:Core/Src/os.c **** 
   4:Core/Src/os.c **** Os_Var_t Os_Var;
   5:Core/Src/os.c **** 
   6:Core/Src/os.c **** static void Os_Calc_Period(uint8 idx);
   7:Core/Src/os.c **** static void Os_Calc_Runtime_Start(uint8 idx);
   8:Core/Src/os.c **** static void Os_Calc_Runtime_Stop(uint8 idx);
   9:Core/Src/os.c **** static void Os_1ms_Task(void);
  10:Core/Src/os.c **** static void Os_10ms_Task(void);
  11:Core/Src/os.c **** static void Os_100ms_Task(void);
  12:Core/Src/os.c **** static void Os_Background_Task(void);
  13:Core/Src/os.c **** 
  14:Core/Src/os.c **** void Os_Init_Task(void)
  15:Core/Src/os.c **** {
  34              		.loc 1 15 1
  35              		.cfi_startproc
  36              		@ args = 0, pretend = 0, frame = 0
  37              		@ frame_needed = 1, uses_anonymous_args = 0
  38 0000 80B5     		push	{r7, lr}
  39              	.LCFI0:
  40              		.cfi_def_cfa_offset 8
  41              		.cfi_offset 7, -8
ARM GAS  /var/folders/d0/cymppscj10lcmm48h781wrc80000gn/T//ccBdXnbf.s 			page 2


  42              		.cfi_offset 14, -4
  43 0002 00AF     		add	r7, sp, #0
  44              	.LCFI1:
  45              		.cfi_def_cfa_register 7
  16:Core/Src/os.c **** 
  17:Core/Src/os.c **** }
  46              		.loc 1 17 1
  47 0004 C046     		nop
  48 0006 BD46     		mov	sp, r7
  49              		@ sp needed
  50 0008 80BD     		pop	{r7, pc}
  51              		.cfi_endproc
  52              	.LFE40:
  54              		.section	.text.Os_1ms_Task,"ax",%progbits
  55              		.align	1
  56              		.syntax unified
  57              		.code	16
  58              		.thumb_func
  60              	Os_1ms_Task:
  61              	.LFB41:
  18:Core/Src/os.c **** static void Os_1ms_Task(void)
  19:Core/Src/os.c **** {
  62              		.loc 1 19 1
  63              		.cfi_startproc
  64              		@ args = 0, pretend = 0, frame = 0
  65              		@ frame_needed = 1, uses_anonymous_args = 0
  66 0000 80B5     		push	{r7, lr}
  67              	.LCFI2:
  68              		.cfi_def_cfa_offset 8
  69              		.cfi_offset 7, -8
  70              		.cfi_offset 14, -4
  71 0002 00AF     		add	r7, sp, #0
  72              	.LCFI3:
  73              		.cfi_def_cfa_register 7
  20:Core/Src/os.c **** 
  21:Core/Src/os.c **** }
  74              		.loc 1 21 1
  75 0004 C046     		nop
  76 0006 BD46     		mov	sp, r7
  77              		@ sp needed
  78 0008 80BD     		pop	{r7, pc}
  79              		.cfi_endproc
  80              	.LFE41:
  82              		.section	.text.Os_10ms_Task,"ax",%progbits
  83              		.align	1
  84              		.syntax unified
  85              		.code	16
  86              		.thumb_func
  88              	Os_10ms_Task:
  89              	.LFB42:
  22:Core/Src/os.c **** 
  23:Core/Src/os.c **** static void Os_10ms_Task(void)
  24:Core/Src/os.c **** {
  90              		.loc 1 24 1
  91              		.cfi_startproc
  92              		@ args = 0, pretend = 0, frame = 0
  93              		@ frame_needed = 1, uses_anonymous_args = 0
ARM GAS  /var/folders/d0/cymppscj10lcmm48h781wrc80000gn/T//ccBdXnbf.s 			page 3


  94 0000 80B5     		push	{r7, lr}
  95              	.LCFI4:
  96              		.cfi_def_cfa_offset 8
  97              		.cfi_offset 7, -8
  98              		.cfi_offset 14, -4
  99 0002 00AF     		add	r7, sp, #0
 100              	.LCFI5:
 101              		.cfi_def_cfa_register 7
  25:Core/Src/os.c **** 	Key_Scan();
 102              		.loc 1 25 2
 103 0004 FFF7FEFF 		bl	Key_Scan
  26:Core/Src/os.c **** 	LCD_Control();
 104              		.loc 1 26 2
 105 0008 FFF7FEFF 		bl	LCD_Control
  27:Core/Src/os.c **** }
 106              		.loc 1 27 1
 107 000c C046     		nop
 108 000e BD46     		mov	sp, r7
 109              		@ sp needed
 110 0010 80BD     		pop	{r7, pc}
 111              		.cfi_endproc
 112              	.LFE42:
 114              		.section	.text.Os_100ms_Task,"ax",%progbits
 115              		.align	1
 116              		.syntax unified
 117              		.code	16
 118              		.thumb_func
 120              	Os_100ms_Task:
 121              	.LFB43:
  28:Core/Src/os.c **** 
  29:Core/Src/os.c **** static void Os_100ms_Task(void)
  30:Core/Src/os.c **** {
 122              		.loc 1 30 1
 123              		.cfi_startproc
 124              		@ args = 0, pretend = 0, frame = 0
 125              		@ frame_needed = 1, uses_anonymous_args = 0
 126 0000 80B5     		push	{r7, lr}
 127              	.LCFI6:
 128              		.cfi_def_cfa_offset 8
 129              		.cfi_offset 7, -8
 130              		.cfi_offset 14, -4
 131 0002 00AF     		add	r7, sp, #0
 132              	.LCFI7:
 133              		.cfi_def_cfa_register 7
  31:Core/Src/os.c **** 
  32:Core/Src/os.c **** }
 134              		.loc 1 32 1
 135 0004 C046     		nop
 136 0006 BD46     		mov	sp, r7
 137              		@ sp needed
 138 0008 80BD     		pop	{r7, pc}
 139              		.cfi_endproc
 140              	.LFE43:
 142              		.section	.text.Os_Background_Task,"ax",%progbits
 143              		.align	1
 144              		.syntax unified
 145              		.code	16
ARM GAS  /var/folders/d0/cymppscj10lcmm48h781wrc80000gn/T//ccBdXnbf.s 			page 4


 146              		.thumb_func
 148              	Os_Background_Task:
 149              	.LFB44:
  33:Core/Src/os.c **** 
  34:Core/Src/os.c **** static void Os_Background_Task(void)
  35:Core/Src/os.c **** {
 150              		.loc 1 35 1
 151              		.cfi_startproc
 152              		@ args = 0, pretend = 0, frame = 0
 153              		@ frame_needed = 1, uses_anonymous_args = 0
 154 0000 80B5     		push	{r7, lr}
 155              	.LCFI8:
 156              		.cfi_def_cfa_offset 8
 157              		.cfi_offset 7, -8
 158              		.cfi_offset 14, -4
 159 0002 00AF     		add	r7, sp, #0
 160              	.LCFI9:
 161              		.cfi_def_cfa_register 7
  36:Core/Src/os.c **** 
  37:Core/Src/os.c **** }
 162              		.loc 1 37 1
 163 0004 C046     		nop
 164 0006 BD46     		mov	sp, r7
 165              		@ sp needed
 166 0008 80BD     		pop	{r7, pc}
 167              		.cfi_endproc
 168              	.LFE44:
 170              		.section	.text.Os_Time_Handler,"ax",%progbits
 171              		.align	1
 172              		.global	Os_Time_Handler
 173              		.syntax unified
 174              		.code	16
 175              		.thumb_func
 177              	Os_Time_Handler:
 178              	.LFB45:
  38:Core/Src/os.c **** 
  39:Core/Src/os.c **** void Os_Time_Handler(void)
  40:Core/Src/os.c **** {
 179              		.loc 1 40 1
 180              		.cfi_startproc
 181              		@ args = 0, pretend = 0, frame = 0
 182              		@ frame_needed = 1, uses_anonymous_args = 0
 183 0000 80B5     		push	{r7, lr}
 184              	.LCFI10:
 185              		.cfi_def_cfa_offset 8
 186              		.cfi_offset 7, -8
 187              		.cfi_offset 14, -4
 188 0002 00AF     		add	r7, sp, #0
 189              	.LCFI11:
 190              		.cfi_def_cfa_register 7
  41:Core/Src/os.c **** 	Os_Var.Os_Counter.Os_100us_Counter++;
 191              		.loc 1 41 19
 192 0004 034B     		ldr	r3, .L7
 193 0006 1B68     		ldr	r3, [r3]
 194              		.loc 1 41 36
 195 0008 5A1C     		adds	r2, r3, #1
 196 000a 024B     		ldr	r3, .L7
ARM GAS  /var/folders/d0/cymppscj10lcmm48h781wrc80000gn/T//ccBdXnbf.s 			page 5


 197 000c 1A60     		str	r2, [r3]
  42:Core/Src/os.c **** }
 198              		.loc 1 42 1
 199 000e C046     		nop
 200 0010 BD46     		mov	sp, r7
 201              		@ sp needed
 202 0012 80BD     		pop	{r7, pc}
 203              	.L8:
 204              		.align	2
 205              	.L7:
 206 0014 00000000 		.word	Os_Var
 207              		.cfi_endproc
 208              	.LFE45:
 210              		.section	.text.Os_Handler,"ax",%progbits
 211              		.align	1
 212              		.global	Os_Handler
 213              		.syntax unified
 214              		.code	16
 215              		.thumb_func
 217              	Os_Handler:
 218              	.LFB46:
  43:Core/Src/os.c **** 
  44:Core/Src/os.c **** void Os_Handler(void)
  45:Core/Src/os.c **** {
 219              		.loc 1 45 1
 220              		.cfi_startproc
 221              		@ args = 0, pretend = 0, frame = 8
 222              		@ frame_needed = 1, uses_anonymous_args = 0
 223 0000 80B5     		push	{r7, lr}
 224              	.LCFI12:
 225              		.cfi_def_cfa_offset 8
 226              		.cfi_offset 7, -8
 227              		.cfi_offset 14, -4
 228 0002 82B0     		sub	sp, sp, #8
 229              	.LCFI13:
 230              		.cfi_def_cfa_offset 16
 231 0004 00AF     		add	r7, sp, #0
 232              	.LCFI14:
 233              		.cfi_def_cfa_register 7
  46:Core/Src/os.c **** 	void(*fp)(void);
  47:Core/Src/os.c ****     if(Os_Var.Os_Task_Flag.Os_100ms_Flag == 1)
 234              		.loc 1 47 27
 235 0006 144B     		ldr	r3, .L13
 236 0008 5622     		movs	r2, #86
 237 000a 9B5C     		ldrb	r3, [r3, r2]
 238              		.loc 1 47 7
 239 000c 012B     		cmp	r3, #1
 240 000e 14D1     		bne	.L10
  48:Core/Src/os.c **** 	{
  49:Core/Src/os.c **** 		fp = Os_100ms_Task;
 241              		.loc 1 49 6
 242 0010 124B     		ldr	r3, .L13+4
 243 0012 7B60     		str	r3, [r7, #4]
  50:Core/Src/os.c **** 		Os_Var.Os_Task_Add.Os_100ms_Address = fp;
 244              		.loc 1 50 39
 245 0014 104B     		ldr	r3, .L13
 246 0016 7A68     		ldr	r2, [r7, #4]
ARM GAS  /var/folders/d0/cymppscj10lcmm48h781wrc80000gn/T//ccBdXnbf.s 			page 6


 247 0018 1A66     		str	r2, [r3, #96]
  51:Core/Src/os.c **** 		Os_Var.Os_Task_Flag.Os_100ms_Flag = 0;
 248              		.loc 1 51 37
 249 001a 0F4B     		ldr	r3, .L13
 250 001c 5622     		movs	r2, #86
 251 001e 0021     		movs	r1, #0
 252 0020 9954     		strb	r1, [r3, r2]
  52:Core/Src/os.c **** 		Os_Calc_Runtime_Start(OS_TASK_INDEX_100MS);
 253              		.loc 1 52 3
 254 0022 0320     		movs	r0, #3
 255 0024 FFF7FEFF 		bl	Os_Calc_Runtime_Start
  53:Core/Src/os.c **** 		(void)Os_100ms_Task();
 256              		.loc 1 53 3
 257 0028 FFF7FEFF 		bl	Os_100ms_Task
  54:Core/Src/os.c **** 		Os_Calc_Runtime_Stop(OS_TASK_INDEX_100MS);
 258              		.loc 1 54 3
 259 002c 0320     		movs	r0, #3
 260 002e FFF7FEFF 		bl	Os_Calc_Runtime_Stop
  55:Core/Src/os.c **** 		Os_Calc_Period(OS_TASK_INDEX_100MS);
 261              		.loc 1 55 3
 262 0032 0320     		movs	r0, #3
 263 0034 FFF7FEFF 		bl	Os_Calc_Period
  56:Core/Src/os.c **** 	}
  57:Core/Src/os.c **** 	else
  58:Core/Src/os.c **** 	{
  59:Core/Src/os.c **** 		Os_Calc_Runtime_Start(OS_TASK_INDEX_BG);
  60:Core/Src/os.c **** 		(void)Os_Background_Task();
  61:Core/Src/os.c **** 		Os_Calc_Runtime_Stop(OS_TASK_INDEX_BG);
  62:Core/Src/os.c **** 		Os_Calc_Period(OS_TASK_INDEX_BG);
  63:Core/Src/os.c **** 	}
  64:Core/Src/os.c **** 
  65:Core/Src/os.c ****     return;
 264              		.loc 1 65 5
 265 0038 0BE0     		b	.L9
 266              	.L10:
  59:Core/Src/os.c **** 		(void)Os_Background_Task();
 267              		.loc 1 59 3
 268 003a 0420     		movs	r0, #4
 269 003c FFF7FEFF 		bl	Os_Calc_Runtime_Start
  60:Core/Src/os.c **** 		Os_Calc_Runtime_Stop(OS_TASK_INDEX_BG);
 270              		.loc 1 60 3
 271 0040 FFF7FEFF 		bl	Os_Background_Task
  61:Core/Src/os.c **** 		Os_Calc_Period(OS_TASK_INDEX_BG);
 272              		.loc 1 61 3
 273 0044 0420     		movs	r0, #4
 274 0046 FFF7FEFF 		bl	Os_Calc_Runtime_Stop
  62:Core/Src/os.c **** 	}
 275              		.loc 1 62 3
 276 004a 0420     		movs	r0, #4
 277 004c FFF7FEFF 		bl	Os_Calc_Period
 278              		.loc 1 65 5
 279 0050 C046     		nop
 280              	.L9:
  66:Core/Src/os.c **** }
 281              		.loc 1 66 1
 282 0052 BD46     		mov	sp, r7
 283 0054 02B0     		add	sp, sp, #8
ARM GAS  /var/folders/d0/cymppscj10lcmm48h781wrc80000gn/T//ccBdXnbf.s 			page 7


 284              		@ sp needed
 285 0056 80BD     		pop	{r7, pc}
 286              	.L14:
 287              		.align	2
 288              	.L13:
 289 0058 00000000 		.word	Os_Var
 290 005c 00000000 		.word	Os_100ms_Task
 291              		.cfi_endproc
 292              	.LFE46:
 294              		.global	__aeabi_uidivmod
 295              		.section	.text.Os_Handler_1ms,"ax",%progbits
 296              		.align	1
 297              		.global	Os_Handler_1ms
 298              		.syntax unified
 299              		.code	16
 300              		.thumb_func
 302              	Os_Handler_1ms:
 303              	.LFB47:
  67:Core/Src/os.c **** 
  68:Core/Src/os.c **** void Os_Handler_1ms(void)
  69:Core/Src/os.c **** {
 304              		.loc 1 69 1
 305              		.cfi_startproc
 306              		@ args = 0, pretend = 0, frame = 8
 307              		@ frame_needed = 1, uses_anonymous_args = 0
 308 0000 80B5     		push	{r7, lr}
 309              	.LCFI15:
 310              		.cfi_def_cfa_offset 8
 311              		.cfi_offset 7, -8
 312              		.cfi_offset 14, -4
 313 0002 82B0     		sub	sp, sp, #8
 314              	.LCFI16:
 315              		.cfi_def_cfa_offset 16
 316 0004 00AF     		add	r7, sp, #0
 317              	.LCFI17:
 318              		.cfi_def_cfa_register 7
  70:Core/Src/os.c **** 	if(Os_Var.Os_Counter.Os_1ms_Counter % 1 == 0)
  71:Core/Src/os.c **** 	{
  72:Core/Src/os.c **** 		Os_Var.Os_Counter.Os_1ms_Counter++;
 319              		.loc 1 72 20
 320 0006 1B4B     		ldr	r3, .L19
 321 0008 5B68     		ldr	r3, [r3, #4]
 322              		.loc 1 72 35
 323 000a 5A1C     		adds	r2, r3, #1
 324 000c 194B     		ldr	r3, .L19
 325 000e 5A60     		str	r2, [r3, #4]
  73:Core/Src/os.c **** 		Os_Var.Os_Task_Flag.Os_1ms_Flag = 1;
 326              		.loc 1 73 35
 327 0010 184B     		ldr	r3, .L19
 328 0012 5422     		movs	r2, #84
 329 0014 0121     		movs	r1, #1
 330 0016 9954     		strb	r1, [r3, r2]
  74:Core/Src/os.c **** 	}
  75:Core/Src/os.c **** 
  76:Core/Src/os.c **** 	if(Os_Var.Os_Counter.Os_1ms_Counter % 100 == 0)
 331              		.loc 1 76 22
 332 0018 164B     		ldr	r3, .L19
ARM GAS  /var/folders/d0/cymppscj10lcmm48h781wrc80000gn/T//ccBdXnbf.s 			page 8


 333 001a 5B68     		ldr	r3, [r3, #4]
 334              		.loc 1 76 38
 335 001c 6421     		movs	r1, #100
 336 001e 1800     		movs	r0, r3
 337 0020 FFF7FEFF 		bl	__aeabi_uidivmod
 338 0024 0B1E     		subs	r3, r1, #0
 339              		.loc 1 76 4
 340 0026 08D1     		bne	.L16
  77:Core/Src/os.c **** 	{
  78:Core/Src/os.c **** 		Os_Var.Os_Counter.Os_100ms_Counter++;
 341              		.loc 1 78 20
 342 0028 124B     		ldr	r3, .L19
 343 002a DB68     		ldr	r3, [r3, #12]
 344              		.loc 1 78 37
 345 002c 5A1C     		adds	r2, r3, #1
 346 002e 114B     		ldr	r3, .L19
 347 0030 DA60     		str	r2, [r3, #12]
  79:Core/Src/os.c **** 		Os_Var.Os_Task_Flag.Os_100ms_Flag = 1;
 348              		.loc 1 79 37
 349 0032 104B     		ldr	r3, .L19
 350 0034 5622     		movs	r2, #86
 351 0036 0121     		movs	r1, #1
 352 0038 9954     		strb	r1, [r3, r2]
 353              	.L16:
  80:Core/Src/os.c **** 	}
  81:Core/Src/os.c **** 	void(*fp)(void);
  82:Core/Src/os.c **** 	if(Os_Var.Os_Task_Flag.Os_1ms_Flag == 1)
 354              		.loc 1 82 24
 355 003a 0E4B     		ldr	r3, .L19
 356 003c 5422     		movs	r2, #84
 357 003e 9B5C     		ldrb	r3, [r3, r2]
 358              		.loc 1 82 4
 359 0040 012B     		cmp	r3, #1
 360 0042 13D1     		bne	.L18
  83:Core/Src/os.c **** 	{
  84:Core/Src/os.c **** 		fp = Os_1ms_Task;
 361              		.loc 1 84 6
 362 0044 0C4B     		ldr	r3, .L19+4
 363 0046 7B60     		str	r3, [r7, #4]
  85:Core/Src/os.c **** 		Os_Var.Os_Task_Add.Os_1ms_Address = fp;
 364              		.loc 1 85 37
 365 0048 0A4B     		ldr	r3, .L19
 366 004a 7A68     		ldr	r2, [r7, #4]
 367 004c 9A65     		str	r2, [r3, #88]
  86:Core/Src/os.c **** 		Os_Var.Os_Task_Flag.Os_1ms_Flag = 0;
 368              		.loc 1 86 35
 369 004e 094B     		ldr	r3, .L19
 370 0050 5422     		movs	r2, #84
 371 0052 0021     		movs	r1, #0
 372 0054 9954     		strb	r1, [r3, r2]
  87:Core/Src/os.c **** 		Os_Calc_Runtime_Start(OS_TASK_INDEX_1MS);
 373              		.loc 1 87 3
 374 0056 0120     		movs	r0, #1
 375 0058 FFF7FEFF 		bl	Os_Calc_Runtime_Start
  88:Core/Src/os.c **** 		(void)Os_1ms_Task();
 376              		.loc 1 88 3
 377 005c FFF7FEFF 		bl	Os_1ms_Task
ARM GAS  /var/folders/d0/cymppscj10lcmm48h781wrc80000gn/T//ccBdXnbf.s 			page 9


  89:Core/Src/os.c **** 		Os_Calc_Runtime_Stop(OS_TASK_INDEX_1MS);
 378              		.loc 1 89 3
 379 0060 0120     		movs	r0, #1
 380 0062 FFF7FEFF 		bl	Os_Calc_Runtime_Stop
  90:Core/Src/os.c **** 		Os_Calc_Period(OS_TASK_INDEX_1MS);
 381              		.loc 1 90 3
 382 0066 0120     		movs	r0, #1
 383 0068 FFF7FEFF 		bl	Os_Calc_Period
 384              	.L18:
  91:Core/Src/os.c **** 	}
  92:Core/Src/os.c **** }
 385              		.loc 1 92 1
 386 006c C046     		nop
 387 006e BD46     		mov	sp, r7
 388 0070 02B0     		add	sp, sp, #8
 389              		@ sp needed
 390 0072 80BD     		pop	{r7, pc}
 391              	.L20:
 392              		.align	2
 393              	.L19:
 394 0074 00000000 		.word	Os_Var
 395 0078 00000000 		.word	Os_1ms_Task
 396              		.cfi_endproc
 397              	.LFE47:
 399              		.section	.text.Os_Handler_10ms,"ax",%progbits
 400              		.align	1
 401              		.global	Os_Handler_10ms
 402              		.syntax unified
 403              		.code	16
 404              		.thumb_func
 406              	Os_Handler_10ms:
 407              	.LFB48:
  93:Core/Src/os.c **** 
  94:Core/Src/os.c **** void Os_Handler_10ms(void)
  95:Core/Src/os.c **** {
 408              		.loc 1 95 1
 409              		.cfi_startproc
 410              		@ args = 0, pretend = 0, frame = 8
 411              		@ frame_needed = 1, uses_anonymous_args = 0
 412 0000 80B5     		push	{r7, lr}
 413              	.LCFI18:
 414              		.cfi_def_cfa_offset 8
 415              		.cfi_offset 7, -8
 416              		.cfi_offset 14, -4
 417 0002 82B0     		sub	sp, sp, #8
 418              	.LCFI19:
 419              		.cfi_def_cfa_offset 16
 420 0004 00AF     		add	r7, sp, #0
 421              	.LCFI20:
 422              		.cfi_def_cfa_register 7
  96:Core/Src/os.c **** 	Os_Var.Os_Counter.Os_10ms_Counter++;
 423              		.loc 1 96 19
 424 0006 134B     		ldr	r3, .L24
 425 0008 9B68     		ldr	r3, [r3, #8]
 426              		.loc 1 96 35
 427 000a 5A1C     		adds	r2, r3, #1
 428 000c 114B     		ldr	r3, .L24
ARM GAS  /var/folders/d0/cymppscj10lcmm48h781wrc80000gn/T//ccBdXnbf.s 			page 10


 429 000e 9A60     		str	r2, [r3, #8]
  97:Core/Src/os.c **** 	Os_Var.Os_Task_Flag.Os_10ms_Flag = 1;
 430              		.loc 1 97 35
 431 0010 104B     		ldr	r3, .L24
 432 0012 5522     		movs	r2, #85
 433 0014 0121     		movs	r1, #1
 434 0016 9954     		strb	r1, [r3, r2]
  98:Core/Src/os.c **** 	void(*fp)(void);
  99:Core/Src/os.c **** 	if(Os_Var.Os_Task_Flag.Os_10ms_Flag == 1)
 435              		.loc 1 99 24
 436 0018 0E4B     		ldr	r3, .L24
 437 001a 5522     		movs	r2, #85
 438 001c 9B5C     		ldrb	r3, [r3, r2]
 439              		.loc 1 99 4
 440 001e 012B     		cmp	r3, #1
 441 0020 13D1     		bne	.L23
 100:Core/Src/os.c **** 	{
 101:Core/Src/os.c **** 		fp = Os_10ms_Task;
 442              		.loc 1 101 6
 443 0022 0D4B     		ldr	r3, .L24+4
 444 0024 7B60     		str	r3, [r7, #4]
 102:Core/Src/os.c **** 		Os_Var.Os_Task_Add.Os_10ms_Address = fp;
 445              		.loc 1 102 38
 446 0026 0B4B     		ldr	r3, .L24
 447 0028 7A68     		ldr	r2, [r7, #4]
 448 002a DA65     		str	r2, [r3, #92]
 103:Core/Src/os.c **** 		Os_Var.Os_Task_Flag.Os_10ms_Flag = 0;
 449              		.loc 1 103 36
 450 002c 094B     		ldr	r3, .L24
 451 002e 5522     		movs	r2, #85
 452 0030 0021     		movs	r1, #0
 453 0032 9954     		strb	r1, [r3, r2]
 104:Core/Src/os.c **** 		Os_Calc_Runtime_Start(OS_TASK_INDEX_10MS);
 454              		.loc 1 104 3
 455 0034 0220     		movs	r0, #2
 456 0036 FFF7FEFF 		bl	Os_Calc_Runtime_Start
 105:Core/Src/os.c **** 		(void)Os_10ms_Task();
 457              		.loc 1 105 3
 458 003a FFF7FEFF 		bl	Os_10ms_Task
 106:Core/Src/os.c **** 		Os_Calc_Runtime_Stop(OS_TASK_INDEX_10MS);
 459              		.loc 1 106 3
 460 003e 0220     		movs	r0, #2
 461 0040 FFF7FEFF 		bl	Os_Calc_Runtime_Stop
 107:Core/Src/os.c **** 		Os_Calc_Period(OS_TASK_INDEX_10MS);
 462              		.loc 1 107 3
 463 0044 0220     		movs	r0, #2
 464 0046 FFF7FEFF 		bl	Os_Calc_Period
 465              	.L23:
 108:Core/Src/os.c **** 	}
 109:Core/Src/os.c **** }
 466              		.loc 1 109 1
 467 004a C046     		nop
 468 004c BD46     		mov	sp, r7
 469 004e 02B0     		add	sp, sp, #8
 470              		@ sp needed
 471 0050 80BD     		pop	{r7, pc}
 472              	.L25:
ARM GAS  /var/folders/d0/cymppscj10lcmm48h781wrc80000gn/T//ccBdXnbf.s 			page 11


 473 0052 C046     		.align	2
 474              	.L24:
 475 0054 00000000 		.word	Os_Var
 476 0058 00000000 		.word	Os_10ms_Task
 477              		.cfi_endproc
 478              	.LFE48:
 480              		.section	.text.Os_Get_Tick_100us,"ax",%progbits
 481              		.align	1
 482              		.global	Os_Get_Tick_100us
 483              		.syntax unified
 484              		.code	16
 485              		.thumb_func
 487              	Os_Get_Tick_100us:
 488              	.LFB49:
 110:Core/Src/os.c **** 
 111:Core/Src/os.c **** uint32 Os_Get_Tick_100us(void)
 112:Core/Src/os.c **** {
 489              		.loc 1 112 1
 490              		.cfi_startproc
 491              		@ args = 0, pretend = 0, frame = 0
 492              		@ frame_needed = 1, uses_anonymous_args = 0
 493 0000 80B5     		push	{r7, lr}
 494              	.LCFI21:
 495              		.cfi_def_cfa_offset 8
 496              		.cfi_offset 7, -8
 497              		.cfi_offset 14, -4
 498 0002 00AF     		add	r7, sp, #0
 499              	.LCFI22:
 500              		.cfi_def_cfa_register 7
 113:Core/Src/os.c **** 	return Os_Var.Os_Counter.Os_100us_Counter;
 501              		.loc 1 113 26
 502 0004 024B     		ldr	r3, .L28
 503 0006 1B68     		ldr	r3, [r3]
 114:Core/Src/os.c **** }
 504              		.loc 1 114 1
 505 0008 1800     		movs	r0, r3
 506 000a BD46     		mov	sp, r7
 507              		@ sp needed
 508 000c 80BD     		pop	{r7, pc}
 509              	.L29:
 510 000e C046     		.align	2
 511              	.L28:
 512 0010 00000000 		.word	Os_Var
 513              		.cfi_endproc
 514              	.LFE49:
 516              		.section	.text.Os_Calc_Period,"ax",%progbits
 517              		.align	1
 518              		.syntax unified
 519              		.code	16
 520              		.thumb_func
 522              	Os_Calc_Period:
 523              	.LFB50:
 115:Core/Src/os.c **** 
 116:Core/Src/os.c **** static void Os_Calc_Period(uint8 idx)
 117:Core/Src/os.c **** {
 524              		.loc 1 117 1
 525              		.cfi_startproc
ARM GAS  /var/folders/d0/cymppscj10lcmm48h781wrc80000gn/T//ccBdXnbf.s 			page 12


 526              		@ args = 0, pretend = 0, frame = 24
 527              		@ frame_needed = 1, uses_anonymous_args = 0
 528 0000 80B5     		push	{r7, lr}
 529              	.LCFI23:
 530              		.cfi_def_cfa_offset 8
 531              		.cfi_offset 7, -8
 532              		.cfi_offset 14, -4
 533 0002 86B0     		sub	sp, sp, #24
 534              	.LCFI24:
 535              		.cfi_def_cfa_offset 32
 536 0004 00AF     		add	r7, sp, #0
 537              	.LCFI25:
 538              		.cfi_def_cfa_register 7
 539 0006 0200     		movs	r2, r0
 540 0008 FB1D     		adds	r3, r7, #7
 541 000a 1A70     		strb	r2, [r3]
 118:Core/Src/os.c **** 	uint32 OS_TimeLoc=0;
 542              		.loc 1 118 9
 543 000c 0023     		movs	r3, #0
 544 000e 3B61     		str	r3, [r7, #16]
 119:Core/Src/os.c **** 	uint32 OS_TimeOldLoc=0;
 545              		.loc 1 119 9
 546 0010 0023     		movs	r3, #0
 547 0012 7B61     		str	r3, [r7, #20]
 120:Core/Src/os.c **** 	uint32 Os_TimeDiffLoc=0;
 548              		.loc 1 120 9
 549 0014 0023     		movs	r3, #0
 550 0016 FB60     		str	r3, [r7, #12]
 121:Core/Src/os.c **** 
 122:Core/Src/os.c **** 	OS_TimeLoc = Os_Get_Tick_100us();
 551              		.loc 1 122 15
 552 0018 FFF7FEFF 		bl	Os_Get_Tick_100us
 553 001c 0300     		movs	r3, r0
 554 001e 3B61     		str	r3, [r7, #16]
 123:Core/Src/os.c **** 
 124:Core/Src/os.c **** 	switch(idx)
 555              		.loc 1 124 2
 556 0020 FB1D     		adds	r3, r7, #7
 557 0022 1B78     		ldrb	r3, [r3]
 558 0024 032B     		cmp	r3, #3
 559 0026 0DD0     		beq	.L31
 560 0028 10DC     		bgt	.L32
 561 002a 012B     		cmp	r3, #1
 562 002c 02D0     		beq	.L33
 563 002e 022B     		cmp	r3, #2
 564 0030 04D0     		beq	.L34
 565 0032 0BE0     		b	.L32
 566              	.L33:
 125:Core/Src/os.c **** 	{
 126:Core/Src/os.c **** 		case OS_TASK_INDEX_1MS : 
 127:Core/Src/os.c **** 			OS_TimeOldLoc = Os_Var.Os_Tick_Period.Os_1ms_Tick_Period;
 567              		.loc 1 127 18
 568 0034 1A4B     		ldr	r3, .L41
 569 0036 9B6A     		ldr	r3, [r3, #40]
 570 0038 7B61     		str	r3, [r7, #20]
 128:Core/Src/os.c **** 		break;
 571              		.loc 1 128 3
ARM GAS  /var/folders/d0/cymppscj10lcmm48h781wrc80000gn/T//ccBdXnbf.s 			page 13


 572 003a 07E0     		b	.L32
 573              	.L34:
 129:Core/Src/os.c **** 		case OS_TASK_INDEX_10MS : 
 130:Core/Src/os.c **** 			OS_TimeOldLoc = Os_Var.Os_Tick_Period.Os_10ms_Tick_Period;
 574              		.loc 1 130 18
 575 003c 184B     		ldr	r3, .L41
 576 003e DB6A     		ldr	r3, [r3, #44]
 577 0040 7B61     		str	r3, [r7, #20]
 131:Core/Src/os.c **** 		break;
 578              		.loc 1 131 3
 579 0042 03E0     		b	.L32
 580              	.L31:
 132:Core/Src/os.c **** 		case OS_TASK_INDEX_100MS : 
 133:Core/Src/os.c **** 			OS_TimeOldLoc = Os_Var.Os_Tick_Period.Os_100ms_Tick_Period;
 581              		.loc 1 133 18
 582 0044 164B     		ldr	r3, .L41
 583 0046 1B6B     		ldr	r3, [r3, #48]
 584 0048 7B61     		str	r3, [r7, #20]
 134:Core/Src/os.c **** 		break;
 585              		.loc 1 134 3
 586 004a C046     		nop
 587              	.L32:
 135:Core/Src/os.c **** 	}
 136:Core/Src/os.c **** 
 137:Core/Src/os.c **** 	Os_TimeDiffLoc = OS_TimeLoc - OS_TimeOldLoc;
 588              		.loc 1 137 17
 589 004c 3A69     		ldr	r2, [r7, #16]
 590 004e 7B69     		ldr	r3, [r7, #20]
 591 0050 D31A     		subs	r3, r2, r3
 592 0052 FB60     		str	r3, [r7, #12]
 138:Core/Src/os.c **** 	OS_TimeOldLoc = OS_TimeLoc;
 593              		.loc 1 138 16
 594 0054 3B69     		ldr	r3, [r7, #16]
 595 0056 7B61     		str	r3, [r7, #20]
 139:Core/Src/os.c **** 	
 140:Core/Src/os.c **** 	switch(idx)
 596              		.loc 1 140 2
 597 0058 FB1D     		adds	r3, r7, #7
 598 005a 1B78     		ldrb	r3, [r3]
 599 005c 032B     		cmp	r3, #3
 600 005e 13D0     		beq	.L35
 601 0060 1ADC     		bgt	.L40
 602 0062 012B     		cmp	r3, #1
 603 0064 02D0     		beq	.L37
 604 0066 022B     		cmp	r3, #2
 605 0068 07D0     		beq	.L38
 141:Core/Src/os.c **** 	{
 142:Core/Src/os.c **** 		case OS_TASK_INDEX_1MS : 
 143:Core/Src/os.c **** 			Os_Var.Os_Period.Os_1ms_Period = Os_TimeDiffLoc;
 144:Core/Src/os.c **** 			Os_Var.Os_Tick_Period.Os_1ms_Tick_Period = OS_TimeOldLoc;
 145:Core/Src/os.c **** 		break;
 146:Core/Src/os.c **** 		case OS_TASK_INDEX_10MS : 
 147:Core/Src/os.c **** 			Os_Var.Os_Period.Os_10ms_Period = Os_TimeDiffLoc;
 148:Core/Src/os.c **** 			Os_Var.Os_Tick_Period.Os_10ms_Tick_Period = OS_TimeOldLoc;
 149:Core/Src/os.c **** 		break;
 150:Core/Src/os.c **** 		case OS_TASK_INDEX_100MS : 
 151:Core/Src/os.c **** 			Os_Var.Os_Period.Os_100ms_Period = Os_TimeDiffLoc;
ARM GAS  /var/folders/d0/cymppscj10lcmm48h781wrc80000gn/T//ccBdXnbf.s 			page 14


 152:Core/Src/os.c **** 			Os_Var.Os_Tick_Period.Os_100ms_Tick_Period = OS_TimeOldLoc;
 153:Core/Src/os.c **** 		break;
 154:Core/Src/os.c **** 	}
 155:Core/Src/os.c **** 	
 156:Core/Src/os.c **** 	return;
 606              		.loc 1 156 2
 607 006a 15E0     		b	.L40
 608              	.L37:
 143:Core/Src/os.c **** 			Os_Var.Os_Tick_Period.Os_1ms_Tick_Period = OS_TimeOldLoc;
 609              		.loc 1 143 35
 610 006c 0C4B     		ldr	r3, .L41
 611 006e FA68     		ldr	r2, [r7, #12]
 612 0070 1A64     		str	r2, [r3, #64]
 144:Core/Src/os.c **** 		break;
 613              		.loc 1 144 45
 614 0072 0B4B     		ldr	r3, .L41
 615 0074 7A69     		ldr	r2, [r7, #20]
 616 0076 9A62     		str	r2, [r3, #40]
 145:Core/Src/os.c **** 		case OS_TASK_INDEX_10MS : 
 617              		.loc 1 145 3
 618 0078 0DE0     		b	.L36
 619              	.L38:
 147:Core/Src/os.c **** 			Os_Var.Os_Tick_Period.Os_10ms_Tick_Period = OS_TimeOldLoc;
 620              		.loc 1 147 36
 621 007a 094B     		ldr	r3, .L41
 622 007c FA68     		ldr	r2, [r7, #12]
 623 007e 5A64     		str	r2, [r3, #68]
 148:Core/Src/os.c **** 		break;
 624              		.loc 1 148 46
 625 0080 074B     		ldr	r3, .L41
 626 0082 7A69     		ldr	r2, [r7, #20]
 627 0084 DA62     		str	r2, [r3, #44]
 149:Core/Src/os.c **** 		case OS_TASK_INDEX_100MS : 
 628              		.loc 1 149 3
 629 0086 06E0     		b	.L36
 630              	.L35:
 151:Core/Src/os.c **** 			Os_Var.Os_Tick_Period.Os_100ms_Tick_Period = OS_TimeOldLoc;
 631              		.loc 1 151 37
 632 0088 054B     		ldr	r3, .L41
 633 008a FA68     		ldr	r2, [r7, #12]
 634 008c 9A64     		str	r2, [r3, #72]
 152:Core/Src/os.c **** 		break;
 635              		.loc 1 152 47
 636 008e 044B     		ldr	r3, .L41
 637 0090 7A69     		ldr	r2, [r7, #20]
 638 0092 1A63     		str	r2, [r3, #48]
 153:Core/Src/os.c **** 	}
 639              		.loc 1 153 3
 640 0094 C046     		nop
 641              	.L36:
 642              		.loc 1 156 2
 643 0096 C046     		nop
 644              	.L40:
 645 0098 C046     		nop
 157:Core/Src/os.c **** }
 646              		.loc 1 157 1
 647 009a BD46     		mov	sp, r7
ARM GAS  /var/folders/d0/cymppscj10lcmm48h781wrc80000gn/T//ccBdXnbf.s 			page 15


 648 009c 06B0     		add	sp, sp, #24
 649              		@ sp needed
 650 009e 80BD     		pop	{r7, pc}
 651              	.L42:
 652              		.align	2
 653              	.L41:
 654 00a0 00000000 		.word	Os_Var
 655              		.cfi_endproc
 656              	.LFE50:
 658              		.section	.text.Os_Calc_Runtime_Start,"ax",%progbits
 659              		.align	1
 660              		.syntax unified
 661              		.code	16
 662              		.thumb_func
 664              	Os_Calc_Runtime_Start:
 665              	.LFB51:
 158:Core/Src/os.c **** 
 159:Core/Src/os.c **** static void Os_Calc_Runtime_Start(uint8 idx)
 160:Core/Src/os.c **** {
 666              		.loc 1 160 1
 667              		.cfi_startproc
 668              		@ args = 0, pretend = 0, frame = 16
 669              		@ frame_needed = 1, uses_anonymous_args = 0
 670 0000 80B5     		push	{r7, lr}
 671              	.LCFI26:
 672              		.cfi_def_cfa_offset 8
 673              		.cfi_offset 7, -8
 674              		.cfi_offset 14, -4
 675 0002 84B0     		sub	sp, sp, #16
 676              	.LCFI27:
 677              		.cfi_def_cfa_offset 24
 678 0004 00AF     		add	r7, sp, #0
 679              	.LCFI28:
 680              		.cfi_def_cfa_register 7
 681 0006 0200     		movs	r2, r0
 682 0008 FB1D     		adds	r3, r7, #7
 683 000a 1A70     		strb	r2, [r3]
 161:Core/Src/os.c **** 	uint32 OS_TimeLoc=0;
 684              		.loc 1 161 9
 685 000c 0023     		movs	r3, #0
 686 000e FB60     		str	r3, [r7, #12]
 162:Core/Src/os.c **** 
 163:Core/Src/os.c **** 	OS_TimeLoc = Os_Get_Tick_100us();
 687              		.loc 1 163 15
 688 0010 FFF7FEFF 		bl	Os_Get_Tick_100us
 689 0014 0300     		movs	r3, r0
 690 0016 FB60     		str	r3, [r7, #12]
 164:Core/Src/os.c **** 
 165:Core/Src/os.c **** 	switch(idx)
 691              		.loc 1 165 2
 692 0018 FB1D     		adds	r3, r7, #7
 693 001a 1B78     		ldrb	r3, [r3]
 694 001c 032B     		cmp	r3, #3
 695 001e 0DD0     		beq	.L44
 696 0020 11DC     		bgt	.L49
 697 0022 012B     		cmp	r3, #1
 698 0024 02D0     		beq	.L46
ARM GAS  /var/folders/d0/cymppscj10lcmm48h781wrc80000gn/T//ccBdXnbf.s 			page 16


 699 0026 022B     		cmp	r3, #2
 700 0028 04D0     		beq	.L47
 166:Core/Src/os.c **** 	{
 167:Core/Src/os.c **** 		case OS_TASK_INDEX_1MS : 
 168:Core/Src/os.c **** 			Os_Var.Os_Tick_Runtime.Os_1ms_Tick_Runtime_Start = OS_TimeLoc;
 169:Core/Src/os.c **** 		break;
 170:Core/Src/os.c **** 		case OS_TASK_INDEX_10MS : 
 171:Core/Src/os.c **** 			Os_Var.Os_Tick_Runtime.Os_10ms_Tick_Runtime_Start = OS_TimeLoc;
 172:Core/Src/os.c **** 		break;
 173:Core/Src/os.c **** 		case OS_TASK_INDEX_100MS : 
 174:Core/Src/os.c **** 			Os_Var.Os_Tick_Runtime.Os_100ms_Tick_Runtime_Start = OS_TimeLoc;
 175:Core/Src/os.c **** 		break;
 176:Core/Src/os.c **** 	}
 177:Core/Src/os.c **** 
 178:Core/Src/os.c **** 	return;
 701              		.loc 1 178 2
 702 002a 0CE0     		b	.L49
 703              	.L46:
 168:Core/Src/os.c **** 		break;
 704              		.loc 1 168 53
 705 002c 084B     		ldr	r3, .L50
 706 002e FA68     		ldr	r2, [r7, #12]
 707 0030 1A61     		str	r2, [r3, #16]
 169:Core/Src/os.c **** 		case OS_TASK_INDEX_10MS : 
 708              		.loc 1 169 3
 709 0032 07E0     		b	.L45
 710              	.L47:
 171:Core/Src/os.c **** 		break;
 711              		.loc 1 171 54
 712 0034 064B     		ldr	r3, .L50
 713 0036 FA68     		ldr	r2, [r7, #12]
 714 0038 9A61     		str	r2, [r3, #24]
 172:Core/Src/os.c **** 		case OS_TASK_INDEX_100MS : 
 715              		.loc 1 172 3
 716 003a 03E0     		b	.L45
 717              	.L44:
 174:Core/Src/os.c **** 		break;
 718              		.loc 1 174 55
 719 003c 044B     		ldr	r3, .L50
 720 003e FA68     		ldr	r2, [r7, #12]
 721 0040 1A62     		str	r2, [r3, #32]
 175:Core/Src/os.c **** 	}
 722              		.loc 1 175 3
 723 0042 C046     		nop
 724              	.L45:
 725              		.loc 1 178 2
 726 0044 C046     		nop
 727              	.L49:
 728 0046 C046     		nop
 179:Core/Src/os.c **** }
 729              		.loc 1 179 1
 730 0048 BD46     		mov	sp, r7
 731 004a 04B0     		add	sp, sp, #16
 732              		@ sp needed
 733 004c 80BD     		pop	{r7, pc}
 734              	.L51:
 735 004e C046     		.align	2
ARM GAS  /var/folders/d0/cymppscj10lcmm48h781wrc80000gn/T//ccBdXnbf.s 			page 17


 736              	.L50:
 737 0050 00000000 		.word	Os_Var
 738              		.cfi_endproc
 739              	.LFE51:
 741              		.section	.text.Os_Calc_Runtime_Stop,"ax",%progbits
 742              		.align	1
 743              		.syntax unified
 744              		.code	16
 745              		.thumb_func
 747              	Os_Calc_Runtime_Stop:
 748              	.LFB52:
 180:Core/Src/os.c **** 
 181:Core/Src/os.c **** static void Os_Calc_Runtime_Stop(uint8 idx)
 182:Core/Src/os.c **** {
 749              		.loc 1 182 1
 750              		.cfi_startproc
 751              		@ args = 0, pretend = 0, frame = 24
 752              		@ frame_needed = 1, uses_anonymous_args = 0
 753 0000 80B5     		push	{r7, lr}
 754              	.LCFI29:
 755              		.cfi_def_cfa_offset 8
 756              		.cfi_offset 7, -8
 757              		.cfi_offset 14, -4
 758 0002 86B0     		sub	sp, sp, #24
 759              	.LCFI30:
 760              		.cfi_def_cfa_offset 32
 761 0004 00AF     		add	r7, sp, #0
 762              	.LCFI31:
 763              		.cfi_def_cfa_register 7
 764 0006 0200     		movs	r2, r0
 765 0008 FB1D     		adds	r3, r7, #7
 766 000a 1A70     		strb	r2, [r3]
 183:Core/Src/os.c **** 	uint32 OS_TimeLoc=0;
 767              		.loc 1 183 9
 768 000c 0023     		movs	r3, #0
 769 000e 3B61     		str	r3, [r7, #16]
 184:Core/Src/os.c **** 	uint32 OS_TimeOldLoc=0;
 770              		.loc 1 184 9
 771 0010 0023     		movs	r3, #0
 772 0012 7B61     		str	r3, [r7, #20]
 185:Core/Src/os.c **** 	uint32 Os_TimeDiffLoc=0;
 773              		.loc 1 185 9
 774 0014 0023     		movs	r3, #0
 775 0016 FB60     		str	r3, [r7, #12]
 186:Core/Src/os.c **** 
 187:Core/Src/os.c **** 	OS_TimeLoc = Os_Get_Tick_100us();
 776              		.loc 1 187 15
 777 0018 FFF7FEFF 		bl	Os_Get_Tick_100us
 778 001c 0300     		movs	r3, r0
 779 001e 3B61     		str	r3, [r7, #16]
 188:Core/Src/os.c **** 
 189:Core/Src/os.c **** 	switch(idx)
 780              		.loc 1 189 2
 781 0020 FB1D     		adds	r3, r7, #7
 782 0022 1B78     		ldrb	r3, [r3]
 783 0024 032B     		cmp	r3, #3
 784 0026 0DD0     		beq	.L53
ARM GAS  /var/folders/d0/cymppscj10lcmm48h781wrc80000gn/T//ccBdXnbf.s 			page 18


 785 0028 10DC     		bgt	.L54
 786 002a 012B     		cmp	r3, #1
 787 002c 02D0     		beq	.L55
 788 002e 022B     		cmp	r3, #2
 789 0030 04D0     		beq	.L56
 790 0032 0BE0     		b	.L54
 791              	.L55:
 190:Core/Src/os.c **** 	{
 191:Core/Src/os.c **** 		case OS_TASK_INDEX_1MS : 
 192:Core/Src/os.c **** 			OS_TimeOldLoc = Os_Var.Os_Tick_Runtime.Os_1ms_Tick_Runtime_Start;
 792              		.loc 1 192 18
 793 0034 194B     		ldr	r3, .L63
 794 0036 1B69     		ldr	r3, [r3, #16]
 795 0038 7B61     		str	r3, [r7, #20]
 193:Core/Src/os.c **** 		break;
 796              		.loc 1 193 3
 797 003a 07E0     		b	.L54
 798              	.L56:
 194:Core/Src/os.c **** 		case OS_TASK_INDEX_10MS : 
 195:Core/Src/os.c **** 			OS_TimeOldLoc = Os_Var.Os_Tick_Runtime.Os_10ms_Tick_Runtime_Start;
 799              		.loc 1 195 18
 800 003c 174B     		ldr	r3, .L63
 801 003e 9B69     		ldr	r3, [r3, #24]
 802 0040 7B61     		str	r3, [r7, #20]
 196:Core/Src/os.c **** 		break;
 803              		.loc 1 196 3
 804 0042 03E0     		b	.L54
 805              	.L53:
 197:Core/Src/os.c **** 		case OS_TASK_INDEX_100MS : 
 198:Core/Src/os.c **** 			OS_TimeOldLoc = Os_Var.Os_Tick_Runtime.Os_100ms_Tick_Runtime_Start;
 806              		.loc 1 198 18
 807 0044 154B     		ldr	r3, .L63
 808 0046 1B6A     		ldr	r3, [r3, #32]
 809 0048 7B61     		str	r3, [r7, #20]
 199:Core/Src/os.c **** 		break;
 810              		.loc 1 199 3
 811 004a C046     		nop
 812              	.L54:
 200:Core/Src/os.c **** 	}
 201:Core/Src/os.c **** 
 202:Core/Src/os.c **** 	Os_TimeDiffLoc = OS_TimeLoc - OS_TimeOldLoc;
 813              		.loc 1 202 17
 814 004c 3A69     		ldr	r2, [r7, #16]
 815 004e 7B69     		ldr	r3, [r7, #20]
 816 0050 D31A     		subs	r3, r2, r3
 817 0052 FB60     		str	r3, [r7, #12]
 203:Core/Src/os.c **** 
 204:Core/Src/os.c **** 	switch(idx)
 818              		.loc 1 204 2
 819 0054 FB1D     		adds	r3, r7, #7
 820 0056 1B78     		ldrb	r3, [r3]
 821 0058 032B     		cmp	r3, #3
 822 005a 13D0     		beq	.L57
 823 005c 1ADC     		bgt	.L62
 824 005e 012B     		cmp	r3, #1
 825 0060 02D0     		beq	.L59
 826 0062 022B     		cmp	r3, #2
ARM GAS  /var/folders/d0/cymppscj10lcmm48h781wrc80000gn/T//ccBdXnbf.s 			page 19


 827 0064 07D0     		beq	.L60
 205:Core/Src/os.c **** 	{
 206:Core/Src/os.c **** 		case OS_TASK_INDEX_1MS : 
 207:Core/Src/os.c **** 			Os_Var.Os_Runtime.Os_1ms_Runtime = Os_TimeDiffLoc;
 208:Core/Src/os.c **** 			Os_Var.Os_Tick_Runtime.Os_1ms_Tick_Runtime_Stop = OS_TimeLoc;
 209:Core/Src/os.c **** 		break;
 210:Core/Src/os.c **** 		case OS_TASK_INDEX_10MS : 
 211:Core/Src/os.c **** 			Os_Var.Os_Runtime.Os_10ms_Runtime = Os_TimeDiffLoc;
 212:Core/Src/os.c **** 			Os_Var.Os_Tick_Runtime.Os_10ms_Tick_Runtime_Stop = OS_TimeLoc;
 213:Core/Src/os.c **** 		break;
 214:Core/Src/os.c **** 		case OS_TASK_INDEX_100MS : 
 215:Core/Src/os.c **** 			Os_Var.Os_Runtime.Os_100ms_Runtime = Os_TimeDiffLoc;
 216:Core/Src/os.c **** 			Os_Var.Os_Tick_Runtime.Os_100ms_Tick_Runtime_Stop = OS_TimeLoc;
 217:Core/Src/os.c **** 		break;
 218:Core/Src/os.c **** 	}
 219:Core/Src/os.c **** 
 220:Core/Src/os.c **** 	return;
 828              		.loc 1 220 2
 829 0066 15E0     		b	.L62
 830              	.L59:
 207:Core/Src/os.c **** 			Os_Var.Os_Tick_Runtime.Os_1ms_Tick_Runtime_Stop = OS_TimeLoc;
 831              		.loc 1 207 37
 832 0068 0C4B     		ldr	r3, .L63
 833 006a FA68     		ldr	r2, [r7, #12]
 834 006c 5A63     		str	r2, [r3, #52]
 208:Core/Src/os.c **** 		break;
 835              		.loc 1 208 52
 836 006e 0B4B     		ldr	r3, .L63
 837 0070 3A69     		ldr	r2, [r7, #16]
 838 0072 5A61     		str	r2, [r3, #20]
 209:Core/Src/os.c **** 		case OS_TASK_INDEX_10MS : 
 839              		.loc 1 209 3
 840 0074 0DE0     		b	.L58
 841              	.L60:
 211:Core/Src/os.c **** 			Os_Var.Os_Tick_Runtime.Os_10ms_Tick_Runtime_Stop = OS_TimeLoc;
 842              		.loc 1 211 38
 843 0076 094B     		ldr	r3, .L63
 844 0078 FA68     		ldr	r2, [r7, #12]
 845 007a 9A63     		str	r2, [r3, #56]
 212:Core/Src/os.c **** 		break;
 846              		.loc 1 212 53
 847 007c 074B     		ldr	r3, .L63
 848 007e 3A69     		ldr	r2, [r7, #16]
 849 0080 DA61     		str	r2, [r3, #28]
 213:Core/Src/os.c **** 		case OS_TASK_INDEX_100MS : 
 850              		.loc 1 213 3
 851 0082 06E0     		b	.L58
 852              	.L57:
 215:Core/Src/os.c **** 			Os_Var.Os_Tick_Runtime.Os_100ms_Tick_Runtime_Stop = OS_TimeLoc;
 853              		.loc 1 215 39
 854 0084 054B     		ldr	r3, .L63
 855 0086 FA68     		ldr	r2, [r7, #12]
 856 0088 DA63     		str	r2, [r3, #60]
 216:Core/Src/os.c **** 		break;
 857              		.loc 1 216 54
 858 008a 044B     		ldr	r3, .L63
 859 008c 3A69     		ldr	r2, [r7, #16]
ARM GAS  /var/folders/d0/cymppscj10lcmm48h781wrc80000gn/T//ccBdXnbf.s 			page 20


 860 008e 5A62     		str	r2, [r3, #36]
 217:Core/Src/os.c **** 	}
 861              		.loc 1 217 3
 862 0090 C046     		nop
 863              	.L58:
 864              		.loc 1 220 2
 865 0092 C046     		nop
 866              	.L62:
 867 0094 C046     		nop
 221:Core/Src/os.c **** }...
 868              		.loc 1 221 1
 869 0096 BD46     		mov	sp, r7
 870 0098 06B0     		add	sp, sp, #24
 871              		@ sp needed
 872 009a 80BD     		pop	{r7, pc}
 873              	.L64:
 874              		.align	2
 875              	.L63:
 876 009c 00000000 		.word	Os_Var
 877              		.cfi_endproc
 878              	.LFE52:
 880              		.text
 881              	.Letext0:
 882              		.file 2 "Core/Inc/vardef.h"
 883              		.file 3 "Core/Inc/os.h"
ARM GAS  /var/folders/d0/cymppscj10lcmm48h781wrc80000gn/T//ccBdXnbf.s 			page 21

