ARM GAS  /var/folders/d0/cymppscj10lcmm48h781wrc80000gn/T//cc0qcKWW.s 			page 1


   1              		.cpu cortex-m0
   2              		.arch armv6s-m
   3              		.fpu softvfp
   4              		.eabi_attribute 20, 1
   5              		.eabi_attribute 21, 1
   6              		.eabi_attribute 23, 3
   7              		.eabi_attribute 24, 1
   8              		.eabi_attribute 25, 1
   9              		.eabi_attribute 26, 1
  10              		.eabi_attribute 30, 6
  11              		.eabi_attribute 34, 0
  12              		.eabi_attribute 18, 4
  13              		.file	"stm32f0xx_hal_tim_ex.c"
  14              		.text
  15              	.Ltext0:
  16              		.cfi_sections	.debug_frame
  17              		.section	.text.HAL_TIMEx_HallSensor_Init,"ax",%progbits
  18              		.align	1
  19              		.global	HAL_TIMEx_HallSensor_Init
  20              		.syntax unified
  21              		.code	16
  22              		.thumb_func
  24              	HAL_TIMEx_HallSensor_Init:
  25              	.LFB40:
  26              		.file 1 "Drivers/STM32F0xx_HAL_Driver/Src/stm32f0xx_hal_tim_ex.c"
   1:Drivers/STM32F0xx_HAL_Driver/Src/stm32f0xx_hal_tim_ex.c **** /**
   2:Drivers/STM32F0xx_HAL_Driver/Src/stm32f0xx_hal_tim_ex.c ****   ******************************************************************************
   3:Drivers/STM32F0xx_HAL_Driver/Src/stm32f0xx_hal_tim_ex.c ****   * @file    stm32f0xx_hal_tim_ex.c
   4:Drivers/STM32F0xx_HAL_Driver/Src/stm32f0xx_hal_tim_ex.c ****   * @author  MCD Application Team
   5:Drivers/STM32F0xx_HAL_Driver/Src/stm32f0xx_hal_tim_ex.c ****   * @brief   TIM HAL module driver.
   6:Drivers/STM32F0xx_HAL_Driver/Src/stm32f0xx_hal_tim_ex.c ****   *          This file provides firmware functions to manage the following
   7:Drivers/STM32F0xx_HAL_Driver/Src/stm32f0xx_hal_tim_ex.c ****   *          functionalities of the Timer Extended peripheral:
   8:Drivers/STM32F0xx_HAL_Driver/Src/stm32f0xx_hal_tim_ex.c ****   *           + Time Hall Sensor Interface Initialization
   9:Drivers/STM32F0xx_HAL_Driver/Src/stm32f0xx_hal_tim_ex.c ****   *           + Time Hall Sensor Interface Start
  10:Drivers/STM32F0xx_HAL_Driver/Src/stm32f0xx_hal_tim_ex.c ****   *           + Time Complementary signal break and dead time configuration
  11:Drivers/STM32F0xx_HAL_Driver/Src/stm32f0xx_hal_tim_ex.c ****   *           + Time Master and Slave synchronization configuration
  12:Drivers/STM32F0xx_HAL_Driver/Src/stm32f0xx_hal_tim_ex.c ****   *           + Time OCRef clear configuration
  13:Drivers/STM32F0xx_HAL_Driver/Src/stm32f0xx_hal_tim_ex.c ****   *           + Timer remapping capabilities configuration
  14:Drivers/STM32F0xx_HAL_Driver/Src/stm32f0xx_hal_tim_ex.c ****   @verbatim
  15:Drivers/STM32F0xx_HAL_Driver/Src/stm32f0xx_hal_tim_ex.c ****   ==============================================================================
  16:Drivers/STM32F0xx_HAL_Driver/Src/stm32f0xx_hal_tim_ex.c ****                       ##### TIMER Extended features #####
  17:Drivers/STM32F0xx_HAL_Driver/Src/stm32f0xx_hal_tim_ex.c ****   ==============================================================================
  18:Drivers/STM32F0xx_HAL_Driver/Src/stm32f0xx_hal_tim_ex.c ****   [..]
  19:Drivers/STM32F0xx_HAL_Driver/Src/stm32f0xx_hal_tim_ex.c ****     The Timer Extended features include:
  20:Drivers/STM32F0xx_HAL_Driver/Src/stm32f0xx_hal_tim_ex.c ****     (#) Complementary outputs with programmable dead-time for :
  21:Drivers/STM32F0xx_HAL_Driver/Src/stm32f0xx_hal_tim_ex.c ****         (++) Output Compare
  22:Drivers/STM32F0xx_HAL_Driver/Src/stm32f0xx_hal_tim_ex.c ****         (++) PWM generation (Edge and Center-aligned Mode)
  23:Drivers/STM32F0xx_HAL_Driver/Src/stm32f0xx_hal_tim_ex.c ****         (++) One-pulse mode output
  24:Drivers/STM32F0xx_HAL_Driver/Src/stm32f0xx_hal_tim_ex.c ****     (#) Synchronization circuit to control the timer with external signals and to
  25:Drivers/STM32F0xx_HAL_Driver/Src/stm32f0xx_hal_tim_ex.c ****         interconnect several timers together.
  26:Drivers/STM32F0xx_HAL_Driver/Src/stm32f0xx_hal_tim_ex.c ****     (#) Break input to put the timer output signals in reset state or in a known state.
  27:Drivers/STM32F0xx_HAL_Driver/Src/stm32f0xx_hal_tim_ex.c ****     (#) Supports incremental (quadrature) encoder and hall-sensor circuitry for
  28:Drivers/STM32F0xx_HAL_Driver/Src/stm32f0xx_hal_tim_ex.c ****         positioning purposes
  29:Drivers/STM32F0xx_HAL_Driver/Src/stm32f0xx_hal_tim_ex.c **** 
  30:Drivers/STM32F0xx_HAL_Driver/Src/stm32f0xx_hal_tim_ex.c ****             ##### How to use this driver #####
  31:Drivers/STM32F0xx_HAL_Driver/Src/stm32f0xx_hal_tim_ex.c ****   ==============================================================================
  32:Drivers/STM32F0xx_HAL_Driver/Src/stm32f0xx_hal_tim_ex.c ****     [..]
ARM GAS  /var/folders/d0/cymppscj10lcmm48h781wrc80000gn/T//cc0qcKWW.s 			page 2


  33:Drivers/STM32F0xx_HAL_Driver/Src/stm32f0xx_hal_tim_ex.c ****      (#) Initialize the TIM low level resources by implementing the following functions
  34:Drivers/STM32F0xx_HAL_Driver/Src/stm32f0xx_hal_tim_ex.c ****          depending on the selected feature:
  35:Drivers/STM32F0xx_HAL_Driver/Src/stm32f0xx_hal_tim_ex.c ****            (++) Hall Sensor output : HAL_TIMEx_HallSensor_MspInit()
  36:Drivers/STM32F0xx_HAL_Driver/Src/stm32f0xx_hal_tim_ex.c **** 
  37:Drivers/STM32F0xx_HAL_Driver/Src/stm32f0xx_hal_tim_ex.c ****      (#) Initialize the TIM low level resources :
  38:Drivers/STM32F0xx_HAL_Driver/Src/stm32f0xx_hal_tim_ex.c ****         (##) Enable the TIM interface clock using __HAL_RCC_TIMx_CLK_ENABLE();
  39:Drivers/STM32F0xx_HAL_Driver/Src/stm32f0xx_hal_tim_ex.c ****         (##) TIM pins configuration
  40:Drivers/STM32F0xx_HAL_Driver/Src/stm32f0xx_hal_tim_ex.c ****             (+++) Enable the clock for the TIM GPIOs using the following function:
  41:Drivers/STM32F0xx_HAL_Driver/Src/stm32f0xx_hal_tim_ex.c ****               __HAL_RCC_GPIOx_CLK_ENABLE();
  42:Drivers/STM32F0xx_HAL_Driver/Src/stm32f0xx_hal_tim_ex.c ****             (+++) Configure these TIM pins in Alternate function mode using HAL_GPIO_Init();
  43:Drivers/STM32F0xx_HAL_Driver/Src/stm32f0xx_hal_tim_ex.c **** 
  44:Drivers/STM32F0xx_HAL_Driver/Src/stm32f0xx_hal_tim_ex.c ****      (#) The external Clock can be configured, if needed (the default clock is the
  45:Drivers/STM32F0xx_HAL_Driver/Src/stm32f0xx_hal_tim_ex.c ****          internal clock from the APBx), using the following function:
  46:Drivers/STM32F0xx_HAL_Driver/Src/stm32f0xx_hal_tim_ex.c ****          HAL_TIM_ConfigClockSource, the clock configuration should be done before
  47:Drivers/STM32F0xx_HAL_Driver/Src/stm32f0xx_hal_tim_ex.c ****          any start function.
  48:Drivers/STM32F0xx_HAL_Driver/Src/stm32f0xx_hal_tim_ex.c **** 
  49:Drivers/STM32F0xx_HAL_Driver/Src/stm32f0xx_hal_tim_ex.c ****      (#) Configure the TIM in the desired functioning mode using one of the
  50:Drivers/STM32F0xx_HAL_Driver/Src/stm32f0xx_hal_tim_ex.c ****          initialization function of this driver:
  51:Drivers/STM32F0xx_HAL_Driver/Src/stm32f0xx_hal_tim_ex.c ****           (++) HAL_TIMEx_HallSensor_Init() and HAL_TIMEx_ConfigCommutEvent(): to use the
  52:Drivers/STM32F0xx_HAL_Driver/Src/stm32f0xx_hal_tim_ex.c ****                Timer Hall Sensor Interface and the commutation event with the corresponding
  53:Drivers/STM32F0xx_HAL_Driver/Src/stm32f0xx_hal_tim_ex.c ****                Interrupt and DMA request if needed (Note that One Timer is used to interface
  54:Drivers/STM32F0xx_HAL_Driver/Src/stm32f0xx_hal_tim_ex.c ****                with the Hall sensor Interface and another Timer should be used to use
  55:Drivers/STM32F0xx_HAL_Driver/Src/stm32f0xx_hal_tim_ex.c ****                the commutation event).
  56:Drivers/STM32F0xx_HAL_Driver/Src/stm32f0xx_hal_tim_ex.c **** 
  57:Drivers/STM32F0xx_HAL_Driver/Src/stm32f0xx_hal_tim_ex.c ****      (#) Activate the TIM peripheral using one of the start functions:
  58:Drivers/STM32F0xx_HAL_Driver/Src/stm32f0xx_hal_tim_ex.c ****            (++) Complementary Output Compare : HAL_TIMEx_OCN_Start(), HAL_TIMEx_OCN_Start_DMA(),
  59:Drivers/STM32F0xx_HAL_Driver/Src/stm32f0xx_hal_tim_ex.c ****                 HAL_TIMEx_OCN_Start_IT()
  60:Drivers/STM32F0xx_HAL_Driver/Src/stm32f0xx_hal_tim_ex.c ****            (++) Complementary PWM generation : HAL_TIMEx_PWMN_Start(), HAL_TIMEx_PWMN_Start_DMA(),
  61:Drivers/STM32F0xx_HAL_Driver/Src/stm32f0xx_hal_tim_ex.c ****                 HAL_TIMEx_PWMN_Start_IT()
  62:Drivers/STM32F0xx_HAL_Driver/Src/stm32f0xx_hal_tim_ex.c ****            (++) Complementary One-pulse mode output : HAL_TIMEx_OnePulseN_Start(), HAL_TIMEx_OnePul
  63:Drivers/STM32F0xx_HAL_Driver/Src/stm32f0xx_hal_tim_ex.c ****            (++) Hall Sensor output : HAL_TIMEx_HallSensor_Start(), HAL_TIMEx_HallSensor_Start_DMA()
  64:Drivers/STM32F0xx_HAL_Driver/Src/stm32f0xx_hal_tim_ex.c ****                 HAL_TIMEx_HallSensor_Start_IT().
  65:Drivers/STM32F0xx_HAL_Driver/Src/stm32f0xx_hal_tim_ex.c **** 
  66:Drivers/STM32F0xx_HAL_Driver/Src/stm32f0xx_hal_tim_ex.c ****   @endverbatim
  67:Drivers/STM32F0xx_HAL_Driver/Src/stm32f0xx_hal_tim_ex.c ****   ******************************************************************************
  68:Drivers/STM32F0xx_HAL_Driver/Src/stm32f0xx_hal_tim_ex.c ****   * @attention
  69:Drivers/STM32F0xx_HAL_Driver/Src/stm32f0xx_hal_tim_ex.c ****   *
  70:Drivers/STM32F0xx_HAL_Driver/Src/stm32f0xx_hal_tim_ex.c ****   * <h2><center>&copy; Copyright (c) 2016 STMicroelectronics.
  71:Drivers/STM32F0xx_HAL_Driver/Src/stm32f0xx_hal_tim_ex.c ****   * All rights reserved.</center></h2>
  72:Drivers/STM32F0xx_HAL_Driver/Src/stm32f0xx_hal_tim_ex.c ****   *
  73:Drivers/STM32F0xx_HAL_Driver/Src/stm32f0xx_hal_tim_ex.c ****   * This software component is licensed by ST under BSD 3-Clause license,
  74:Drivers/STM32F0xx_HAL_Driver/Src/stm32f0xx_hal_tim_ex.c ****   * the "License"; You may not use this file except in compliance with the
  75:Drivers/STM32F0xx_HAL_Driver/Src/stm32f0xx_hal_tim_ex.c ****   * License. You may obtain a copy of the License at:
  76:Drivers/STM32F0xx_HAL_Driver/Src/stm32f0xx_hal_tim_ex.c ****   *                        opensource.org/licenses/BSD-3-Clause
  77:Drivers/STM32F0xx_HAL_Driver/Src/stm32f0xx_hal_tim_ex.c ****   *
  78:Drivers/STM32F0xx_HAL_Driver/Src/stm32f0xx_hal_tim_ex.c ****   ******************************************************************************
  79:Drivers/STM32F0xx_HAL_Driver/Src/stm32f0xx_hal_tim_ex.c ****   */
  80:Drivers/STM32F0xx_HAL_Driver/Src/stm32f0xx_hal_tim_ex.c **** 
  81:Drivers/STM32F0xx_HAL_Driver/Src/stm32f0xx_hal_tim_ex.c **** /* Includes ------------------------------------------------------------------*/
  82:Drivers/STM32F0xx_HAL_Driver/Src/stm32f0xx_hal_tim_ex.c **** #include "stm32f0xx_hal.h"
  83:Drivers/STM32F0xx_HAL_Driver/Src/stm32f0xx_hal_tim_ex.c **** 
  84:Drivers/STM32F0xx_HAL_Driver/Src/stm32f0xx_hal_tim_ex.c **** /** @addtogroup STM32F0xx_HAL_Driver
  85:Drivers/STM32F0xx_HAL_Driver/Src/stm32f0xx_hal_tim_ex.c ****   * @{
  86:Drivers/STM32F0xx_HAL_Driver/Src/stm32f0xx_hal_tim_ex.c ****   */
  87:Drivers/STM32F0xx_HAL_Driver/Src/stm32f0xx_hal_tim_ex.c **** 
  88:Drivers/STM32F0xx_HAL_Driver/Src/stm32f0xx_hal_tim_ex.c **** /** @defgroup TIMEx TIMEx
  89:Drivers/STM32F0xx_HAL_Driver/Src/stm32f0xx_hal_tim_ex.c ****   * @brief TIM Extended HAL module driver
ARM GAS  /var/folders/d0/cymppscj10lcmm48h781wrc80000gn/T//cc0qcKWW.s 			page 3


  90:Drivers/STM32F0xx_HAL_Driver/Src/stm32f0xx_hal_tim_ex.c ****   * @{
  91:Drivers/STM32F0xx_HAL_Driver/Src/stm32f0xx_hal_tim_ex.c ****   */
  92:Drivers/STM32F0xx_HAL_Driver/Src/stm32f0xx_hal_tim_ex.c **** 
  93:Drivers/STM32F0xx_HAL_Driver/Src/stm32f0xx_hal_tim_ex.c **** #ifdef HAL_TIM_MODULE_ENABLED
  94:Drivers/STM32F0xx_HAL_Driver/Src/stm32f0xx_hal_tim_ex.c **** 
  95:Drivers/STM32F0xx_HAL_Driver/Src/stm32f0xx_hal_tim_ex.c **** /* Private typedef -----------------------------------------------------------*/
  96:Drivers/STM32F0xx_HAL_Driver/Src/stm32f0xx_hal_tim_ex.c **** /* Private define ------------------------------------------------------------*/
  97:Drivers/STM32F0xx_HAL_Driver/Src/stm32f0xx_hal_tim_ex.c **** /* Private macros ------------------------------------------------------------*/
  98:Drivers/STM32F0xx_HAL_Driver/Src/stm32f0xx_hal_tim_ex.c **** /* Private variables ---------------------------------------------------------*/
  99:Drivers/STM32F0xx_HAL_Driver/Src/stm32f0xx_hal_tim_ex.c **** /* Private function prototypes -----------------------------------------------*/
 100:Drivers/STM32F0xx_HAL_Driver/Src/stm32f0xx_hal_tim_ex.c **** static void TIM_DMADelayPulseNCplt(DMA_HandleTypeDef *hdma);
 101:Drivers/STM32F0xx_HAL_Driver/Src/stm32f0xx_hal_tim_ex.c **** static void TIM_DMAErrorCCxN(DMA_HandleTypeDef *hdma);
 102:Drivers/STM32F0xx_HAL_Driver/Src/stm32f0xx_hal_tim_ex.c **** static void TIM_CCxNChannelCmd(TIM_TypeDef *TIMx, uint32_t Channel, uint32_t ChannelNState);
 103:Drivers/STM32F0xx_HAL_Driver/Src/stm32f0xx_hal_tim_ex.c **** 
 104:Drivers/STM32F0xx_HAL_Driver/Src/stm32f0xx_hal_tim_ex.c **** /* Exported functions --------------------------------------------------------*/
 105:Drivers/STM32F0xx_HAL_Driver/Src/stm32f0xx_hal_tim_ex.c **** /** @defgroup TIMEx_Exported_Functions TIM Extended Exported Functions
 106:Drivers/STM32F0xx_HAL_Driver/Src/stm32f0xx_hal_tim_ex.c ****   * @{
 107:Drivers/STM32F0xx_HAL_Driver/Src/stm32f0xx_hal_tim_ex.c ****   */
 108:Drivers/STM32F0xx_HAL_Driver/Src/stm32f0xx_hal_tim_ex.c **** 
 109:Drivers/STM32F0xx_HAL_Driver/Src/stm32f0xx_hal_tim_ex.c **** /** @defgroup TIMEx_Exported_Functions_Group1 Extended Timer Hall Sensor functions
 110:Drivers/STM32F0xx_HAL_Driver/Src/stm32f0xx_hal_tim_ex.c ****   * @brief    Timer Hall Sensor functions
 111:Drivers/STM32F0xx_HAL_Driver/Src/stm32f0xx_hal_tim_ex.c ****   *
 112:Drivers/STM32F0xx_HAL_Driver/Src/stm32f0xx_hal_tim_ex.c **** @verbatim
 113:Drivers/STM32F0xx_HAL_Driver/Src/stm32f0xx_hal_tim_ex.c ****   ==============================================================================
 114:Drivers/STM32F0xx_HAL_Driver/Src/stm32f0xx_hal_tim_ex.c ****                       ##### Timer Hall Sensor functions #####
 115:Drivers/STM32F0xx_HAL_Driver/Src/stm32f0xx_hal_tim_ex.c ****   ==============================================================================
 116:Drivers/STM32F0xx_HAL_Driver/Src/stm32f0xx_hal_tim_ex.c ****   [..]
 117:Drivers/STM32F0xx_HAL_Driver/Src/stm32f0xx_hal_tim_ex.c ****     This section provides functions allowing to:
 118:Drivers/STM32F0xx_HAL_Driver/Src/stm32f0xx_hal_tim_ex.c ****     (+) Initialize and configure TIM HAL Sensor.
 119:Drivers/STM32F0xx_HAL_Driver/Src/stm32f0xx_hal_tim_ex.c ****     (+) De-initialize TIM HAL Sensor.
 120:Drivers/STM32F0xx_HAL_Driver/Src/stm32f0xx_hal_tim_ex.c ****     (+) Start the Hall Sensor Interface.
 121:Drivers/STM32F0xx_HAL_Driver/Src/stm32f0xx_hal_tim_ex.c ****     (+) Stop the Hall Sensor Interface.
 122:Drivers/STM32F0xx_HAL_Driver/Src/stm32f0xx_hal_tim_ex.c ****     (+) Start the Hall Sensor Interface and enable interrupts.
 123:Drivers/STM32F0xx_HAL_Driver/Src/stm32f0xx_hal_tim_ex.c ****     (+) Stop the Hall Sensor Interface and disable interrupts.
 124:Drivers/STM32F0xx_HAL_Driver/Src/stm32f0xx_hal_tim_ex.c ****     (+) Start the Hall Sensor Interface and enable DMA transfers.
 125:Drivers/STM32F0xx_HAL_Driver/Src/stm32f0xx_hal_tim_ex.c ****     (+) Stop the Hall Sensor Interface and disable DMA transfers.
 126:Drivers/STM32F0xx_HAL_Driver/Src/stm32f0xx_hal_tim_ex.c **** 
 127:Drivers/STM32F0xx_HAL_Driver/Src/stm32f0xx_hal_tim_ex.c **** @endverbatim
 128:Drivers/STM32F0xx_HAL_Driver/Src/stm32f0xx_hal_tim_ex.c ****   * @{
 129:Drivers/STM32F0xx_HAL_Driver/Src/stm32f0xx_hal_tim_ex.c ****   */
 130:Drivers/STM32F0xx_HAL_Driver/Src/stm32f0xx_hal_tim_ex.c **** /**
 131:Drivers/STM32F0xx_HAL_Driver/Src/stm32f0xx_hal_tim_ex.c ****   * @brief  Initializes the TIM Hall Sensor Interface and initialize the associated handle.
 132:Drivers/STM32F0xx_HAL_Driver/Src/stm32f0xx_hal_tim_ex.c ****   * @note   When the timer instance is initialized in Hall Sensor Interface mode,
 133:Drivers/STM32F0xx_HAL_Driver/Src/stm32f0xx_hal_tim_ex.c ****   *         timer channels 1 and channel 2 are reserved and cannot be used for
 134:Drivers/STM32F0xx_HAL_Driver/Src/stm32f0xx_hal_tim_ex.c ****   *         other purpose.
 135:Drivers/STM32F0xx_HAL_Driver/Src/stm32f0xx_hal_tim_ex.c ****   * @param  htim TIM Hall Sensor Interface handle
 136:Drivers/STM32F0xx_HAL_Driver/Src/stm32f0xx_hal_tim_ex.c ****   * @param  sConfig TIM Hall Sensor configuration structure
 137:Drivers/STM32F0xx_HAL_Driver/Src/stm32f0xx_hal_tim_ex.c ****   * @retval HAL status
 138:Drivers/STM32F0xx_HAL_Driver/Src/stm32f0xx_hal_tim_ex.c ****   */
 139:Drivers/STM32F0xx_HAL_Driver/Src/stm32f0xx_hal_tim_ex.c **** HAL_StatusTypeDef HAL_TIMEx_HallSensor_Init(TIM_HandleTypeDef *htim, TIM_HallSensor_InitTypeDef *sC
 140:Drivers/STM32F0xx_HAL_Driver/Src/stm32f0xx_hal_tim_ex.c **** {
  27              		.loc 1 140 1
  28              		.cfi_startproc
  29              		@ args = 0, pretend = 0, frame = 40
  30              		@ frame_needed = 1, uses_anonymous_args = 0
  31 0000 80B5     		push	{r7, lr}
  32              	.LCFI0:
ARM GAS  /var/folders/d0/cymppscj10lcmm48h781wrc80000gn/T//cc0qcKWW.s 			page 4


  33              		.cfi_def_cfa_offset 8
  34              		.cfi_offset 7, -8
  35              		.cfi_offset 14, -4
  36 0002 8AB0     		sub	sp, sp, #40
  37              	.LCFI1:
  38              		.cfi_def_cfa_offset 48
  39 0004 00AF     		add	r7, sp, #0
  40              	.LCFI2:
  41              		.cfi_def_cfa_register 7
  42 0006 7860     		str	r0, [r7, #4]
  43 0008 3960     		str	r1, [r7]
 141:Drivers/STM32F0xx_HAL_Driver/Src/stm32f0xx_hal_tim_ex.c ****   TIM_OC_InitTypeDef OC_Config;
 142:Drivers/STM32F0xx_HAL_Driver/Src/stm32f0xx_hal_tim_ex.c **** 
 143:Drivers/STM32F0xx_HAL_Driver/Src/stm32f0xx_hal_tim_ex.c ****   /* Check the TIM handle allocation */
 144:Drivers/STM32F0xx_HAL_Driver/Src/stm32f0xx_hal_tim_ex.c ****   if (htim == NULL)
  44              		.loc 1 144 6
  45 000a 7B68     		ldr	r3, [r7, #4]
  46 000c 002B     		cmp	r3, #0
  47 000e 01D1     		bne	.L2
 145:Drivers/STM32F0xx_HAL_Driver/Src/stm32f0xx_hal_tim_ex.c ****   {
 146:Drivers/STM32F0xx_HAL_Driver/Src/stm32f0xx_hal_tim_ex.c ****     return HAL_ERROR;
  48              		.loc 1 146 12
  49 0010 0123     		movs	r3, #1
  50 0012 AEE0     		b	.L6
  51              	.L2:
 147:Drivers/STM32F0xx_HAL_Driver/Src/stm32f0xx_hal_tim_ex.c ****   }
 148:Drivers/STM32F0xx_HAL_Driver/Src/stm32f0xx_hal_tim_ex.c **** 
 149:Drivers/STM32F0xx_HAL_Driver/Src/stm32f0xx_hal_tim_ex.c ****   /* Check the parameters */
 150:Drivers/STM32F0xx_HAL_Driver/Src/stm32f0xx_hal_tim_ex.c ****   assert_param(IS_TIM_HALL_SENSOR_INTERFACE_INSTANCE(htim->Instance));
 151:Drivers/STM32F0xx_HAL_Driver/Src/stm32f0xx_hal_tim_ex.c ****   assert_param(IS_TIM_COUNTER_MODE(htim->Init.CounterMode));
 152:Drivers/STM32F0xx_HAL_Driver/Src/stm32f0xx_hal_tim_ex.c ****   assert_param(IS_TIM_CLOCKDIVISION_DIV(htim->Init.ClockDivision));
 153:Drivers/STM32F0xx_HAL_Driver/Src/stm32f0xx_hal_tim_ex.c ****   assert_param(IS_TIM_AUTORELOAD_PRELOAD(htim->Init.AutoReloadPreload));
 154:Drivers/STM32F0xx_HAL_Driver/Src/stm32f0xx_hal_tim_ex.c ****   assert_param(IS_TIM_IC_POLARITY(sConfig->IC1Polarity));
 155:Drivers/STM32F0xx_HAL_Driver/Src/stm32f0xx_hal_tim_ex.c ****   assert_param(IS_TIM_IC_PRESCALER(sConfig->IC1Prescaler));
 156:Drivers/STM32F0xx_HAL_Driver/Src/stm32f0xx_hal_tim_ex.c ****   assert_param(IS_TIM_IC_FILTER(sConfig->IC1Filter));
 157:Drivers/STM32F0xx_HAL_Driver/Src/stm32f0xx_hal_tim_ex.c **** 
 158:Drivers/STM32F0xx_HAL_Driver/Src/stm32f0xx_hal_tim_ex.c ****   if (htim->State == HAL_TIM_STATE_RESET)
  52              		.loc 1 158 11
  53 0014 7B68     		ldr	r3, [r7, #4]
  54 0016 3D22     		movs	r2, #61
  55 0018 9B5C     		ldrb	r3, [r3, r2]
  56 001a DBB2     		uxtb	r3, r3
  57              		.loc 1 158 6
  58 001c 002B     		cmp	r3, #0
  59 001e 13D1     		bne	.L4
 159:Drivers/STM32F0xx_HAL_Driver/Src/stm32f0xx_hal_tim_ex.c ****   {
 160:Drivers/STM32F0xx_HAL_Driver/Src/stm32f0xx_hal_tim_ex.c ****     /* Allocate lock resource and initialize it */
 161:Drivers/STM32F0xx_HAL_Driver/Src/stm32f0xx_hal_tim_ex.c ****     htim->Lock = HAL_UNLOCKED;
  60              		.loc 1 161 16
  61 0020 7B68     		ldr	r3, [r7, #4]
  62 0022 3C22     		movs	r2, #60
  63 0024 0021     		movs	r1, #0
  64 0026 9954     		strb	r1, [r3, r2]
 162:Drivers/STM32F0xx_HAL_Driver/Src/stm32f0xx_hal_tim_ex.c **** 
 163:Drivers/STM32F0xx_HAL_Driver/Src/stm32f0xx_hal_tim_ex.c **** #if (USE_HAL_TIM_REGISTER_CALLBACKS == 1)
 164:Drivers/STM32F0xx_HAL_Driver/Src/stm32f0xx_hal_tim_ex.c ****     /* Reset interrupt callbacks to legacy week callbacks */
 165:Drivers/STM32F0xx_HAL_Driver/Src/stm32f0xx_hal_tim_ex.c ****     TIM_ResetCallback(htim);
ARM GAS  /var/folders/d0/cymppscj10lcmm48h781wrc80000gn/T//cc0qcKWW.s 			page 5


  65              		.loc 1 165 5
  66 0028 7B68     		ldr	r3, [r7, #4]
  67 002a 1800     		movs	r0, r3
  68 002c FFF7FEFF 		bl	TIM_ResetCallback
 166:Drivers/STM32F0xx_HAL_Driver/Src/stm32f0xx_hal_tim_ex.c **** 
 167:Drivers/STM32F0xx_HAL_Driver/Src/stm32f0xx_hal_tim_ex.c ****     if (htim->HallSensor_MspInitCallback == NULL)
  69              		.loc 1 167 13
  70 0030 7B68     		ldr	r3, [r7, #4]
  71 0032 9B6F     		ldr	r3, [r3, #120]
  72              		.loc 1 167 8
  73 0034 002B     		cmp	r3, #0
  74 0036 02D1     		bne	.L5
 168:Drivers/STM32F0xx_HAL_Driver/Src/stm32f0xx_hal_tim_ex.c ****     {
 169:Drivers/STM32F0xx_HAL_Driver/Src/stm32f0xx_hal_tim_ex.c ****       htim->HallSensor_MspInitCallback = HAL_TIMEx_HallSensor_MspInit;
  75              		.loc 1 169 40
  76 0038 7B68     		ldr	r3, [r7, #4]
  77 003a 504A     		ldr	r2, .L7
  78 003c 9A67     		str	r2, [r3, #120]
  79              	.L5:
 170:Drivers/STM32F0xx_HAL_Driver/Src/stm32f0xx_hal_tim_ex.c ****     }
 171:Drivers/STM32F0xx_HAL_Driver/Src/stm32f0xx_hal_tim_ex.c ****     /* Init the low level hardware : GPIO, CLOCK, NVIC */
 172:Drivers/STM32F0xx_HAL_Driver/Src/stm32f0xx_hal_tim_ex.c ****     htim->HallSensor_MspInitCallback(htim);
  80              		.loc 1 172 9
  81 003e 7B68     		ldr	r3, [r7, #4]
  82 0040 9B6F     		ldr	r3, [r3, #120]
  83              		.loc 1 172 5
  84 0042 7A68     		ldr	r2, [r7, #4]
  85 0044 1000     		movs	r0, r2
  86 0046 9847     		blx	r3
  87              	.LVL0:
  88              	.L4:
 173:Drivers/STM32F0xx_HAL_Driver/Src/stm32f0xx_hal_tim_ex.c **** #else
 174:Drivers/STM32F0xx_HAL_Driver/Src/stm32f0xx_hal_tim_ex.c ****     /* Init the low level hardware : GPIO, CLOCK, NVIC and DMA */
 175:Drivers/STM32F0xx_HAL_Driver/Src/stm32f0xx_hal_tim_ex.c ****     HAL_TIMEx_HallSensor_MspInit(htim);
 176:Drivers/STM32F0xx_HAL_Driver/Src/stm32f0xx_hal_tim_ex.c **** #endif /* USE_HAL_TIM_REGISTER_CALLBACKS */
 177:Drivers/STM32F0xx_HAL_Driver/Src/stm32f0xx_hal_tim_ex.c ****   }
 178:Drivers/STM32F0xx_HAL_Driver/Src/stm32f0xx_hal_tim_ex.c **** 
 179:Drivers/STM32F0xx_HAL_Driver/Src/stm32f0xx_hal_tim_ex.c ****   /* Set the TIM state */
 180:Drivers/STM32F0xx_HAL_Driver/Src/stm32f0xx_hal_tim_ex.c ****   htim->State = HAL_TIM_STATE_BUSY;
  89              		.loc 1 180 15
  90 0048 7B68     		ldr	r3, [r7, #4]
  91 004a 3D22     		movs	r2, #61
  92 004c 0221     		movs	r1, #2
  93 004e 9954     		strb	r1, [r3, r2]
 181:Drivers/STM32F0xx_HAL_Driver/Src/stm32f0xx_hal_tim_ex.c **** 
 182:Drivers/STM32F0xx_HAL_Driver/Src/stm32f0xx_hal_tim_ex.c ****   /* Configure the Time base in the Encoder Mode */
 183:Drivers/STM32F0xx_HAL_Driver/Src/stm32f0xx_hal_tim_ex.c ****   TIM_Base_SetConfig(htim->Instance, &htim->Init);
  94              		.loc 1 183 3
  95 0050 7B68     		ldr	r3, [r7, #4]
  96 0052 1A68     		ldr	r2, [r3]
  97 0054 7B68     		ldr	r3, [r7, #4]
  98 0056 0433     		adds	r3, r3, #4
  99 0058 1900     		movs	r1, r3
 100 005a 1000     		movs	r0, r2
 101 005c FFF7FEFF 		bl	TIM_Base_SetConfig
 184:Drivers/STM32F0xx_HAL_Driver/Src/stm32f0xx_hal_tim_ex.c **** 
 185:Drivers/STM32F0xx_HAL_Driver/Src/stm32f0xx_hal_tim_ex.c ****   /* Configure the Channel 1 as Input Channel to interface with the three Outputs of the  Hall sens
ARM GAS  /var/folders/d0/cymppscj10lcmm48h781wrc80000gn/T//cc0qcKWW.s 			page 6


 186:Drivers/STM32F0xx_HAL_Driver/Src/stm32f0xx_hal_tim_ex.c ****   TIM_TI1_SetConfig(htim->Instance, sConfig->IC1Polarity, TIM_ICSELECTION_TRC, sConfig->IC1Filter);
 102              		.loc 1 186 3
 103 0060 7B68     		ldr	r3, [r7, #4]
 104 0062 1868     		ldr	r0, [r3]
 105 0064 3B68     		ldr	r3, [r7]
 106 0066 1968     		ldr	r1, [r3]
 107 0068 3B68     		ldr	r3, [r7]
 108 006a 9B68     		ldr	r3, [r3, #8]
 109 006c 0322     		movs	r2, #3
 110 006e FFF7FEFF 		bl	TIM_TI1_SetConfig
 187:Drivers/STM32F0xx_HAL_Driver/Src/stm32f0xx_hal_tim_ex.c **** 
 188:Drivers/STM32F0xx_HAL_Driver/Src/stm32f0xx_hal_tim_ex.c ****   /* Reset the IC1PSC Bits */
 189:Drivers/STM32F0xx_HAL_Driver/Src/stm32f0xx_hal_tim_ex.c ****   htim->Instance->CCMR1 &= ~TIM_CCMR1_IC1PSC;
 111              		.loc 1 189 7
 112 0072 7B68     		ldr	r3, [r7, #4]
 113 0074 1B68     		ldr	r3, [r3]
 114              		.loc 1 189 25
 115 0076 9A69     		ldr	r2, [r3, #24]
 116              		.loc 1 189 7
 117 0078 7B68     		ldr	r3, [r7, #4]
 118 007a 1B68     		ldr	r3, [r3]
 119              		.loc 1 189 25
 120 007c 0C21     		movs	r1, #12
 121 007e 8A43     		bics	r2, r1
 122 0080 9A61     		str	r2, [r3, #24]
 190:Drivers/STM32F0xx_HAL_Driver/Src/stm32f0xx_hal_tim_ex.c ****   /* Set the IC1PSC value */
 191:Drivers/STM32F0xx_HAL_Driver/Src/stm32f0xx_hal_tim_ex.c ****   htim->Instance->CCMR1 |= sConfig->IC1Prescaler;
 123              		.loc 1 191 7
 124 0082 7B68     		ldr	r3, [r7, #4]
 125 0084 1B68     		ldr	r3, [r3]
 126              		.loc 1 191 25
 127 0086 9969     		ldr	r1, [r3, #24]
 128              		.loc 1 191 35
 129 0088 3B68     		ldr	r3, [r7]
 130 008a 5A68     		ldr	r2, [r3, #4]
 131              		.loc 1 191 7
 132 008c 7B68     		ldr	r3, [r7, #4]
 133 008e 1B68     		ldr	r3, [r3]
 134              		.loc 1 191 25
 135 0090 0A43     		orrs	r2, r1
 136 0092 9A61     		str	r2, [r3, #24]
 192:Drivers/STM32F0xx_HAL_Driver/Src/stm32f0xx_hal_tim_ex.c **** 
 193:Drivers/STM32F0xx_HAL_Driver/Src/stm32f0xx_hal_tim_ex.c ****   /* Enable the Hall sensor interface (XOR function of the three inputs) */
 194:Drivers/STM32F0xx_HAL_Driver/Src/stm32f0xx_hal_tim_ex.c ****   htim->Instance->CR2 |= TIM_CR2_TI1S;
 137              		.loc 1 194 7
 138 0094 7B68     		ldr	r3, [r7, #4]
 139 0096 1B68     		ldr	r3, [r3]
 140              		.loc 1 194 23
 141 0098 5A68     		ldr	r2, [r3, #4]
 142              		.loc 1 194 7
 143 009a 7B68     		ldr	r3, [r7, #4]
 144 009c 1B68     		ldr	r3, [r3]
 145              		.loc 1 194 23
 146 009e 8021     		movs	r1, #128
 147 00a0 0A43     		orrs	r2, r1
 148 00a2 5A60     		str	r2, [r3, #4]
 195:Drivers/STM32F0xx_HAL_Driver/Src/stm32f0xx_hal_tim_ex.c **** 
ARM GAS  /var/folders/d0/cymppscj10lcmm48h781wrc80000gn/T//cc0qcKWW.s 			page 7


 196:Drivers/STM32F0xx_HAL_Driver/Src/stm32f0xx_hal_tim_ex.c ****   /* Select the TIM_TS_TI1F_ED signal as Input trigger for the TIM */
 197:Drivers/STM32F0xx_HAL_Driver/Src/stm32f0xx_hal_tim_ex.c ****   htim->Instance->SMCR &= ~TIM_SMCR_TS;
 149              		.loc 1 197 7
 150 00a4 7B68     		ldr	r3, [r7, #4]
 151 00a6 1B68     		ldr	r3, [r3]
 152              		.loc 1 197 24
 153 00a8 9A68     		ldr	r2, [r3, #8]
 154              		.loc 1 197 7
 155 00aa 7B68     		ldr	r3, [r7, #4]
 156 00ac 1B68     		ldr	r3, [r3]
 157              		.loc 1 197 24
 158 00ae 7021     		movs	r1, #112
 159 00b0 8A43     		bics	r2, r1
 160 00b2 9A60     		str	r2, [r3, #8]
 198:Drivers/STM32F0xx_HAL_Driver/Src/stm32f0xx_hal_tim_ex.c ****   htim->Instance->SMCR |= TIM_TS_TI1F_ED;
 161              		.loc 1 198 7
 162 00b4 7B68     		ldr	r3, [r7, #4]
 163 00b6 1B68     		ldr	r3, [r3]
 164              		.loc 1 198 24
 165 00b8 9A68     		ldr	r2, [r3, #8]
 166              		.loc 1 198 7
 167 00ba 7B68     		ldr	r3, [r7, #4]
 168 00bc 1B68     		ldr	r3, [r3]
 169              		.loc 1 198 24
 170 00be 4021     		movs	r1, #64
 171 00c0 0A43     		orrs	r2, r1
 172 00c2 9A60     		str	r2, [r3, #8]
 199:Drivers/STM32F0xx_HAL_Driver/Src/stm32f0xx_hal_tim_ex.c **** 
 200:Drivers/STM32F0xx_HAL_Driver/Src/stm32f0xx_hal_tim_ex.c ****   /* Use the TIM_TS_TI1F_ED signal to reset the TIM counter each edge detection */
 201:Drivers/STM32F0xx_HAL_Driver/Src/stm32f0xx_hal_tim_ex.c ****   htim->Instance->SMCR &= ~TIM_SMCR_SMS;
 173              		.loc 1 201 7
 174 00c4 7B68     		ldr	r3, [r7, #4]
 175 00c6 1B68     		ldr	r3, [r3]
 176              		.loc 1 201 24
 177 00c8 9A68     		ldr	r2, [r3, #8]
 178              		.loc 1 201 7
 179 00ca 7B68     		ldr	r3, [r7, #4]
 180 00cc 1B68     		ldr	r3, [r3]
 181              		.loc 1 201 24
 182 00ce 0721     		movs	r1, #7
 183 00d0 8A43     		bics	r2, r1
 184 00d2 9A60     		str	r2, [r3, #8]
 202:Drivers/STM32F0xx_HAL_Driver/Src/stm32f0xx_hal_tim_ex.c ****   htim->Instance->SMCR |= TIM_SLAVEMODE_RESET;
 185              		.loc 1 202 7
 186 00d4 7B68     		ldr	r3, [r7, #4]
 187 00d6 1B68     		ldr	r3, [r3]
 188              		.loc 1 202 24
 189 00d8 9A68     		ldr	r2, [r3, #8]
 190              		.loc 1 202 7
 191 00da 7B68     		ldr	r3, [r7, #4]
 192 00dc 1B68     		ldr	r3, [r3]
 193              		.loc 1 202 24
 194 00de 0421     		movs	r1, #4
 195 00e0 0A43     		orrs	r2, r1
 196 00e2 9A60     		str	r2, [r3, #8]
 203:Drivers/STM32F0xx_HAL_Driver/Src/stm32f0xx_hal_tim_ex.c **** 
 204:Drivers/STM32F0xx_HAL_Driver/Src/stm32f0xx_hal_tim_ex.c ****   /* Program channel 2 in PWM 2 mode with the desired Commutation_Delay*/
ARM GAS  /var/folders/d0/cymppscj10lcmm48h781wrc80000gn/T//cc0qcKWW.s 			page 8


 205:Drivers/STM32F0xx_HAL_Driver/Src/stm32f0xx_hal_tim_ex.c ****   OC_Config.OCFastMode = TIM_OCFAST_DISABLE;
 197              		.loc 1 205 24
 198 00e4 0C21     		movs	r1, #12
 199 00e6 7B18     		adds	r3, r7, r1
 200 00e8 0022     		movs	r2, #0
 201 00ea 1A61     		str	r2, [r3, #16]
 206:Drivers/STM32F0xx_HAL_Driver/Src/stm32f0xx_hal_tim_ex.c ****   OC_Config.OCIdleState = TIM_OCIDLESTATE_RESET;
 202              		.loc 1 206 25
 203 00ec 7B18     		adds	r3, r7, r1
 204 00ee 0022     		movs	r2, #0
 205 00f0 5A61     		str	r2, [r3, #20]
 207:Drivers/STM32F0xx_HAL_Driver/Src/stm32f0xx_hal_tim_ex.c ****   OC_Config.OCMode = TIM_OCMODE_PWM2;
 206              		.loc 1 207 20
 207 00f2 7B18     		adds	r3, r7, r1
 208 00f4 7022     		movs	r2, #112
 209 00f6 1A60     		str	r2, [r3]
 208:Drivers/STM32F0xx_HAL_Driver/Src/stm32f0xx_hal_tim_ex.c ****   OC_Config.OCNIdleState = TIM_OCNIDLESTATE_RESET;
 210              		.loc 1 208 26
 211 00f8 7B18     		adds	r3, r7, r1
 212 00fa 0022     		movs	r2, #0
 213 00fc 9A61     		str	r2, [r3, #24]
 209:Drivers/STM32F0xx_HAL_Driver/Src/stm32f0xx_hal_tim_ex.c ****   OC_Config.OCNPolarity = TIM_OCNPOLARITY_HIGH;
 214              		.loc 1 209 25
 215 00fe 7B18     		adds	r3, r7, r1
 216 0100 0022     		movs	r2, #0
 217 0102 DA60     		str	r2, [r3, #12]
 210:Drivers/STM32F0xx_HAL_Driver/Src/stm32f0xx_hal_tim_ex.c ****   OC_Config.OCPolarity = TIM_OCPOLARITY_HIGH;
 218              		.loc 1 210 24
 219 0104 7B18     		adds	r3, r7, r1
 220 0106 0022     		movs	r2, #0
 221 0108 9A60     		str	r2, [r3, #8]
 211:Drivers/STM32F0xx_HAL_Driver/Src/stm32f0xx_hal_tim_ex.c ****   OC_Config.Pulse = sConfig->Commutation_Delay;
 222              		.loc 1 211 28
 223 010a 3B68     		ldr	r3, [r7]
 224 010c DA68     		ldr	r2, [r3, #12]
 225              		.loc 1 211 19
 226 010e 7B18     		adds	r3, r7, r1
 227 0110 5A60     		str	r2, [r3, #4]
 212:Drivers/STM32F0xx_HAL_Driver/Src/stm32f0xx_hal_tim_ex.c **** 
 213:Drivers/STM32F0xx_HAL_Driver/Src/stm32f0xx_hal_tim_ex.c ****   TIM_OC2_SetConfig(htim->Instance, &OC_Config);
 228              		.loc 1 213 3
 229 0112 7B68     		ldr	r3, [r7, #4]
 230 0114 1B68     		ldr	r3, [r3]
 231 0116 7A18     		adds	r2, r7, r1
 232 0118 1100     		movs	r1, r2
 233 011a 1800     		movs	r0, r3
 234 011c FFF7FEFF 		bl	TIM_OC2_SetConfig
 214:Drivers/STM32F0xx_HAL_Driver/Src/stm32f0xx_hal_tim_ex.c **** 
 215:Drivers/STM32F0xx_HAL_Driver/Src/stm32f0xx_hal_tim_ex.c ****   /* Select OC2REF as trigger output on TRGO: write the MMS bits in the TIMx_CR2
 216:Drivers/STM32F0xx_HAL_Driver/Src/stm32f0xx_hal_tim_ex.c ****     register to 101 */
 217:Drivers/STM32F0xx_HAL_Driver/Src/stm32f0xx_hal_tim_ex.c ****   htim->Instance->CR2 &= ~TIM_CR2_MMS;
 235              		.loc 1 217 7
 236 0120 7B68     		ldr	r3, [r7, #4]
 237 0122 1B68     		ldr	r3, [r3]
 238              		.loc 1 217 23
 239 0124 5A68     		ldr	r2, [r3, #4]
 240              		.loc 1 217 7
ARM GAS  /var/folders/d0/cymppscj10lcmm48h781wrc80000gn/T//cc0qcKWW.s 			page 9


 241 0126 7B68     		ldr	r3, [r7, #4]
 242 0128 1B68     		ldr	r3, [r3]
 243              		.loc 1 217 23
 244 012a 7021     		movs	r1, #112
 245 012c 8A43     		bics	r2, r1
 246 012e 5A60     		str	r2, [r3, #4]
 218:Drivers/STM32F0xx_HAL_Driver/Src/stm32f0xx_hal_tim_ex.c ****   htim->Instance->CR2 |= TIM_TRGO_OC2REF;
 247              		.loc 1 218 7
 248 0130 7B68     		ldr	r3, [r7, #4]
 249 0132 1B68     		ldr	r3, [r3]
 250              		.loc 1 218 23
 251 0134 5A68     		ldr	r2, [r3, #4]
 252              		.loc 1 218 7
 253 0136 7B68     		ldr	r3, [r7, #4]
 254 0138 1B68     		ldr	r3, [r3]
 255              		.loc 1 218 23
 256 013a 5021     		movs	r1, #80
 257 013c 0A43     		orrs	r2, r1
 258 013e 5A60     		str	r2, [r3, #4]
 219:Drivers/STM32F0xx_HAL_Driver/Src/stm32f0xx_hal_tim_ex.c **** 
 220:Drivers/STM32F0xx_HAL_Driver/Src/stm32f0xx_hal_tim_ex.c ****   /* Initialize the DMA burst operation state */
 221:Drivers/STM32F0xx_HAL_Driver/Src/stm32f0xx_hal_tim_ex.c ****   htim->DMABurstState = HAL_DMA_BURST_STATE_READY;
 259              		.loc 1 221 23
 260 0140 7B68     		ldr	r3, [r7, #4]
 261 0142 4622     		movs	r2, #70
 262 0144 0121     		movs	r1, #1
 263 0146 9954     		strb	r1, [r3, r2]
 222:Drivers/STM32F0xx_HAL_Driver/Src/stm32f0xx_hal_tim_ex.c **** 
 223:Drivers/STM32F0xx_HAL_Driver/Src/stm32f0xx_hal_tim_ex.c ****   /* Initialize the TIM channels state */
 224:Drivers/STM32F0xx_HAL_Driver/Src/stm32f0xx_hal_tim_ex.c ****   TIM_CHANNEL_STATE_SET(htim, TIM_CHANNEL_1, HAL_TIM_CHANNEL_STATE_READY);
 264              		.loc 1 224 3
 265 0148 7B68     		ldr	r3, [r7, #4]
 266 014a 3E22     		movs	r2, #62
 267 014c 0121     		movs	r1, #1
 268 014e 9954     		strb	r1, [r3, r2]
 225:Drivers/STM32F0xx_HAL_Driver/Src/stm32f0xx_hal_tim_ex.c ****   TIM_CHANNEL_STATE_SET(htim, TIM_CHANNEL_2, HAL_TIM_CHANNEL_STATE_READY);
 269              		.loc 1 225 3
 270 0150 7B68     		ldr	r3, [r7, #4]
 271 0152 3F22     		movs	r2, #63
 272 0154 0121     		movs	r1, #1
 273 0156 9954     		strb	r1, [r3, r2]
 226:Drivers/STM32F0xx_HAL_Driver/Src/stm32f0xx_hal_tim_ex.c ****   TIM_CHANNEL_N_STATE_SET(htim, TIM_CHANNEL_1, HAL_TIM_CHANNEL_STATE_READY);
 274              		.loc 1 226 3
 275 0158 7B68     		ldr	r3, [r7, #4]
 276 015a 4222     		movs	r2, #66
 277 015c 0121     		movs	r1, #1
 278 015e 9954     		strb	r1, [r3, r2]
 227:Drivers/STM32F0xx_HAL_Driver/Src/stm32f0xx_hal_tim_ex.c ****   TIM_CHANNEL_N_STATE_SET(htim, TIM_CHANNEL_2, HAL_TIM_CHANNEL_STATE_READY);
 279              		.loc 1 227 3
 280 0160 7B68     		ldr	r3, [r7, #4]
 281 0162 4322     		movs	r2, #67
 282 0164 0121     		movs	r1, #1
 283 0166 9954     		strb	r1, [r3, r2]
 228:Drivers/STM32F0xx_HAL_Driver/Src/stm32f0xx_hal_tim_ex.c **** 
 229:Drivers/STM32F0xx_HAL_Driver/Src/stm32f0xx_hal_tim_ex.c ****   /* Initialize the TIM state*/
 230:Drivers/STM32F0xx_HAL_Driver/Src/stm32f0xx_hal_tim_ex.c ****   htim->State = HAL_TIM_STATE_READY;
 284              		.loc 1 230 15
ARM GAS  /var/folders/d0/cymppscj10lcmm48h781wrc80000gn/T//cc0qcKWW.s 			page 10


 285 0168 7B68     		ldr	r3, [r7, #4]
 286 016a 3D22     		movs	r2, #61
 287 016c 0121     		movs	r1, #1
 288 016e 9954     		strb	r1, [r3, r2]
 231:Drivers/STM32F0xx_HAL_Driver/Src/stm32f0xx_hal_tim_ex.c **** 
 232:Drivers/STM32F0xx_HAL_Driver/Src/stm32f0xx_hal_tim_ex.c ****   return HAL_OK;
 289              		.loc 1 232 10
 290 0170 0023     		movs	r3, #0
 291              	.L6:
 233:Drivers/STM32F0xx_HAL_Driver/Src/stm32f0xx_hal_tim_ex.c **** }
 292              		.loc 1 233 1 discriminator 1
 293 0172 1800     		movs	r0, r3
 294 0174 BD46     		mov	sp, r7
 295 0176 0AB0     		add	sp, sp, #40
 296              		@ sp needed
 297 0178 80BD     		pop	{r7, pc}
 298              	.L8:
 299 017a C046     		.align	2
 300              	.L7:
 301 017c 00000000 		.word	HAL_TIMEx_HallSensor_MspInit
 302              		.cfi_endproc
 303              	.LFE40:
 305              		.section	.text.HAL_TIMEx_HallSensor_DeInit,"ax",%progbits
 306              		.align	1
 307              		.global	HAL_TIMEx_HallSensor_DeInit
 308              		.syntax unified
 309              		.code	16
 310              		.thumb_func
 312              	HAL_TIMEx_HallSensor_DeInit:
 313              	.LFB41:
 234:Drivers/STM32F0xx_HAL_Driver/Src/stm32f0xx_hal_tim_ex.c **** 
 235:Drivers/STM32F0xx_HAL_Driver/Src/stm32f0xx_hal_tim_ex.c **** /**
 236:Drivers/STM32F0xx_HAL_Driver/Src/stm32f0xx_hal_tim_ex.c ****   * @brief  DeInitializes the TIM Hall Sensor interface
 237:Drivers/STM32F0xx_HAL_Driver/Src/stm32f0xx_hal_tim_ex.c ****   * @param  htim TIM Hall Sensor Interface handle
 238:Drivers/STM32F0xx_HAL_Driver/Src/stm32f0xx_hal_tim_ex.c ****   * @retval HAL status
 239:Drivers/STM32F0xx_HAL_Driver/Src/stm32f0xx_hal_tim_ex.c ****   */
 240:Drivers/STM32F0xx_HAL_Driver/Src/stm32f0xx_hal_tim_ex.c **** HAL_StatusTypeDef HAL_TIMEx_HallSensor_DeInit(TIM_HandleTypeDef *htim)
 241:Drivers/STM32F0xx_HAL_Driver/Src/stm32f0xx_hal_tim_ex.c **** {
 314              		.loc 1 241 1
 315              		.cfi_startproc
 316              		@ args = 0, pretend = 0, frame = 8
 317              		@ frame_needed = 1, uses_anonymous_args = 0
 318 0000 80B5     		push	{r7, lr}
 319              	.LCFI3:
 320              		.cfi_def_cfa_offset 8
 321              		.cfi_offset 7, -8
 322              		.cfi_offset 14, -4
 323 0002 82B0     		sub	sp, sp, #8
 324              	.LCFI4:
 325              		.cfi_def_cfa_offset 16
 326 0004 00AF     		add	r7, sp, #0
 327              	.LCFI5:
 328              		.cfi_def_cfa_register 7
 329 0006 7860     		str	r0, [r7, #4]
 242:Drivers/STM32F0xx_HAL_Driver/Src/stm32f0xx_hal_tim_ex.c ****   /* Check the parameters */
 243:Drivers/STM32F0xx_HAL_Driver/Src/stm32f0xx_hal_tim_ex.c ****   assert_param(IS_TIM_INSTANCE(htim->Instance));
 244:Drivers/STM32F0xx_HAL_Driver/Src/stm32f0xx_hal_tim_ex.c **** 
ARM GAS  /var/folders/d0/cymppscj10lcmm48h781wrc80000gn/T//cc0qcKWW.s 			page 11


 245:Drivers/STM32F0xx_HAL_Driver/Src/stm32f0xx_hal_tim_ex.c ****   htim->State = HAL_TIM_STATE_BUSY;
 330              		.loc 1 245 15
 331 0008 7B68     		ldr	r3, [r7, #4]
 332 000a 3D22     		movs	r2, #61
 333 000c 0221     		movs	r1, #2
 334 000e 9954     		strb	r1, [r3, r2]
 246:Drivers/STM32F0xx_HAL_Driver/Src/stm32f0xx_hal_tim_ex.c **** 
 247:Drivers/STM32F0xx_HAL_Driver/Src/stm32f0xx_hal_tim_ex.c ****   /* Disable the TIM Peripheral Clock */
 248:Drivers/STM32F0xx_HAL_Driver/Src/stm32f0xx_hal_tim_ex.c ****   __HAL_TIM_DISABLE(htim);
 335              		.loc 1 248 3
 336 0010 7B68     		ldr	r3, [r7, #4]
 337 0012 1B68     		ldr	r3, [r3]
 338 0014 1B6A     		ldr	r3, [r3, #32]
 339 0016 1F4A     		ldr	r2, .L13
 340 0018 1340     		ands	r3, r2
 341 001a 0DD1     		bne	.L10
 342              		.loc 1 248 3 is_stmt 0 discriminator 1
 343 001c 7B68     		ldr	r3, [r7, #4]
 344 001e 1B68     		ldr	r3, [r3]
 345 0020 1B6A     		ldr	r3, [r3, #32]
 346 0022 1D4A     		ldr	r2, .L13+4
 347 0024 1340     		ands	r3, r2
 348 0026 07D1     		bne	.L10
 349              		.loc 1 248 3 discriminator 2
 350 0028 7B68     		ldr	r3, [r7, #4]
 351 002a 1B68     		ldr	r3, [r3]
 352 002c 1A68     		ldr	r2, [r3]
 353 002e 7B68     		ldr	r3, [r7, #4]
 354 0030 1B68     		ldr	r3, [r3]
 355 0032 0121     		movs	r1, #1
 356 0034 8A43     		bics	r2, r1
 357 0036 1A60     		str	r2, [r3]
 358              	.L10:
 249:Drivers/STM32F0xx_HAL_Driver/Src/stm32f0xx_hal_tim_ex.c **** 
 250:Drivers/STM32F0xx_HAL_Driver/Src/stm32f0xx_hal_tim_ex.c **** #if (USE_HAL_TIM_REGISTER_CALLBACKS == 1)
 251:Drivers/STM32F0xx_HAL_Driver/Src/stm32f0xx_hal_tim_ex.c ****   if (htim->HallSensor_MspDeInitCallback == NULL)
 359              		.loc 1 251 11 is_stmt 1
 360 0038 7B68     		ldr	r3, [r7, #4]
 361 003a DB6F     		ldr	r3, [r3, #124]
 362              		.loc 1 251 6
 363 003c 002B     		cmp	r3, #0
 364 003e 02D1     		bne	.L11
 252:Drivers/STM32F0xx_HAL_Driver/Src/stm32f0xx_hal_tim_ex.c ****   {
 253:Drivers/STM32F0xx_HAL_Driver/Src/stm32f0xx_hal_tim_ex.c ****     htim->HallSensor_MspDeInitCallback = HAL_TIMEx_HallSensor_MspDeInit;
 365              		.loc 1 253 40
 366 0040 7B68     		ldr	r3, [r7, #4]
 367 0042 164A     		ldr	r2, .L13+8
 368 0044 DA67     		str	r2, [r3, #124]
 369              	.L11:
 254:Drivers/STM32F0xx_HAL_Driver/Src/stm32f0xx_hal_tim_ex.c ****   }
 255:Drivers/STM32F0xx_HAL_Driver/Src/stm32f0xx_hal_tim_ex.c ****   /* DeInit the low level hardware */
 256:Drivers/STM32F0xx_HAL_Driver/Src/stm32f0xx_hal_tim_ex.c ****   htim->HallSensor_MspDeInitCallback(htim);
 370              		.loc 1 256 7
 371 0046 7B68     		ldr	r3, [r7, #4]
 372 0048 DB6F     		ldr	r3, [r3, #124]
 373              		.loc 1 256 3
 374 004a 7A68     		ldr	r2, [r7, #4]
ARM GAS  /var/folders/d0/cymppscj10lcmm48h781wrc80000gn/T//cc0qcKWW.s 			page 12


 375 004c 1000     		movs	r0, r2
 376 004e 9847     		blx	r3
 377              	.LVL1:
 257:Drivers/STM32F0xx_HAL_Driver/Src/stm32f0xx_hal_tim_ex.c **** #else
 258:Drivers/STM32F0xx_HAL_Driver/Src/stm32f0xx_hal_tim_ex.c ****   /* DeInit the low level hardware: GPIO, CLOCK, NVIC */
 259:Drivers/STM32F0xx_HAL_Driver/Src/stm32f0xx_hal_tim_ex.c ****   HAL_TIMEx_HallSensor_MspDeInit(htim);
 260:Drivers/STM32F0xx_HAL_Driver/Src/stm32f0xx_hal_tim_ex.c **** #endif /* USE_HAL_TIM_REGISTER_CALLBACKS */
 261:Drivers/STM32F0xx_HAL_Driver/Src/stm32f0xx_hal_tim_ex.c **** 
 262:Drivers/STM32F0xx_HAL_Driver/Src/stm32f0xx_hal_tim_ex.c ****   /* Change the DMA burst operation state */
 263:Drivers/STM32F0xx_HAL_Driver/Src/stm32f0xx_hal_tim_ex.c ****   htim->DMABurstState = HAL_DMA_BURST_STATE_RESET;
 378              		.loc 1 263 23
 379 0050 7B68     		ldr	r3, [r7, #4]
 380 0052 4622     		movs	r2, #70
 381 0054 0021     		movs	r1, #0
 382 0056 9954     		strb	r1, [r3, r2]
 264:Drivers/STM32F0xx_HAL_Driver/Src/stm32f0xx_hal_tim_ex.c **** 
 265:Drivers/STM32F0xx_HAL_Driver/Src/stm32f0xx_hal_tim_ex.c ****   /* Change the TIM channels state */
 266:Drivers/STM32F0xx_HAL_Driver/Src/stm32f0xx_hal_tim_ex.c ****   TIM_CHANNEL_STATE_SET(htim, TIM_CHANNEL_1, HAL_TIM_CHANNEL_STATE_RESET);
 383              		.loc 1 266 3
 384 0058 7B68     		ldr	r3, [r7, #4]
 385 005a 3E22     		movs	r2, #62
 386 005c 0021     		movs	r1, #0
 387 005e 9954     		strb	r1, [r3, r2]
 267:Drivers/STM32F0xx_HAL_Driver/Src/stm32f0xx_hal_tim_ex.c ****   TIM_CHANNEL_STATE_SET(htim, TIM_CHANNEL_2, HAL_TIM_CHANNEL_STATE_RESET);
 388              		.loc 1 267 3
 389 0060 7B68     		ldr	r3, [r7, #4]
 390 0062 3F22     		movs	r2, #63
 391 0064 0021     		movs	r1, #0
 392 0066 9954     		strb	r1, [r3, r2]
 268:Drivers/STM32F0xx_HAL_Driver/Src/stm32f0xx_hal_tim_ex.c ****   TIM_CHANNEL_N_STATE_SET(htim, TIM_CHANNEL_1, HAL_TIM_CHANNEL_STATE_RESET);
 393              		.loc 1 268 3
 394 0068 7B68     		ldr	r3, [r7, #4]
 395 006a 4222     		movs	r2, #66
 396 006c 0021     		movs	r1, #0
 397 006e 9954     		strb	r1, [r3, r2]
 269:Drivers/STM32F0xx_HAL_Driver/Src/stm32f0xx_hal_tim_ex.c ****   TIM_CHANNEL_N_STATE_SET(htim, TIM_CHANNEL_2, HAL_TIM_CHANNEL_STATE_RESET);
 398              		.loc 1 269 3
 399 0070 7B68     		ldr	r3, [r7, #4]
 400 0072 4322     		movs	r2, #67
 401 0074 0021     		movs	r1, #0
 402 0076 9954     		strb	r1, [r3, r2]
 270:Drivers/STM32F0xx_HAL_Driver/Src/stm32f0xx_hal_tim_ex.c **** 
 271:Drivers/STM32F0xx_HAL_Driver/Src/stm32f0xx_hal_tim_ex.c ****   /* Change TIM state */
 272:Drivers/STM32F0xx_HAL_Driver/Src/stm32f0xx_hal_tim_ex.c ****   htim->State = HAL_TIM_STATE_RESET;
 403              		.loc 1 272 15
 404 0078 7B68     		ldr	r3, [r7, #4]
 405 007a 3D22     		movs	r2, #61
 406 007c 0021     		movs	r1, #0
 407 007e 9954     		strb	r1, [r3, r2]
 273:Drivers/STM32F0xx_HAL_Driver/Src/stm32f0xx_hal_tim_ex.c **** 
 274:Drivers/STM32F0xx_HAL_Driver/Src/stm32f0xx_hal_tim_ex.c ****   /* Release Lock */
 275:Drivers/STM32F0xx_HAL_Driver/Src/stm32f0xx_hal_tim_ex.c ****   __HAL_UNLOCK(htim);
 408              		.loc 1 275 3
 409 0080 7B68     		ldr	r3, [r7, #4]
 410 0082 3C22     		movs	r2, #60
 411 0084 0021     		movs	r1, #0
 412 0086 9954     		strb	r1, [r3, r2]
ARM GAS  /var/folders/d0/cymppscj10lcmm48h781wrc80000gn/T//cc0qcKWW.s 			page 13


 276:Drivers/STM32F0xx_HAL_Driver/Src/stm32f0xx_hal_tim_ex.c **** 
 277:Drivers/STM32F0xx_HAL_Driver/Src/stm32f0xx_hal_tim_ex.c ****   return HAL_OK;
 413              		.loc 1 277 10
 414 0088 0023     		movs	r3, #0
 278:Drivers/STM32F0xx_HAL_Driver/Src/stm32f0xx_hal_tim_ex.c **** }
 415              		.loc 1 278 1
 416 008a 1800     		movs	r0, r3
 417 008c BD46     		mov	sp, r7
 418 008e 02B0     		add	sp, sp, #8
 419              		@ sp needed
 420 0090 80BD     		pop	{r7, pc}
 421              	.L14:
 422 0092 C046     		.align	2
 423              	.L13:
 424 0094 11110000 		.word	4369
 425 0098 44040000 		.word	1092
 426 009c 00000000 		.word	HAL_TIMEx_HallSensor_MspDeInit
 427              		.cfi_endproc
 428              	.LFE41:
 430              		.section	.text.HAL_TIMEx_HallSensor_MspInit,"ax",%progbits
 431              		.align	1
 432              		.weak	HAL_TIMEx_HallSensor_MspInit
 433              		.syntax unified
 434              		.code	16
 435              		.thumb_func
 437              	HAL_TIMEx_HallSensor_MspInit:
 438              	.LFB42:
 279:Drivers/STM32F0xx_HAL_Driver/Src/stm32f0xx_hal_tim_ex.c **** 
 280:Drivers/STM32F0xx_HAL_Driver/Src/stm32f0xx_hal_tim_ex.c **** /**
 281:Drivers/STM32F0xx_HAL_Driver/Src/stm32f0xx_hal_tim_ex.c ****   * @brief  Initializes the TIM Hall Sensor MSP.
 282:Drivers/STM32F0xx_HAL_Driver/Src/stm32f0xx_hal_tim_ex.c ****   * @param  htim TIM Hall Sensor Interface handle
 283:Drivers/STM32F0xx_HAL_Driver/Src/stm32f0xx_hal_tim_ex.c ****   * @retval None
 284:Drivers/STM32F0xx_HAL_Driver/Src/stm32f0xx_hal_tim_ex.c ****   */
 285:Drivers/STM32F0xx_HAL_Driver/Src/stm32f0xx_hal_tim_ex.c **** __weak void HAL_TIMEx_HallSensor_MspInit(TIM_HandleTypeDef *htim)
 286:Drivers/STM32F0xx_HAL_Driver/Src/stm32f0xx_hal_tim_ex.c **** {
 439              		.loc 1 286 1
 440              		.cfi_startproc
 441              		@ args = 0, pretend = 0, frame = 8
 442              		@ frame_needed = 1, uses_anonymous_args = 0
 443 0000 80B5     		push	{r7, lr}
 444              	.LCFI6:
 445              		.cfi_def_cfa_offset 8
 446              		.cfi_offset 7, -8
 447              		.cfi_offset 14, -4
 448 0002 82B0     		sub	sp, sp, #8
 449              	.LCFI7:
 450              		.cfi_def_cfa_offset 16
 451 0004 00AF     		add	r7, sp, #0
 452              	.LCFI8:
 453              		.cfi_def_cfa_register 7
 454 0006 7860     		str	r0, [r7, #4]
 287:Drivers/STM32F0xx_HAL_Driver/Src/stm32f0xx_hal_tim_ex.c ****   /* Prevent unused argument(s) compilation warning */
 288:Drivers/STM32F0xx_HAL_Driver/Src/stm32f0xx_hal_tim_ex.c ****   UNUSED(htim);
 289:Drivers/STM32F0xx_HAL_Driver/Src/stm32f0xx_hal_tim_ex.c **** 
 290:Drivers/STM32F0xx_HAL_Driver/Src/stm32f0xx_hal_tim_ex.c ****   /* NOTE : This function should not be modified, when the callback is needed,
 291:Drivers/STM32F0xx_HAL_Driver/Src/stm32f0xx_hal_tim_ex.c ****             the HAL_TIMEx_HallSensor_MspInit could be implemented in the user file
 292:Drivers/STM32F0xx_HAL_Driver/Src/stm32f0xx_hal_tim_ex.c ****    */
ARM GAS  /var/folders/d0/cymppscj10lcmm48h781wrc80000gn/T//cc0qcKWW.s 			page 14


 293:Drivers/STM32F0xx_HAL_Driver/Src/stm32f0xx_hal_tim_ex.c **** }
 455              		.loc 1 293 1
 456 0008 C046     		nop
 457 000a BD46     		mov	sp, r7
 458 000c 02B0     		add	sp, sp, #8
 459              		@ sp needed
 460 000e 80BD     		pop	{r7, pc}
 461              		.cfi_endproc
 462              	.LFE42:
 464              		.section	.text.HAL_TIMEx_HallSensor_MspDeInit,"ax",%progbits
 465              		.align	1
 466              		.weak	HAL_TIMEx_HallSensor_MspDeInit
 467              		.syntax unified
 468              		.code	16
 469              		.thumb_func
 471              	HAL_TIMEx_HallSensor_MspDeInit:
 472              	.LFB43:
 294:Drivers/STM32F0xx_HAL_Driver/Src/stm32f0xx_hal_tim_ex.c **** 
 295:Drivers/STM32F0xx_HAL_Driver/Src/stm32f0xx_hal_tim_ex.c **** /**
 296:Drivers/STM32F0xx_HAL_Driver/Src/stm32f0xx_hal_tim_ex.c ****   * @brief  DeInitializes TIM Hall Sensor MSP.
 297:Drivers/STM32F0xx_HAL_Driver/Src/stm32f0xx_hal_tim_ex.c ****   * @param  htim TIM Hall Sensor Interface handle
 298:Drivers/STM32F0xx_HAL_Driver/Src/stm32f0xx_hal_tim_ex.c ****   * @retval None
 299:Drivers/STM32F0xx_HAL_Driver/Src/stm32f0xx_hal_tim_ex.c ****   */
 300:Drivers/STM32F0xx_HAL_Driver/Src/stm32f0xx_hal_tim_ex.c **** __weak void HAL_TIMEx_HallSensor_MspDeInit(TIM_HandleTypeDef *htim)
 301:Drivers/STM32F0xx_HAL_Driver/Src/stm32f0xx_hal_tim_ex.c **** {
 473              		.loc 1 301 1
 474              		.cfi_startproc
 475              		@ args = 0, pretend = 0, frame = 8
 476              		@ frame_needed = 1, uses_anonymous_args = 0
 477 0000 80B5     		push	{r7, lr}
 478              	.LCFI9:
 479              		.cfi_def_cfa_offset 8
 480              		.cfi_offset 7, -8
 481              		.cfi_offset 14, -4
 482 0002 82B0     		sub	sp, sp, #8
 483              	.LCFI10:
 484              		.cfi_def_cfa_offset 16
 485 0004 00AF     		add	r7, sp, #0
 486              	.LCFI11:
 487              		.cfi_def_cfa_register 7
 488 0006 7860     		str	r0, [r7, #4]
 302:Drivers/STM32F0xx_HAL_Driver/Src/stm32f0xx_hal_tim_ex.c ****   /* Prevent unused argument(s) compilation warning */
 303:Drivers/STM32F0xx_HAL_Driver/Src/stm32f0xx_hal_tim_ex.c ****   UNUSED(htim);
 304:Drivers/STM32F0xx_HAL_Driver/Src/stm32f0xx_hal_tim_ex.c **** 
 305:Drivers/STM32F0xx_HAL_Driver/Src/stm32f0xx_hal_tim_ex.c ****   /* NOTE : This function should not be modified, when the callback is needed,
 306:Drivers/STM32F0xx_HAL_Driver/Src/stm32f0xx_hal_tim_ex.c ****             the HAL_TIMEx_HallSensor_MspDeInit could be implemented in the user file
 307:Drivers/STM32F0xx_HAL_Driver/Src/stm32f0xx_hal_tim_ex.c ****    */
 308:Drivers/STM32F0xx_HAL_Driver/Src/stm32f0xx_hal_tim_ex.c **** }
 489              		.loc 1 308 1
 490 0008 C046     		nop
 491 000a BD46     		mov	sp, r7
 492 000c 02B0     		add	sp, sp, #8
 493              		@ sp needed
 494 000e 80BD     		pop	{r7, pc}
 495              		.cfi_endproc
 496              	.LFE43:
 498              		.section	.text.HAL_TIMEx_HallSensor_Start,"ax",%progbits
ARM GAS  /var/folders/d0/cymppscj10lcmm48h781wrc80000gn/T//cc0qcKWW.s 			page 15


 499              		.align	1
 500              		.global	HAL_TIMEx_HallSensor_Start
 501              		.syntax unified
 502              		.code	16
 503              		.thumb_func
 505              	HAL_TIMEx_HallSensor_Start:
 506              	.LFB44:
 309:Drivers/STM32F0xx_HAL_Driver/Src/stm32f0xx_hal_tim_ex.c **** 
 310:Drivers/STM32F0xx_HAL_Driver/Src/stm32f0xx_hal_tim_ex.c **** /**
 311:Drivers/STM32F0xx_HAL_Driver/Src/stm32f0xx_hal_tim_ex.c ****   * @brief  Starts the TIM Hall Sensor Interface.
 312:Drivers/STM32F0xx_HAL_Driver/Src/stm32f0xx_hal_tim_ex.c ****   * @param  htim TIM Hall Sensor Interface handle
 313:Drivers/STM32F0xx_HAL_Driver/Src/stm32f0xx_hal_tim_ex.c ****   * @retval HAL status
 314:Drivers/STM32F0xx_HAL_Driver/Src/stm32f0xx_hal_tim_ex.c ****   */
 315:Drivers/STM32F0xx_HAL_Driver/Src/stm32f0xx_hal_tim_ex.c **** HAL_StatusTypeDef HAL_TIMEx_HallSensor_Start(TIM_HandleTypeDef *htim)
 316:Drivers/STM32F0xx_HAL_Driver/Src/stm32f0xx_hal_tim_ex.c **** {
 507              		.loc 1 316 1
 508              		.cfi_startproc
 509              		@ args = 0, pretend = 0, frame = 16
 510              		@ frame_needed = 1, uses_anonymous_args = 0
 511 0000 F0B5     		push	{r4, r5, r6, r7, lr}
 512              	.LCFI12:
 513              		.cfi_def_cfa_offset 20
 514              		.cfi_offset 4, -20
 515              		.cfi_offset 5, -16
 516              		.cfi_offset 6, -12
 517              		.cfi_offset 7, -8
 518              		.cfi_offset 14, -4
 519 0002 85B0     		sub	sp, sp, #20
 520              	.LCFI13:
 521              		.cfi_def_cfa_offset 40
 522 0004 00AF     		add	r7, sp, #0
 523              	.LCFI14:
 524              		.cfi_def_cfa_register 7
 525 0006 7860     		str	r0, [r7, #4]
 317:Drivers/STM32F0xx_HAL_Driver/Src/stm32f0xx_hal_tim_ex.c ****   uint32_t tmpsmcr;
 318:Drivers/STM32F0xx_HAL_Driver/Src/stm32f0xx_hal_tim_ex.c ****   HAL_TIM_ChannelStateTypeDef channel_1_state = TIM_CHANNEL_STATE_GET(htim, TIM_CHANNEL_1);
 526              		.loc 1 318 31
 527 0008 0F20     		movs	r0, #15
 528 000a 3B18     		adds	r3, r7, r0
 529 000c 7A68     		ldr	r2, [r7, #4]
 530 000e 3E21     		movs	r1, #62
 531 0010 525C     		ldrb	r2, [r2, r1]
 532 0012 1A70     		strb	r2, [r3]
 319:Drivers/STM32F0xx_HAL_Driver/Src/stm32f0xx_hal_tim_ex.c ****   HAL_TIM_ChannelStateTypeDef channel_2_state = TIM_CHANNEL_STATE_GET(htim, TIM_CHANNEL_2);
 533              		.loc 1 319 31
 534 0014 0E24     		movs	r4, #14
 535 0016 3B19     		adds	r3, r7, r4
 536 0018 7A68     		ldr	r2, [r7, #4]
 537 001a 3F21     		movs	r1, #63
 538 001c 525C     		ldrb	r2, [r2, r1]
 539 001e 1A70     		strb	r2, [r3]
 320:Drivers/STM32F0xx_HAL_Driver/Src/stm32f0xx_hal_tim_ex.c ****   HAL_TIM_ChannelStateTypeDef complementary_channel_1_state = TIM_CHANNEL_N_STATE_GET(htim, TIM_CHA
 540              		.loc 1 320 31
 541 0020 0D25     		movs	r5, #13
 542 0022 7B19     		adds	r3, r7, r5
 543 0024 7A68     		ldr	r2, [r7, #4]
 544 0026 4221     		movs	r1, #66
ARM GAS  /var/folders/d0/cymppscj10lcmm48h781wrc80000gn/T//cc0qcKWW.s 			page 16


 545 0028 525C     		ldrb	r2, [r2, r1]
 546 002a 1A70     		strb	r2, [r3]
 321:Drivers/STM32F0xx_HAL_Driver/Src/stm32f0xx_hal_tim_ex.c ****   HAL_TIM_ChannelStateTypeDef complementary_channel_2_state = TIM_CHANNEL_N_STATE_GET(htim, TIM_CHA
 547              		.loc 1 321 31
 548 002c 0C26     		movs	r6, #12
 549 002e BB19     		adds	r3, r7, r6
 550 0030 7A68     		ldr	r2, [r7, #4]
 551 0032 4321     		movs	r1, #67
 552 0034 525C     		ldrb	r2, [r2, r1]
 553 0036 1A70     		strb	r2, [r3]
 322:Drivers/STM32F0xx_HAL_Driver/Src/stm32f0xx_hal_tim_ex.c **** 
 323:Drivers/STM32F0xx_HAL_Driver/Src/stm32f0xx_hal_tim_ex.c ****   /* Check the parameters */
 324:Drivers/STM32F0xx_HAL_Driver/Src/stm32f0xx_hal_tim_ex.c ****   assert_param(IS_TIM_HALL_SENSOR_INTERFACE_INSTANCE(htim->Instance));
 325:Drivers/STM32F0xx_HAL_Driver/Src/stm32f0xx_hal_tim_ex.c **** 
 326:Drivers/STM32F0xx_HAL_Driver/Src/stm32f0xx_hal_tim_ex.c ****   /* Check the TIM channels state */
 327:Drivers/STM32F0xx_HAL_Driver/Src/stm32f0xx_hal_tim_ex.c ****   if ((channel_1_state != HAL_TIM_CHANNEL_STATE_READY)
 554              		.loc 1 327 6
 555 0038 3B18     		adds	r3, r7, r0
 556 003a 1B78     		ldrb	r3, [r3]
 557 003c 012B     		cmp	r3, #1
 558 003e 0BD1     		bne	.L18
 328:Drivers/STM32F0xx_HAL_Driver/Src/stm32f0xx_hal_tim_ex.c ****       || (channel_2_state != HAL_TIM_CHANNEL_STATE_READY)
 559              		.loc 1 328 7
 560 0040 3B19     		adds	r3, r7, r4
 561 0042 1B78     		ldrb	r3, [r3]
 562 0044 012B     		cmp	r3, #1
 563 0046 07D1     		bne	.L18
 329:Drivers/STM32F0xx_HAL_Driver/Src/stm32f0xx_hal_tim_ex.c ****       || (complementary_channel_1_state != HAL_TIM_CHANNEL_STATE_READY)
 564              		.loc 1 329 7
 565 0048 7B19     		adds	r3, r7, r5
 566 004a 1B78     		ldrb	r3, [r3]
 567 004c 012B     		cmp	r3, #1
 568 004e 03D1     		bne	.L18
 330:Drivers/STM32F0xx_HAL_Driver/Src/stm32f0xx_hal_tim_ex.c ****       || (complementary_channel_2_state != HAL_TIM_CHANNEL_STATE_READY))
 569              		.loc 1 330 7
 570 0050 BB19     		adds	r3, r7, r6
 571 0052 1B78     		ldrb	r3, [r3]
 572 0054 012B     		cmp	r3, #1
 573 0056 01D0     		beq	.L19
 574              	.L18:
 331:Drivers/STM32F0xx_HAL_Driver/Src/stm32f0xx_hal_tim_ex.c ****   {
 332:Drivers/STM32F0xx_HAL_Driver/Src/stm32f0xx_hal_tim_ex.c ****     return HAL_ERROR;
 575              		.loc 1 332 12
 576 0058 0123     		movs	r3, #1
 577 005a 40E0     		b	.L20
 578              	.L19:
 333:Drivers/STM32F0xx_HAL_Driver/Src/stm32f0xx_hal_tim_ex.c ****   }
 334:Drivers/STM32F0xx_HAL_Driver/Src/stm32f0xx_hal_tim_ex.c **** 
 335:Drivers/STM32F0xx_HAL_Driver/Src/stm32f0xx_hal_tim_ex.c ****   /* Set the TIM channels state */
 336:Drivers/STM32F0xx_HAL_Driver/Src/stm32f0xx_hal_tim_ex.c ****   TIM_CHANNEL_STATE_SET(htim, TIM_CHANNEL_1, HAL_TIM_CHANNEL_STATE_BUSY);
 579              		.loc 1 336 3
 580 005c 7B68     		ldr	r3, [r7, #4]
 581 005e 3E22     		movs	r2, #62
 582 0060 0221     		movs	r1, #2
 583 0062 9954     		strb	r1, [r3, r2]
 337:Drivers/STM32F0xx_HAL_Driver/Src/stm32f0xx_hal_tim_ex.c ****   TIM_CHANNEL_STATE_SET(htim, TIM_CHANNEL_2, HAL_TIM_CHANNEL_STATE_BUSY);
 584              		.loc 1 337 3
ARM GAS  /var/folders/d0/cymppscj10lcmm48h781wrc80000gn/T//cc0qcKWW.s 			page 17


 585 0064 7B68     		ldr	r3, [r7, #4]
 586 0066 3F22     		movs	r2, #63
 587 0068 0221     		movs	r1, #2
 588 006a 9954     		strb	r1, [r3, r2]
 338:Drivers/STM32F0xx_HAL_Driver/Src/stm32f0xx_hal_tim_ex.c ****   TIM_CHANNEL_N_STATE_SET(htim, TIM_CHANNEL_1, HAL_TIM_CHANNEL_STATE_BUSY);
 589              		.loc 1 338 3
 590 006c 7B68     		ldr	r3, [r7, #4]
 591 006e 4222     		movs	r2, #66
 592 0070 0221     		movs	r1, #2
 593 0072 9954     		strb	r1, [r3, r2]
 339:Drivers/STM32F0xx_HAL_Driver/Src/stm32f0xx_hal_tim_ex.c ****   TIM_CHANNEL_N_STATE_SET(htim, TIM_CHANNEL_2, HAL_TIM_CHANNEL_STATE_BUSY);
 594              		.loc 1 339 3
 595 0074 7B68     		ldr	r3, [r7, #4]
 596 0076 4322     		movs	r2, #67
 597 0078 0221     		movs	r1, #2
 598 007a 9954     		strb	r1, [r3, r2]
 340:Drivers/STM32F0xx_HAL_Driver/Src/stm32f0xx_hal_tim_ex.c **** 
 341:Drivers/STM32F0xx_HAL_Driver/Src/stm32f0xx_hal_tim_ex.c ****   /* Enable the Input Capture channel 1
 342:Drivers/STM32F0xx_HAL_Driver/Src/stm32f0xx_hal_tim_ex.c ****   (in the Hall Sensor Interface the three possible channels that can be used are TIM_CHANNEL_1,
 343:Drivers/STM32F0xx_HAL_Driver/Src/stm32f0xx_hal_tim_ex.c ****   TIM_CHANNEL_2 and TIM_CHANNEL_3) */
 344:Drivers/STM32F0xx_HAL_Driver/Src/stm32f0xx_hal_tim_ex.c ****   TIM_CCxChannelCmd(htim->Instance, TIM_CHANNEL_1, TIM_CCx_ENABLE);
 599              		.loc 1 344 3
 600 007c 7B68     		ldr	r3, [r7, #4]
 601 007e 1B68     		ldr	r3, [r3]
 602 0080 0122     		movs	r2, #1
 603 0082 0021     		movs	r1, #0
 604 0084 1800     		movs	r0, r3
 605 0086 FFF7FEFF 		bl	TIM_CCxChannelCmd
 345:Drivers/STM32F0xx_HAL_Driver/Src/stm32f0xx_hal_tim_ex.c **** 
 346:Drivers/STM32F0xx_HAL_Driver/Src/stm32f0xx_hal_tim_ex.c ****   /* Enable the Peripheral, except in trigger mode where enable is automatically done with trigger 
 347:Drivers/STM32F0xx_HAL_Driver/Src/stm32f0xx_hal_tim_ex.c ****   if (IS_TIM_SLAVE_INSTANCE(htim->Instance))
 606              		.loc 1 347 7
 607 008a 7B68     		ldr	r3, [r7, #4]
 608 008c 1B68     		ldr	r3, [r3]
 609              		.loc 1 347 6
 610 008e 164A     		ldr	r2, .L25
 611 0090 9342     		cmp	r3, r2
 612 0092 09D0     		beq	.L21
 613              		.loc 1 347 7 discriminator 1
 614 0094 7B68     		ldr	r3, [r7, #4]
 615 0096 1B68     		ldr	r3, [r3]
 616 0098 144A     		ldr	r2, .L25+4
 617 009a 9342     		cmp	r3, r2
 618 009c 04D0     		beq	.L21
 619              		.loc 1 347 7 is_stmt 0 discriminator 2
 620 009e 7B68     		ldr	r3, [r7, #4]
 621 00a0 1B68     		ldr	r3, [r3]
 622 00a2 134A     		ldr	r2, .L25+8
 623 00a4 9342     		cmp	r3, r2
 624 00a6 11D1     		bne	.L22
 625              	.L21:
 348:Drivers/STM32F0xx_HAL_Driver/Src/stm32f0xx_hal_tim_ex.c ****   {
 349:Drivers/STM32F0xx_HAL_Driver/Src/stm32f0xx_hal_tim_ex.c ****     tmpsmcr = htim->Instance->SMCR & TIM_SMCR_SMS;
 626              		.loc 1 349 19 is_stmt 1
 627 00a8 7B68     		ldr	r3, [r7, #4]
 628 00aa 1B68     		ldr	r3, [r3]
 629              		.loc 1 349 29
ARM GAS  /var/folders/d0/cymppscj10lcmm48h781wrc80000gn/T//cc0qcKWW.s 			page 18


 630 00ac 9B68     		ldr	r3, [r3, #8]
 631              		.loc 1 349 13
 632 00ae 0722     		movs	r2, #7
 633 00b0 1340     		ands	r3, r2
 634 00b2 BB60     		str	r3, [r7, #8]
 350:Drivers/STM32F0xx_HAL_Driver/Src/stm32f0xx_hal_tim_ex.c ****     if (!IS_TIM_SLAVEMODE_TRIGGER_ENABLED(tmpsmcr))
 635              		.loc 1 350 8
 636 00b4 BB68     		ldr	r3, [r7, #8]
 637 00b6 062B     		cmp	r3, #6
 638 00b8 10D0     		beq	.L24
 351:Drivers/STM32F0xx_HAL_Driver/Src/stm32f0xx_hal_tim_ex.c ****     {
 352:Drivers/STM32F0xx_HAL_Driver/Src/stm32f0xx_hal_tim_ex.c ****       __HAL_TIM_ENABLE(htim);
 639              		.loc 1 352 7
 640 00ba 7B68     		ldr	r3, [r7, #4]
 641 00bc 1B68     		ldr	r3, [r3]
 642 00be 1A68     		ldr	r2, [r3]
 643 00c0 7B68     		ldr	r3, [r7, #4]
 644 00c2 1B68     		ldr	r3, [r3]
 645 00c4 0121     		movs	r1, #1
 646 00c6 0A43     		orrs	r2, r1
 647 00c8 1A60     		str	r2, [r3]
 350:Drivers/STM32F0xx_HAL_Driver/Src/stm32f0xx_hal_tim_ex.c ****     if (!IS_TIM_SLAVEMODE_TRIGGER_ENABLED(tmpsmcr))
 648              		.loc 1 350 8
 649 00ca 07E0     		b	.L24
 650              	.L22:
 353:Drivers/STM32F0xx_HAL_Driver/Src/stm32f0xx_hal_tim_ex.c ****     }
 354:Drivers/STM32F0xx_HAL_Driver/Src/stm32f0xx_hal_tim_ex.c ****   }
 355:Drivers/STM32F0xx_HAL_Driver/Src/stm32f0xx_hal_tim_ex.c ****   else
 356:Drivers/STM32F0xx_HAL_Driver/Src/stm32f0xx_hal_tim_ex.c ****   {
 357:Drivers/STM32F0xx_HAL_Driver/Src/stm32f0xx_hal_tim_ex.c ****     __HAL_TIM_ENABLE(htim);
 651              		.loc 1 357 5
 652 00cc 7B68     		ldr	r3, [r7, #4]
 653 00ce 1B68     		ldr	r3, [r3]
 654 00d0 1A68     		ldr	r2, [r3]
 655 00d2 7B68     		ldr	r3, [r7, #4]
 656 00d4 1B68     		ldr	r3, [r3]
 657 00d6 0121     		movs	r1, #1
 658 00d8 0A43     		orrs	r2, r1
 659 00da 1A60     		str	r2, [r3]
 660              	.L24:
 358:Drivers/STM32F0xx_HAL_Driver/Src/stm32f0xx_hal_tim_ex.c ****   }
 359:Drivers/STM32F0xx_HAL_Driver/Src/stm32f0xx_hal_tim_ex.c **** 
 360:Drivers/STM32F0xx_HAL_Driver/Src/stm32f0xx_hal_tim_ex.c ****   /* Return function status */
 361:Drivers/STM32F0xx_HAL_Driver/Src/stm32f0xx_hal_tim_ex.c ****   return HAL_OK;
 661              		.loc 1 361 10
 662 00dc 0023     		movs	r3, #0
 663              	.L20:
 362:Drivers/STM32F0xx_HAL_Driver/Src/stm32f0xx_hal_tim_ex.c **** }
 664              		.loc 1 362 1
 665 00de 1800     		movs	r0, r3
 666 00e0 BD46     		mov	sp, r7
 667 00e2 05B0     		add	sp, sp, #20
 668              		@ sp needed
 669 00e4 F0BD     		pop	{r4, r5, r6, r7, pc}
 670              	.L26:
 671 00e6 C046     		.align	2
 672              	.L25:
ARM GAS  /var/folders/d0/cymppscj10lcmm48h781wrc80000gn/T//cc0qcKWW.s 			page 19


 673 00e8 002C0140 		.word	1073818624
 674 00ec 00040040 		.word	1073742848
 675 00f0 00400140 		.word	1073823744
 676              		.cfi_endproc
 677              	.LFE44:
 679              		.section	.text.HAL_TIMEx_HallSensor_Stop,"ax",%progbits
 680              		.align	1
 681              		.global	HAL_TIMEx_HallSensor_Stop
 682              		.syntax unified
 683              		.code	16
 684              		.thumb_func
 686              	HAL_TIMEx_HallSensor_Stop:
 687              	.LFB45:
 363:Drivers/STM32F0xx_HAL_Driver/Src/stm32f0xx_hal_tim_ex.c **** 
 364:Drivers/STM32F0xx_HAL_Driver/Src/stm32f0xx_hal_tim_ex.c **** /**
 365:Drivers/STM32F0xx_HAL_Driver/Src/stm32f0xx_hal_tim_ex.c ****   * @brief  Stops the TIM Hall sensor Interface.
 366:Drivers/STM32F0xx_HAL_Driver/Src/stm32f0xx_hal_tim_ex.c ****   * @param  htim TIM Hall Sensor Interface handle
 367:Drivers/STM32F0xx_HAL_Driver/Src/stm32f0xx_hal_tim_ex.c ****   * @retval HAL status
 368:Drivers/STM32F0xx_HAL_Driver/Src/stm32f0xx_hal_tim_ex.c ****   */
 369:Drivers/STM32F0xx_HAL_Driver/Src/stm32f0xx_hal_tim_ex.c **** HAL_StatusTypeDef HAL_TIMEx_HallSensor_Stop(TIM_HandleTypeDef *htim)
 370:Drivers/STM32F0xx_HAL_Driver/Src/stm32f0xx_hal_tim_ex.c **** {
 688              		.loc 1 370 1
 689              		.cfi_startproc
 690              		@ args = 0, pretend = 0, frame = 8
 691              		@ frame_needed = 1, uses_anonymous_args = 0
 692 0000 80B5     		push	{r7, lr}
 693              	.LCFI15:
 694              		.cfi_def_cfa_offset 8
 695              		.cfi_offset 7, -8
 696              		.cfi_offset 14, -4
 697 0002 82B0     		sub	sp, sp, #8
 698              	.LCFI16:
 699              		.cfi_def_cfa_offset 16
 700 0004 00AF     		add	r7, sp, #0
 701              	.LCFI17:
 702              		.cfi_def_cfa_register 7
 703 0006 7860     		str	r0, [r7, #4]
 371:Drivers/STM32F0xx_HAL_Driver/Src/stm32f0xx_hal_tim_ex.c ****   /* Check the parameters */
 372:Drivers/STM32F0xx_HAL_Driver/Src/stm32f0xx_hal_tim_ex.c ****   assert_param(IS_TIM_HALL_SENSOR_INTERFACE_INSTANCE(htim->Instance));
 373:Drivers/STM32F0xx_HAL_Driver/Src/stm32f0xx_hal_tim_ex.c **** 
 374:Drivers/STM32F0xx_HAL_Driver/Src/stm32f0xx_hal_tim_ex.c ****   /* Disable the Input Capture channels 1, 2 and 3
 375:Drivers/STM32F0xx_HAL_Driver/Src/stm32f0xx_hal_tim_ex.c ****   (in the Hall Sensor Interface the three possible channels that can be used are TIM_CHANNEL_1,
 376:Drivers/STM32F0xx_HAL_Driver/Src/stm32f0xx_hal_tim_ex.c ****   TIM_CHANNEL_2 and TIM_CHANNEL_3) */
 377:Drivers/STM32F0xx_HAL_Driver/Src/stm32f0xx_hal_tim_ex.c ****   TIM_CCxChannelCmd(htim->Instance, TIM_CHANNEL_1, TIM_CCx_DISABLE);
 704              		.loc 1 377 3
 705 0008 7B68     		ldr	r3, [r7, #4]
 706 000a 1B68     		ldr	r3, [r3]
 707 000c 0022     		movs	r2, #0
 708 000e 0021     		movs	r1, #0
 709 0010 1800     		movs	r0, r3
 710 0012 FFF7FEFF 		bl	TIM_CCxChannelCmd
 378:Drivers/STM32F0xx_HAL_Driver/Src/stm32f0xx_hal_tim_ex.c **** 
 379:Drivers/STM32F0xx_HAL_Driver/Src/stm32f0xx_hal_tim_ex.c ****   /* Disable the Peripheral */
 380:Drivers/STM32F0xx_HAL_Driver/Src/stm32f0xx_hal_tim_ex.c ****   __HAL_TIM_DISABLE(htim);
 711              		.loc 1 380 3
 712 0016 7B68     		ldr	r3, [r7, #4]
 713 0018 1B68     		ldr	r3, [r3]
ARM GAS  /var/folders/d0/cymppscj10lcmm48h781wrc80000gn/T//cc0qcKWW.s 			page 20


 714 001a 1B6A     		ldr	r3, [r3, #32]
 715 001c 124A     		ldr	r2, .L30
 716 001e 1340     		ands	r3, r2
 717 0020 0DD1     		bne	.L28
 718              		.loc 1 380 3 is_stmt 0 discriminator 1
 719 0022 7B68     		ldr	r3, [r7, #4]
 720 0024 1B68     		ldr	r3, [r3]
 721 0026 1B6A     		ldr	r3, [r3, #32]
 722 0028 104A     		ldr	r2, .L30+4
 723 002a 1340     		ands	r3, r2
 724 002c 07D1     		bne	.L28
 725              		.loc 1 380 3 discriminator 2
 726 002e 7B68     		ldr	r3, [r7, #4]
 727 0030 1B68     		ldr	r3, [r3]
 728 0032 1A68     		ldr	r2, [r3]
 729 0034 7B68     		ldr	r3, [r7, #4]
 730 0036 1B68     		ldr	r3, [r3]
 731 0038 0121     		movs	r1, #1
 732 003a 8A43     		bics	r2, r1
 733 003c 1A60     		str	r2, [r3]
 734              	.L28:
 381:Drivers/STM32F0xx_HAL_Driver/Src/stm32f0xx_hal_tim_ex.c **** 
 382:Drivers/STM32F0xx_HAL_Driver/Src/stm32f0xx_hal_tim_ex.c ****   /* Set the TIM channels state */
 383:Drivers/STM32F0xx_HAL_Driver/Src/stm32f0xx_hal_tim_ex.c ****   TIM_CHANNEL_STATE_SET(htim, TIM_CHANNEL_1, HAL_TIM_CHANNEL_STATE_READY);
 735              		.loc 1 383 3 is_stmt 1
 736 003e 7B68     		ldr	r3, [r7, #4]
 737 0040 3E22     		movs	r2, #62
 738 0042 0121     		movs	r1, #1
 739 0044 9954     		strb	r1, [r3, r2]
 384:Drivers/STM32F0xx_HAL_Driver/Src/stm32f0xx_hal_tim_ex.c ****   TIM_CHANNEL_STATE_SET(htim, TIM_CHANNEL_2, HAL_TIM_CHANNEL_STATE_READY);
 740              		.loc 1 384 3
 741 0046 7B68     		ldr	r3, [r7, #4]
 742 0048 3F22     		movs	r2, #63
 743 004a 0121     		movs	r1, #1
 744 004c 9954     		strb	r1, [r3, r2]
 385:Drivers/STM32F0xx_HAL_Driver/Src/stm32f0xx_hal_tim_ex.c ****   TIM_CHANNEL_N_STATE_SET(htim, TIM_CHANNEL_1, HAL_TIM_CHANNEL_STATE_READY);
 745              		.loc 1 385 3
 746 004e 7B68     		ldr	r3, [r7, #4]
 747 0050 4222     		movs	r2, #66
 748 0052 0121     		movs	r1, #1
 749 0054 9954     		strb	r1, [r3, r2]
 386:Drivers/STM32F0xx_HAL_Driver/Src/stm32f0xx_hal_tim_ex.c ****   TIM_CHANNEL_N_STATE_SET(htim, TIM_CHANNEL_2, HAL_TIM_CHANNEL_STATE_READY);
 750              		.loc 1 386 3
 751 0056 7B68     		ldr	r3, [r7, #4]
 752 0058 4322     		movs	r2, #67
 753 005a 0121     		movs	r1, #1
 754 005c 9954     		strb	r1, [r3, r2]
 387:Drivers/STM32F0xx_HAL_Driver/Src/stm32f0xx_hal_tim_ex.c **** 
 388:Drivers/STM32F0xx_HAL_Driver/Src/stm32f0xx_hal_tim_ex.c ****   /* Return function status */
 389:Drivers/STM32F0xx_HAL_Driver/Src/stm32f0xx_hal_tim_ex.c ****   return HAL_OK;
 755              		.loc 1 389 10
 756 005e 0023     		movs	r3, #0
 390:Drivers/STM32F0xx_HAL_Driver/Src/stm32f0xx_hal_tim_ex.c **** }
 757              		.loc 1 390 1
 758 0060 1800     		movs	r0, r3
 759 0062 BD46     		mov	sp, r7
 760 0064 02B0     		add	sp, sp, #8
ARM GAS  /var/folders/d0/cymppscj10lcmm48h781wrc80000gn/T//cc0qcKWW.s 			page 21


 761              		@ sp needed
 762 0066 80BD     		pop	{r7, pc}
 763              	.L31:
 764              		.align	2
 765              	.L30:
 766 0068 11110000 		.word	4369
 767 006c 44040000 		.word	1092
 768              		.cfi_endproc
 769              	.LFE45:
 771              		.section	.text.HAL_TIMEx_HallSensor_Start_IT,"ax",%progbits
 772              		.align	1
 773              		.global	HAL_TIMEx_HallSensor_Start_IT
 774              		.syntax unified
 775              		.code	16
 776              		.thumb_func
 778              	HAL_TIMEx_HallSensor_Start_IT:
 779              	.LFB46:
 391:Drivers/STM32F0xx_HAL_Driver/Src/stm32f0xx_hal_tim_ex.c **** 
 392:Drivers/STM32F0xx_HAL_Driver/Src/stm32f0xx_hal_tim_ex.c **** /**
 393:Drivers/STM32F0xx_HAL_Driver/Src/stm32f0xx_hal_tim_ex.c ****   * @brief  Starts the TIM Hall Sensor Interface in interrupt mode.
 394:Drivers/STM32F0xx_HAL_Driver/Src/stm32f0xx_hal_tim_ex.c ****   * @param  htim TIM Hall Sensor Interface handle
 395:Drivers/STM32F0xx_HAL_Driver/Src/stm32f0xx_hal_tim_ex.c ****   * @retval HAL status
 396:Drivers/STM32F0xx_HAL_Driver/Src/stm32f0xx_hal_tim_ex.c ****   */
 397:Drivers/STM32F0xx_HAL_Driver/Src/stm32f0xx_hal_tim_ex.c **** HAL_StatusTypeDef HAL_TIMEx_HallSensor_Start_IT(TIM_HandleTypeDef *htim)
 398:Drivers/STM32F0xx_HAL_Driver/Src/stm32f0xx_hal_tim_ex.c **** {
 780              		.loc 1 398 1
 781              		.cfi_startproc
 782              		@ args = 0, pretend = 0, frame = 16
 783              		@ frame_needed = 1, uses_anonymous_args = 0
 784 0000 F0B5     		push	{r4, r5, r6, r7, lr}
 785              	.LCFI18:
 786              		.cfi_def_cfa_offset 20
 787              		.cfi_offset 4, -20
 788              		.cfi_offset 5, -16
 789              		.cfi_offset 6, -12
 790              		.cfi_offset 7, -8
 791              		.cfi_offset 14, -4
 792 0002 85B0     		sub	sp, sp, #20
 793              	.LCFI19:
 794              		.cfi_def_cfa_offset 40
 795 0004 00AF     		add	r7, sp, #0
 796              	.LCFI20:
 797              		.cfi_def_cfa_register 7
 798 0006 7860     		str	r0, [r7, #4]
 399:Drivers/STM32F0xx_HAL_Driver/Src/stm32f0xx_hal_tim_ex.c ****   uint32_t tmpsmcr;
 400:Drivers/STM32F0xx_HAL_Driver/Src/stm32f0xx_hal_tim_ex.c ****   HAL_TIM_ChannelStateTypeDef channel_1_state = TIM_CHANNEL_STATE_GET(htim, TIM_CHANNEL_1);
 799              		.loc 1 400 31
 800 0008 0F20     		movs	r0, #15
 801 000a 3B18     		adds	r3, r7, r0
 802 000c 7A68     		ldr	r2, [r7, #4]
 803 000e 3E21     		movs	r1, #62
 804 0010 525C     		ldrb	r2, [r2, r1]
 805 0012 1A70     		strb	r2, [r3]
 401:Drivers/STM32F0xx_HAL_Driver/Src/stm32f0xx_hal_tim_ex.c ****   HAL_TIM_ChannelStateTypeDef channel_2_state = TIM_CHANNEL_STATE_GET(htim, TIM_CHANNEL_2);
 806              		.loc 1 401 31
 807 0014 0E24     		movs	r4, #14
 808 0016 3B19     		adds	r3, r7, r4
ARM GAS  /var/folders/d0/cymppscj10lcmm48h781wrc80000gn/T//cc0qcKWW.s 			page 22


 809 0018 7A68     		ldr	r2, [r7, #4]
 810 001a 3F21     		movs	r1, #63
 811 001c 525C     		ldrb	r2, [r2, r1]
 812 001e 1A70     		strb	r2, [r3]
 402:Drivers/STM32F0xx_HAL_Driver/Src/stm32f0xx_hal_tim_ex.c ****   HAL_TIM_ChannelStateTypeDef complementary_channel_1_state = TIM_CHANNEL_N_STATE_GET(htim, TIM_CHA
 813              		.loc 1 402 31
 814 0020 0D25     		movs	r5, #13
 815 0022 7B19     		adds	r3, r7, r5
 816 0024 7A68     		ldr	r2, [r7, #4]
 817 0026 4221     		movs	r1, #66
 818 0028 525C     		ldrb	r2, [r2, r1]
 819 002a 1A70     		strb	r2, [r3]
 403:Drivers/STM32F0xx_HAL_Driver/Src/stm32f0xx_hal_tim_ex.c ****   HAL_TIM_ChannelStateTypeDef complementary_channel_2_state = TIM_CHANNEL_N_STATE_GET(htim, TIM_CHA
 820              		.loc 1 403 31
 821 002c 0C26     		movs	r6, #12
 822 002e BB19     		adds	r3, r7, r6
 823 0030 7A68     		ldr	r2, [r7, #4]
 824 0032 4321     		movs	r1, #67
 825 0034 525C     		ldrb	r2, [r2, r1]
 826 0036 1A70     		strb	r2, [r3]
 404:Drivers/STM32F0xx_HAL_Driver/Src/stm32f0xx_hal_tim_ex.c **** 
 405:Drivers/STM32F0xx_HAL_Driver/Src/stm32f0xx_hal_tim_ex.c ****   /* Check the parameters */
 406:Drivers/STM32F0xx_HAL_Driver/Src/stm32f0xx_hal_tim_ex.c ****   assert_param(IS_TIM_HALL_SENSOR_INTERFACE_INSTANCE(htim->Instance));
 407:Drivers/STM32F0xx_HAL_Driver/Src/stm32f0xx_hal_tim_ex.c **** 
 408:Drivers/STM32F0xx_HAL_Driver/Src/stm32f0xx_hal_tim_ex.c ****   /* Check the TIM channels state */
 409:Drivers/STM32F0xx_HAL_Driver/Src/stm32f0xx_hal_tim_ex.c ****   if ((channel_1_state != HAL_TIM_CHANNEL_STATE_READY)
 827              		.loc 1 409 6
 828 0038 3B18     		adds	r3, r7, r0
 829 003a 1B78     		ldrb	r3, [r3]
 830 003c 012B     		cmp	r3, #1
 831 003e 0BD1     		bne	.L33
 410:Drivers/STM32F0xx_HAL_Driver/Src/stm32f0xx_hal_tim_ex.c ****       || (channel_2_state != HAL_TIM_CHANNEL_STATE_READY)
 832              		.loc 1 410 7
 833 0040 3B19     		adds	r3, r7, r4
 834 0042 1B78     		ldrb	r3, [r3]
 835 0044 012B     		cmp	r3, #1
 836 0046 07D1     		bne	.L33
 411:Drivers/STM32F0xx_HAL_Driver/Src/stm32f0xx_hal_tim_ex.c ****       || (complementary_channel_1_state != HAL_TIM_CHANNEL_STATE_READY)
 837              		.loc 1 411 7
 838 0048 7B19     		adds	r3, r7, r5
 839 004a 1B78     		ldrb	r3, [r3]
 840 004c 012B     		cmp	r3, #1
 841 004e 03D1     		bne	.L33
 412:Drivers/STM32F0xx_HAL_Driver/Src/stm32f0xx_hal_tim_ex.c ****       || (complementary_channel_2_state != HAL_TIM_CHANNEL_STATE_READY))
 842              		.loc 1 412 7
 843 0050 BB19     		adds	r3, r7, r6
 844 0052 1B78     		ldrb	r3, [r3]
 845 0054 012B     		cmp	r3, #1
 846 0056 01D0     		beq	.L34
 847              	.L33:
 413:Drivers/STM32F0xx_HAL_Driver/Src/stm32f0xx_hal_tim_ex.c ****   {
 414:Drivers/STM32F0xx_HAL_Driver/Src/stm32f0xx_hal_tim_ex.c ****     return HAL_ERROR;
 848              		.loc 1 414 12
 849 0058 0123     		movs	r3, #1
 850 005a 48E0     		b	.L35
 851              	.L34:
 415:Drivers/STM32F0xx_HAL_Driver/Src/stm32f0xx_hal_tim_ex.c ****   }
ARM GAS  /var/folders/d0/cymppscj10lcmm48h781wrc80000gn/T//cc0qcKWW.s 			page 23


 416:Drivers/STM32F0xx_HAL_Driver/Src/stm32f0xx_hal_tim_ex.c **** 
 417:Drivers/STM32F0xx_HAL_Driver/Src/stm32f0xx_hal_tim_ex.c ****   /* Set the TIM channels state */
 418:Drivers/STM32F0xx_HAL_Driver/Src/stm32f0xx_hal_tim_ex.c ****   TIM_CHANNEL_STATE_SET(htim, TIM_CHANNEL_1, HAL_TIM_CHANNEL_STATE_BUSY);
 852              		.loc 1 418 3
 853 005c 7B68     		ldr	r3, [r7, #4]
 854 005e 3E22     		movs	r2, #62
 855 0060 0221     		movs	r1, #2
 856 0062 9954     		strb	r1, [r3, r2]
 419:Drivers/STM32F0xx_HAL_Driver/Src/stm32f0xx_hal_tim_ex.c ****   TIM_CHANNEL_STATE_SET(htim, TIM_CHANNEL_2, HAL_TIM_CHANNEL_STATE_BUSY);
 857              		.loc 1 419 3
 858 0064 7B68     		ldr	r3, [r7, #4]
 859 0066 3F22     		movs	r2, #63
 860 0068 0221     		movs	r1, #2
 861 006a 9954     		strb	r1, [r3, r2]
 420:Drivers/STM32F0xx_HAL_Driver/Src/stm32f0xx_hal_tim_ex.c ****   TIM_CHANNEL_N_STATE_SET(htim, TIM_CHANNEL_1, HAL_TIM_CHANNEL_STATE_BUSY);
 862              		.loc 1 420 3
 863 006c 7B68     		ldr	r3, [r7, #4]
 864 006e 4222     		movs	r2, #66
 865 0070 0221     		movs	r1, #2
 866 0072 9954     		strb	r1, [r3, r2]
 421:Drivers/STM32F0xx_HAL_Driver/Src/stm32f0xx_hal_tim_ex.c ****   TIM_CHANNEL_N_STATE_SET(htim, TIM_CHANNEL_2, HAL_TIM_CHANNEL_STATE_BUSY);
 867              		.loc 1 421 3
 868 0074 7B68     		ldr	r3, [r7, #4]
 869 0076 4322     		movs	r2, #67
 870 0078 0221     		movs	r1, #2
 871 007a 9954     		strb	r1, [r3, r2]
 422:Drivers/STM32F0xx_HAL_Driver/Src/stm32f0xx_hal_tim_ex.c **** 
 423:Drivers/STM32F0xx_HAL_Driver/Src/stm32f0xx_hal_tim_ex.c ****   /* Enable the capture compare Interrupts 1 event */
 424:Drivers/STM32F0xx_HAL_Driver/Src/stm32f0xx_hal_tim_ex.c ****   __HAL_TIM_ENABLE_IT(htim, TIM_IT_CC1);
 872              		.loc 1 424 3
 873 007c 7B68     		ldr	r3, [r7, #4]
 874 007e 1B68     		ldr	r3, [r3]
 875 0080 DA68     		ldr	r2, [r3, #12]
 876 0082 7B68     		ldr	r3, [r7, #4]
 877 0084 1B68     		ldr	r3, [r3]
 878 0086 0221     		movs	r1, #2
 879 0088 0A43     		orrs	r2, r1
 880 008a DA60     		str	r2, [r3, #12]
 425:Drivers/STM32F0xx_HAL_Driver/Src/stm32f0xx_hal_tim_ex.c **** 
 426:Drivers/STM32F0xx_HAL_Driver/Src/stm32f0xx_hal_tim_ex.c ****   /* Enable the Input Capture channel 1
 427:Drivers/STM32F0xx_HAL_Driver/Src/stm32f0xx_hal_tim_ex.c ****   (in the Hall Sensor Interface the three possible channels that can be used are TIM_CHANNEL_1,
 428:Drivers/STM32F0xx_HAL_Driver/Src/stm32f0xx_hal_tim_ex.c ****   TIM_CHANNEL_2 and TIM_CHANNEL_3) */
 429:Drivers/STM32F0xx_HAL_Driver/Src/stm32f0xx_hal_tim_ex.c ****   TIM_CCxChannelCmd(htim->Instance, TIM_CHANNEL_1, TIM_CCx_ENABLE);
 881              		.loc 1 429 3
 882 008c 7B68     		ldr	r3, [r7, #4]
 883 008e 1B68     		ldr	r3, [r3]
 884 0090 0122     		movs	r2, #1
 885 0092 0021     		movs	r1, #0
 886 0094 1800     		movs	r0, r3
 887 0096 FFF7FEFF 		bl	TIM_CCxChannelCmd
 430:Drivers/STM32F0xx_HAL_Driver/Src/stm32f0xx_hal_tim_ex.c **** 
 431:Drivers/STM32F0xx_HAL_Driver/Src/stm32f0xx_hal_tim_ex.c ****   /* Enable the Peripheral, except in trigger mode where enable is automatically done with trigger 
 432:Drivers/STM32F0xx_HAL_Driver/Src/stm32f0xx_hal_tim_ex.c ****   if (IS_TIM_SLAVE_INSTANCE(htim->Instance))
 888              		.loc 1 432 7
 889 009a 7B68     		ldr	r3, [r7, #4]
 890 009c 1B68     		ldr	r3, [r3]
 891              		.loc 1 432 6
ARM GAS  /var/folders/d0/cymppscj10lcmm48h781wrc80000gn/T//cc0qcKWW.s 			page 24


 892 009e 164A     		ldr	r2, .L40
 893 00a0 9342     		cmp	r3, r2
 894 00a2 09D0     		beq	.L36
 895              		.loc 1 432 7 discriminator 1
 896 00a4 7B68     		ldr	r3, [r7, #4]
 897 00a6 1B68     		ldr	r3, [r3]
 898 00a8 144A     		ldr	r2, .L40+4
 899 00aa 9342     		cmp	r3, r2
 900 00ac 04D0     		beq	.L36
 901              		.loc 1 432 7 is_stmt 0 discriminator 2
 902 00ae 7B68     		ldr	r3, [r7, #4]
 903 00b0 1B68     		ldr	r3, [r3]
 904 00b2 134A     		ldr	r2, .L40+8
 905 00b4 9342     		cmp	r3, r2
 906 00b6 11D1     		bne	.L37
 907              	.L36:
 433:Drivers/STM32F0xx_HAL_Driver/Src/stm32f0xx_hal_tim_ex.c ****   {
 434:Drivers/STM32F0xx_HAL_Driver/Src/stm32f0xx_hal_tim_ex.c ****     tmpsmcr = htim->Instance->SMCR & TIM_SMCR_SMS;
 908              		.loc 1 434 19 is_stmt 1
 909 00b8 7B68     		ldr	r3, [r7, #4]
 910 00ba 1B68     		ldr	r3, [r3]
 911              		.loc 1 434 29
 912 00bc 9B68     		ldr	r3, [r3, #8]
 913              		.loc 1 434 13
 914 00be 0722     		movs	r2, #7
 915 00c0 1340     		ands	r3, r2
 916 00c2 BB60     		str	r3, [r7, #8]
 435:Drivers/STM32F0xx_HAL_Driver/Src/stm32f0xx_hal_tim_ex.c ****     if (!IS_TIM_SLAVEMODE_TRIGGER_ENABLED(tmpsmcr))
 917              		.loc 1 435 8
 918 00c4 BB68     		ldr	r3, [r7, #8]
 919 00c6 062B     		cmp	r3, #6
 920 00c8 10D0     		beq	.L39
 436:Drivers/STM32F0xx_HAL_Driver/Src/stm32f0xx_hal_tim_ex.c ****     {
 437:Drivers/STM32F0xx_HAL_Driver/Src/stm32f0xx_hal_tim_ex.c ****       __HAL_TIM_ENABLE(htim);
 921              		.loc 1 437 7
 922 00ca 7B68     		ldr	r3, [r7, #4]
 923 00cc 1B68     		ldr	r3, [r3]
 924 00ce 1A68     		ldr	r2, [r3]
 925 00d0 7B68     		ldr	r3, [r7, #4]
 926 00d2 1B68     		ldr	r3, [r3]
 927 00d4 0121     		movs	r1, #1
 928 00d6 0A43     		orrs	r2, r1
 929 00d8 1A60     		str	r2, [r3]
 435:Drivers/STM32F0xx_HAL_Driver/Src/stm32f0xx_hal_tim_ex.c ****     if (!IS_TIM_SLAVEMODE_TRIGGER_ENABLED(tmpsmcr))
 930              		.loc 1 435 8
 931 00da 07E0     		b	.L39
 932              	.L37:
 438:Drivers/STM32F0xx_HAL_Driver/Src/stm32f0xx_hal_tim_ex.c ****     }
 439:Drivers/STM32F0xx_HAL_Driver/Src/stm32f0xx_hal_tim_ex.c ****   }
 440:Drivers/STM32F0xx_HAL_Driver/Src/stm32f0xx_hal_tim_ex.c ****   else
 441:Drivers/STM32F0xx_HAL_Driver/Src/stm32f0xx_hal_tim_ex.c ****   {
 442:Drivers/STM32F0xx_HAL_Driver/Src/stm32f0xx_hal_tim_ex.c ****     __HAL_TIM_ENABLE(htim);
 933              		.loc 1 442 5
 934 00dc 7B68     		ldr	r3, [r7, #4]
 935 00de 1B68     		ldr	r3, [r3]
 936 00e0 1A68     		ldr	r2, [r3]
 937 00e2 7B68     		ldr	r3, [r7, #4]
ARM GAS  /var/folders/d0/cymppscj10lcmm48h781wrc80000gn/T//cc0qcKWW.s 			page 25


 938 00e4 1B68     		ldr	r3, [r3]
 939 00e6 0121     		movs	r1, #1
 940 00e8 0A43     		orrs	r2, r1
 941 00ea 1A60     		str	r2, [r3]
 942              	.L39:
 443:Drivers/STM32F0xx_HAL_Driver/Src/stm32f0xx_hal_tim_ex.c ****   }
 444:Drivers/STM32F0xx_HAL_Driver/Src/stm32f0xx_hal_tim_ex.c **** 
 445:Drivers/STM32F0xx_HAL_Driver/Src/stm32f0xx_hal_tim_ex.c ****   /* Return function status */
 446:Drivers/STM32F0xx_HAL_Driver/Src/stm32f0xx_hal_tim_ex.c ****   return HAL_OK;
 943              		.loc 1 446 10
 944 00ec 0023     		movs	r3, #0
 945              	.L35:
 447:Drivers/STM32F0xx_HAL_Driver/Src/stm32f0xx_hal_tim_ex.c **** }
 946              		.loc 1 447 1
 947 00ee 1800     		movs	r0, r3
 948 00f0 BD46     		mov	sp, r7
 949 00f2 05B0     		add	sp, sp, #20
 950              		@ sp needed
 951 00f4 F0BD     		pop	{r4, r5, r6, r7, pc}
 952              	.L41:
 953 00f6 C046     		.align	2
 954              	.L40:
 955 00f8 002C0140 		.word	1073818624
 956 00fc 00040040 		.word	1073742848
 957 0100 00400140 		.word	1073823744
 958              		.cfi_endproc
 959              	.LFE46:
 961              		.section	.text.HAL_TIMEx_HallSensor_Stop_IT,"ax",%progbits
 962              		.align	1
 963              		.global	HAL_TIMEx_HallSensor_Stop_IT
 964              		.syntax unified
 965              		.code	16
 966              		.thumb_func
 968              	HAL_TIMEx_HallSensor_Stop_IT:
 969              	.LFB47:
 448:Drivers/STM32F0xx_HAL_Driver/Src/stm32f0xx_hal_tim_ex.c **** 
 449:Drivers/STM32F0xx_HAL_Driver/Src/stm32f0xx_hal_tim_ex.c **** /**
 450:Drivers/STM32F0xx_HAL_Driver/Src/stm32f0xx_hal_tim_ex.c ****   * @brief  Stops the TIM Hall Sensor Interface in interrupt mode.
 451:Drivers/STM32F0xx_HAL_Driver/Src/stm32f0xx_hal_tim_ex.c ****   * @param  htim TIM Hall Sensor Interface handle
 452:Drivers/STM32F0xx_HAL_Driver/Src/stm32f0xx_hal_tim_ex.c ****   * @retval HAL status
 453:Drivers/STM32F0xx_HAL_Driver/Src/stm32f0xx_hal_tim_ex.c ****   */
 454:Drivers/STM32F0xx_HAL_Driver/Src/stm32f0xx_hal_tim_ex.c **** HAL_StatusTypeDef HAL_TIMEx_HallSensor_Stop_IT(TIM_HandleTypeDef *htim)
 455:Drivers/STM32F0xx_HAL_Driver/Src/stm32f0xx_hal_tim_ex.c **** {
 970              		.loc 1 455 1
 971              		.cfi_startproc
 972              		@ args = 0, pretend = 0, frame = 8
 973              		@ frame_needed = 1, uses_anonymous_args = 0
 974 0000 80B5     		push	{r7, lr}
 975              	.LCFI21:
 976              		.cfi_def_cfa_offset 8
 977              		.cfi_offset 7, -8
 978              		.cfi_offset 14, -4
 979 0002 82B0     		sub	sp, sp, #8
 980              	.LCFI22:
 981              		.cfi_def_cfa_offset 16
 982 0004 00AF     		add	r7, sp, #0
 983              	.LCFI23:
ARM GAS  /var/folders/d0/cymppscj10lcmm48h781wrc80000gn/T//cc0qcKWW.s 			page 26


 984              		.cfi_def_cfa_register 7
 985 0006 7860     		str	r0, [r7, #4]
 456:Drivers/STM32F0xx_HAL_Driver/Src/stm32f0xx_hal_tim_ex.c ****   /* Check the parameters */
 457:Drivers/STM32F0xx_HAL_Driver/Src/stm32f0xx_hal_tim_ex.c ****   assert_param(IS_TIM_HALL_SENSOR_INTERFACE_INSTANCE(htim->Instance));
 458:Drivers/STM32F0xx_HAL_Driver/Src/stm32f0xx_hal_tim_ex.c **** 
 459:Drivers/STM32F0xx_HAL_Driver/Src/stm32f0xx_hal_tim_ex.c ****   /* Disable the Input Capture channel 1
 460:Drivers/STM32F0xx_HAL_Driver/Src/stm32f0xx_hal_tim_ex.c ****   (in the Hall Sensor Interface the three possible channels that can be used are TIM_CHANNEL_1,
 461:Drivers/STM32F0xx_HAL_Driver/Src/stm32f0xx_hal_tim_ex.c ****   TIM_CHANNEL_2 and TIM_CHANNEL_3) */
 462:Drivers/STM32F0xx_HAL_Driver/Src/stm32f0xx_hal_tim_ex.c ****   TIM_CCxChannelCmd(htim->Instance, TIM_CHANNEL_1, TIM_CCx_DISABLE);
 986              		.loc 1 462 3
 987 0008 7B68     		ldr	r3, [r7, #4]
 988 000a 1B68     		ldr	r3, [r3]
 989 000c 0022     		movs	r2, #0
 990 000e 0021     		movs	r1, #0
 991 0010 1800     		movs	r0, r3
 992 0012 FFF7FEFF 		bl	TIM_CCxChannelCmd
 463:Drivers/STM32F0xx_HAL_Driver/Src/stm32f0xx_hal_tim_ex.c **** 
 464:Drivers/STM32F0xx_HAL_Driver/Src/stm32f0xx_hal_tim_ex.c ****   /* Disable the capture compare Interrupts event */
 465:Drivers/STM32F0xx_HAL_Driver/Src/stm32f0xx_hal_tim_ex.c ****   __HAL_TIM_DISABLE_IT(htim, TIM_IT_CC1);
 993              		.loc 1 465 3
 994 0016 7B68     		ldr	r3, [r7, #4]
 995 0018 1B68     		ldr	r3, [r3]
 996 001a DA68     		ldr	r2, [r3, #12]
 997 001c 7B68     		ldr	r3, [r7, #4]
 998 001e 1B68     		ldr	r3, [r3]
 999 0020 0221     		movs	r1, #2
 1000 0022 8A43     		bics	r2, r1
 1001 0024 DA60     		str	r2, [r3, #12]
 466:Drivers/STM32F0xx_HAL_Driver/Src/stm32f0xx_hal_tim_ex.c **** 
 467:Drivers/STM32F0xx_HAL_Driver/Src/stm32f0xx_hal_tim_ex.c ****   /* Disable the Peripheral */
 468:Drivers/STM32F0xx_HAL_Driver/Src/stm32f0xx_hal_tim_ex.c ****   __HAL_TIM_DISABLE(htim);
 1002              		.loc 1 468 3
 1003 0026 7B68     		ldr	r3, [r7, #4]
 1004 0028 1B68     		ldr	r3, [r3]
 1005 002a 1B6A     		ldr	r3, [r3, #32]
 1006 002c 124A     		ldr	r2, .L45
 1007 002e 1340     		ands	r3, r2
 1008 0030 0DD1     		bne	.L43
 1009              		.loc 1 468 3 is_stmt 0 discriminator 1
 1010 0032 7B68     		ldr	r3, [r7, #4]
 1011 0034 1B68     		ldr	r3, [r3]
 1012 0036 1B6A     		ldr	r3, [r3, #32]
 1013 0038 104A     		ldr	r2, .L45+4
 1014 003a 1340     		ands	r3, r2
 1015 003c 07D1     		bne	.L43
 1016              		.loc 1 468 3 discriminator 2
 1017 003e 7B68     		ldr	r3, [r7, #4]
 1018 0040 1B68     		ldr	r3, [r3]
 1019 0042 1A68     		ldr	r2, [r3]
 1020 0044 7B68     		ldr	r3, [r7, #4]
 1021 0046 1B68     		ldr	r3, [r3]
 1022 0048 0121     		movs	r1, #1
 1023 004a 8A43     		bics	r2, r1
 1024 004c 1A60     		str	r2, [r3]
 1025              	.L43:
 469:Drivers/STM32F0xx_HAL_Driver/Src/stm32f0xx_hal_tim_ex.c **** 
 470:Drivers/STM32F0xx_HAL_Driver/Src/stm32f0xx_hal_tim_ex.c ****   /* Set the TIM channels state */
ARM GAS  /var/folders/d0/cymppscj10lcmm48h781wrc80000gn/T//cc0qcKWW.s 			page 27


 471:Drivers/STM32F0xx_HAL_Driver/Src/stm32f0xx_hal_tim_ex.c ****   TIM_CHANNEL_STATE_SET(htim, TIM_CHANNEL_1, HAL_TIM_CHANNEL_STATE_READY);
 1026              		.loc 1 471 3 is_stmt 1
 1027 004e 7B68     		ldr	r3, [r7, #4]
 1028 0050 3E22     		movs	r2, #62
 1029 0052 0121     		movs	r1, #1
 1030 0054 9954     		strb	r1, [r3, r2]
 472:Drivers/STM32F0xx_HAL_Driver/Src/stm32f0xx_hal_tim_ex.c ****   TIM_CHANNEL_STATE_SET(htim, TIM_CHANNEL_2, HAL_TIM_CHANNEL_STATE_READY);
 1031              		.loc 1 472 3
 1032 0056 7B68     		ldr	r3, [r7, #4]
 1033 0058 3F22     		movs	r2, #63
 1034 005a 0121     		movs	r1, #1
 1035 005c 9954     		strb	r1, [r3, r2]
 473:Drivers/STM32F0xx_HAL_Driver/Src/stm32f0xx_hal_tim_ex.c ****   TIM_CHANNEL_N_STATE_SET(htim, TIM_CHANNEL_1, HAL_TIM_CHANNEL_STATE_READY);
 1036              		.loc 1 473 3
 1037 005e 7B68     		ldr	r3, [r7, #4]
 1038 0060 4222     		movs	r2, #66
 1039 0062 0121     		movs	r1, #1
 1040 0064 9954     		strb	r1, [r3, r2]
 474:Drivers/STM32F0xx_HAL_Driver/Src/stm32f0xx_hal_tim_ex.c ****   TIM_CHANNEL_N_STATE_SET(htim, TIM_CHANNEL_2, HAL_TIM_CHANNEL_STATE_READY);
 1041              		.loc 1 474 3
 1042 0066 7B68     		ldr	r3, [r7, #4]
 1043 0068 4322     		movs	r2, #67
 1044 006a 0121     		movs	r1, #1
 1045 006c 9954     		strb	r1, [r3, r2]
 475:Drivers/STM32F0xx_HAL_Driver/Src/stm32f0xx_hal_tim_ex.c **** 
 476:Drivers/STM32F0xx_HAL_Driver/Src/stm32f0xx_hal_tim_ex.c ****   /* Return function status */
 477:Drivers/STM32F0xx_HAL_Driver/Src/stm32f0xx_hal_tim_ex.c ****   return HAL_OK;
 1046              		.loc 1 477 10
 1047 006e 0023     		movs	r3, #0
 478:Drivers/STM32F0xx_HAL_Driver/Src/stm32f0xx_hal_tim_ex.c **** }
 1048              		.loc 1 478 1
 1049 0070 1800     		movs	r0, r3
 1050 0072 BD46     		mov	sp, r7
 1051 0074 02B0     		add	sp, sp, #8
 1052              		@ sp needed
 1053 0076 80BD     		pop	{r7, pc}
 1054              	.L46:
 1055              		.align	2
 1056              	.L45:
 1057 0078 11110000 		.word	4369
 1058 007c 44040000 		.word	1092
 1059              		.cfi_endproc
 1060              	.LFE47:
 1062              		.section	.text.HAL_TIMEx_HallSensor_Start_DMA,"ax",%progbits
 1063              		.align	1
 1064              		.global	HAL_TIMEx_HallSensor_Start_DMA
 1065              		.syntax unified
 1066              		.code	16
 1067              		.thumb_func
 1069              	HAL_TIMEx_HallSensor_Start_DMA:
 1070              	.LFB48:
 479:Drivers/STM32F0xx_HAL_Driver/Src/stm32f0xx_hal_tim_ex.c **** 
 480:Drivers/STM32F0xx_HAL_Driver/Src/stm32f0xx_hal_tim_ex.c **** /**
 481:Drivers/STM32F0xx_HAL_Driver/Src/stm32f0xx_hal_tim_ex.c ****   * @brief  Starts the TIM Hall Sensor Interface in DMA mode.
 482:Drivers/STM32F0xx_HAL_Driver/Src/stm32f0xx_hal_tim_ex.c ****   * @param  htim TIM Hall Sensor Interface handle
 483:Drivers/STM32F0xx_HAL_Driver/Src/stm32f0xx_hal_tim_ex.c ****   * @param  pData The destination Buffer address.
 484:Drivers/STM32F0xx_HAL_Driver/Src/stm32f0xx_hal_tim_ex.c ****   * @param  Length The length of data to be transferred from TIM peripheral to memory.
ARM GAS  /var/folders/d0/cymppscj10lcmm48h781wrc80000gn/T//cc0qcKWW.s 			page 28


 485:Drivers/STM32F0xx_HAL_Driver/Src/stm32f0xx_hal_tim_ex.c ****   * @retval HAL status
 486:Drivers/STM32F0xx_HAL_Driver/Src/stm32f0xx_hal_tim_ex.c ****   */
 487:Drivers/STM32F0xx_HAL_Driver/Src/stm32f0xx_hal_tim_ex.c **** HAL_StatusTypeDef HAL_TIMEx_HallSensor_Start_DMA(TIM_HandleTypeDef *htim, uint32_t *pData, uint16_t
 488:Drivers/STM32F0xx_HAL_Driver/Src/stm32f0xx_hal_tim_ex.c **** {
 1071              		.loc 1 488 1
 1072              		.cfi_startproc
 1073              		@ args = 0, pretend = 0, frame = 24
 1074              		@ frame_needed = 1, uses_anonymous_args = 0
 1075 0000 90B5     		push	{r4, r7, lr}
 1076              	.LCFI24:
 1077              		.cfi_def_cfa_offset 12
 1078              		.cfi_offset 4, -12
 1079              		.cfi_offset 7, -8
 1080              		.cfi_offset 14, -4
 1081 0002 87B0     		sub	sp, sp, #28
 1082              	.LCFI25:
 1083              		.cfi_def_cfa_offset 40
 1084 0004 00AF     		add	r7, sp, #0
 1085              	.LCFI26:
 1086              		.cfi_def_cfa_register 7
 1087 0006 F860     		str	r0, [r7, #12]
 1088 0008 B960     		str	r1, [r7, #8]
 1089 000a BB1D     		adds	r3, r7, #6
 1090 000c 1A80     		strh	r2, [r3]
 489:Drivers/STM32F0xx_HAL_Driver/Src/stm32f0xx_hal_tim_ex.c ****   uint32_t tmpsmcr;
 490:Drivers/STM32F0xx_HAL_Driver/Src/stm32f0xx_hal_tim_ex.c ****   HAL_TIM_ChannelStateTypeDef channel_1_state = TIM_CHANNEL_STATE_GET(htim, TIM_CHANNEL_1);
 1091              		.loc 1 490 31
 1092 000e 1720     		movs	r0, #23
 1093 0010 3B18     		adds	r3, r7, r0
 1094 0012 FA68     		ldr	r2, [r7, #12]
 1095 0014 3E21     		movs	r1, #62
 1096 0016 525C     		ldrb	r2, [r2, r1]
 1097 0018 1A70     		strb	r2, [r3]
 491:Drivers/STM32F0xx_HAL_Driver/Src/stm32f0xx_hal_tim_ex.c ****   HAL_TIM_ChannelStateTypeDef complementary_channel_1_state = TIM_CHANNEL_N_STATE_GET(htim, TIM_CHA
 1098              		.loc 1 491 31
 1099 001a 1624     		movs	r4, #22
 1100 001c 3B19     		adds	r3, r7, r4
 1101 001e FA68     		ldr	r2, [r7, #12]
 1102 0020 4221     		movs	r1, #66
 1103 0022 525C     		ldrb	r2, [r2, r1]
 1104 0024 1A70     		strb	r2, [r3]
 492:Drivers/STM32F0xx_HAL_Driver/Src/stm32f0xx_hal_tim_ex.c **** 
 493:Drivers/STM32F0xx_HAL_Driver/Src/stm32f0xx_hal_tim_ex.c ****   /* Check the parameters */
 494:Drivers/STM32F0xx_HAL_Driver/Src/stm32f0xx_hal_tim_ex.c ****   assert_param(IS_TIM_HALL_SENSOR_INTERFACE_INSTANCE(htim->Instance));
 495:Drivers/STM32F0xx_HAL_Driver/Src/stm32f0xx_hal_tim_ex.c **** 
 496:Drivers/STM32F0xx_HAL_Driver/Src/stm32f0xx_hal_tim_ex.c ****   /* Set the TIM channel state */
 497:Drivers/STM32F0xx_HAL_Driver/Src/stm32f0xx_hal_tim_ex.c ****   if ((channel_1_state == HAL_TIM_CHANNEL_STATE_BUSY)
 1105              		.loc 1 497 6
 1106 0026 3B18     		adds	r3, r7, r0
 1107 0028 1B78     		ldrb	r3, [r3]
 1108 002a 022B     		cmp	r3, #2
 1109 002c 03D0     		beq	.L48
 498:Drivers/STM32F0xx_HAL_Driver/Src/stm32f0xx_hal_tim_ex.c ****       || (complementary_channel_1_state == HAL_TIM_CHANNEL_STATE_BUSY))
 1110              		.loc 1 498 7
 1111 002e 3B19     		adds	r3, r7, r4
 1112 0030 1B78     		ldrb	r3, [r3]
 1113 0032 022B     		cmp	r3, #2
ARM GAS  /var/folders/d0/cymppscj10lcmm48h781wrc80000gn/T//cc0qcKWW.s 			page 29


 1114 0034 01D1     		bne	.L49
 1115              	.L48:
 499:Drivers/STM32F0xx_HAL_Driver/Src/stm32f0xx_hal_tim_ex.c ****   {
 500:Drivers/STM32F0xx_HAL_Driver/Src/stm32f0xx_hal_tim_ex.c ****     return HAL_BUSY;
 1116              		.loc 1 500 12
 1117 0036 0223     		movs	r3, #2
 1118 0038 73E0     		b	.L50
 1119              	.L49:
 501:Drivers/STM32F0xx_HAL_Driver/Src/stm32f0xx_hal_tim_ex.c ****   }
 502:Drivers/STM32F0xx_HAL_Driver/Src/stm32f0xx_hal_tim_ex.c ****   else if ((channel_1_state == HAL_TIM_CHANNEL_STATE_READY)
 1120              		.loc 1 502 11
 1121 003a 1723     		movs	r3, #23
 1122 003c FB18     		adds	r3, r7, r3
 1123 003e 1B78     		ldrb	r3, [r3]
 1124 0040 012B     		cmp	r3, #1
 1125 0042 37D1     		bne	.L51
 503:Drivers/STM32F0xx_HAL_Driver/Src/stm32f0xx_hal_tim_ex.c ****            && (complementary_channel_1_state == HAL_TIM_CHANNEL_STATE_READY))
 1126              		.loc 1 503 12
 1127 0044 1623     		movs	r3, #22
 1128 0046 FB18     		adds	r3, r7, r3
 1129 0048 1B78     		ldrb	r3, [r3]
 1130 004a 012B     		cmp	r3, #1
 1131 004c 32D1     		bne	.L51
 504:Drivers/STM32F0xx_HAL_Driver/Src/stm32f0xx_hal_tim_ex.c ****   {
 505:Drivers/STM32F0xx_HAL_Driver/Src/stm32f0xx_hal_tim_ex.c ****     if ((pData == NULL) && (Length > 0U))
 1132              		.loc 1 505 8
 1133 004e BB68     		ldr	r3, [r7, #8]
 1134 0050 002B     		cmp	r3, #0
 1135 0052 05D1     		bne	.L52
 1136              		.loc 1 505 25 discriminator 1
 1137 0054 BB1D     		adds	r3, r7, #6
 1138 0056 1B88     		ldrh	r3, [r3]
 1139 0058 002B     		cmp	r3, #0
 1140 005a 01D0     		beq	.L52
 506:Drivers/STM32F0xx_HAL_Driver/Src/stm32f0xx_hal_tim_ex.c ****     {
 507:Drivers/STM32F0xx_HAL_Driver/Src/stm32f0xx_hal_tim_ex.c ****       return HAL_ERROR;
 1141              		.loc 1 507 14
 1142 005c 0123     		movs	r3, #1
 1143 005e 60E0     		b	.L50
 1144              	.L52:
 508:Drivers/STM32F0xx_HAL_Driver/Src/stm32f0xx_hal_tim_ex.c ****     }
 509:Drivers/STM32F0xx_HAL_Driver/Src/stm32f0xx_hal_tim_ex.c ****     else
 510:Drivers/STM32F0xx_HAL_Driver/Src/stm32f0xx_hal_tim_ex.c ****     {
 511:Drivers/STM32F0xx_HAL_Driver/Src/stm32f0xx_hal_tim_ex.c ****       TIM_CHANNEL_STATE_SET(htim, TIM_CHANNEL_1, HAL_TIM_CHANNEL_STATE_BUSY);
 1145              		.loc 1 511 7
 1146 0060 FB68     		ldr	r3, [r7, #12]
 1147 0062 3E22     		movs	r2, #62
 1148 0064 0221     		movs	r1, #2
 1149 0066 9954     		strb	r1, [r3, r2]
 512:Drivers/STM32F0xx_HAL_Driver/Src/stm32f0xx_hal_tim_ex.c ****       TIM_CHANNEL_N_STATE_SET(htim, TIM_CHANNEL_1, HAL_TIM_CHANNEL_STATE_BUSY);
 1150              		.loc 1 512 7
 1151 0068 FB68     		ldr	r3, [r7, #12]
 1152 006a 4222     		movs	r2, #66
 1153 006c 0221     		movs	r1, #2
 1154 006e 9954     		strb	r1, [r3, r2]
 505:Drivers/STM32F0xx_HAL_Driver/Src/stm32f0xx_hal_tim_ex.c ****     {
 1155              		.loc 1 505 8
ARM GAS  /var/folders/d0/cymppscj10lcmm48h781wrc80000gn/T//cc0qcKWW.s 			page 30


 1156 0070 C046     		nop
 513:Drivers/STM32F0xx_HAL_Driver/Src/stm32f0xx_hal_tim_ex.c ****     }
 514:Drivers/STM32F0xx_HAL_Driver/Src/stm32f0xx_hal_tim_ex.c ****   }
 515:Drivers/STM32F0xx_HAL_Driver/Src/stm32f0xx_hal_tim_ex.c ****   else
 516:Drivers/STM32F0xx_HAL_Driver/Src/stm32f0xx_hal_tim_ex.c ****   {
 517:Drivers/STM32F0xx_HAL_Driver/Src/stm32f0xx_hal_tim_ex.c ****     return HAL_ERROR;
 518:Drivers/STM32F0xx_HAL_Driver/Src/stm32f0xx_hal_tim_ex.c ****   }
 519:Drivers/STM32F0xx_HAL_Driver/Src/stm32f0xx_hal_tim_ex.c **** 
 520:Drivers/STM32F0xx_HAL_Driver/Src/stm32f0xx_hal_tim_ex.c ****   /* Enable the Input Capture channel 1
 521:Drivers/STM32F0xx_HAL_Driver/Src/stm32f0xx_hal_tim_ex.c ****   (in the Hall Sensor Interface the three possible channels that can be used are TIM_CHANNEL_1,
 522:Drivers/STM32F0xx_HAL_Driver/Src/stm32f0xx_hal_tim_ex.c ****   TIM_CHANNEL_2 and TIM_CHANNEL_3) */
 523:Drivers/STM32F0xx_HAL_Driver/Src/stm32f0xx_hal_tim_ex.c ****   TIM_CCxChannelCmd(htim->Instance, TIM_CHANNEL_1, TIM_CCx_ENABLE);
 1157              		.loc 1 523 3
 1158 0072 FB68     		ldr	r3, [r7, #12]
 1159 0074 1B68     		ldr	r3, [r3]
 1160 0076 0122     		movs	r2, #1
 1161 0078 0021     		movs	r1, #0
 1162 007a 1800     		movs	r0, r3
 1163 007c FFF7FEFF 		bl	TIM_CCxChannelCmd
 524:Drivers/STM32F0xx_HAL_Driver/Src/stm32f0xx_hal_tim_ex.c **** 
 525:Drivers/STM32F0xx_HAL_Driver/Src/stm32f0xx_hal_tim_ex.c ****   /* Set the DMA Input Capture 1 Callbacks */
 526:Drivers/STM32F0xx_HAL_Driver/Src/stm32f0xx_hal_tim_ex.c ****   htim->hdma[TIM_DMA_ID_CC1]->XferCpltCallback = TIM_DMACaptureCplt;
 1164              		.loc 1 526 13
 1165 0080 FB68     		ldr	r3, [r7, #12]
 1166 0082 5B6A     		ldr	r3, [r3, #36]
 1167              		.loc 1 526 48
 1168 0084 294A     		ldr	r2, .L60
 1169 0086 9A62     		str	r2, [r3, #40]
 527:Drivers/STM32F0xx_HAL_Driver/Src/stm32f0xx_hal_tim_ex.c ****   htim->hdma[TIM_DMA_ID_CC1]->XferHalfCpltCallback = TIM_DMACaptureHalfCplt;
 1170              		.loc 1 527 13
 1171 0088 FB68     		ldr	r3, [r7, #12]
 1172 008a 5B6A     		ldr	r3, [r3, #36]
 1173              		.loc 1 527 52
 1174 008c 284A     		ldr	r2, .L60+4
 1175 008e DA62     		str	r2, [r3, #44]
 528:Drivers/STM32F0xx_HAL_Driver/Src/stm32f0xx_hal_tim_ex.c ****   /* Set the DMA error callback */
 529:Drivers/STM32F0xx_HAL_Driver/Src/stm32f0xx_hal_tim_ex.c ****   htim->hdma[TIM_DMA_ID_CC1]->XferErrorCallback = TIM_DMAError ;
 1176              		.loc 1 529 13
 1177 0090 FB68     		ldr	r3, [r7, #12]
 1178 0092 5B6A     		ldr	r3, [r3, #36]
 1179              		.loc 1 529 49
 1180 0094 274A     		ldr	r2, .L60+8
 1181 0096 1A63     		str	r2, [r3, #48]
 530:Drivers/STM32F0xx_HAL_Driver/Src/stm32f0xx_hal_tim_ex.c **** 
 531:Drivers/STM32F0xx_HAL_Driver/Src/stm32f0xx_hal_tim_ex.c ****   /* Enable the DMA channel for Capture 1*/
 532:Drivers/STM32F0xx_HAL_Driver/Src/stm32f0xx_hal_tim_ex.c ****   if (HAL_DMA_Start_IT(htim->hdma[TIM_DMA_ID_CC1], (uint32_t)&htim->Instance->CCR1, (uint32_t)pData
 1182              		.loc 1 532 7
 1183 0098 FB68     		ldr	r3, [r7, #12]
 1184 009a 586A     		ldr	r0, [r3, #36]
 1185              		.loc 1 532 67
 1186 009c FB68     		ldr	r3, [r7, #12]
 1187 009e 1B68     		ldr	r3, [r3]
 1188              		.loc 1 532 62
 1189 00a0 3433     		adds	r3, r3, #52
 1190              		.loc 1 532 7
 1191 00a2 1900     		movs	r1, r3
 1192 00a4 BA68     		ldr	r2, [r7, #8]
ARM GAS  /var/folders/d0/cymppscj10lcmm48h781wrc80000gn/T//cc0qcKWW.s 			page 31


 1193 00a6 BB1D     		adds	r3, r7, #6
 1194 00a8 1B88     		ldrh	r3, [r3]
 1195 00aa FFF7FEFF 		bl	HAL_DMA_Start_IT
 1196 00ae 031E     		subs	r3, r0, #0
 1197              		.loc 1 532 6
 1198 00b0 04D0     		beq	.L54
 1199 00b2 01E0     		b	.L59
 1200              	.L51:
 517:Drivers/STM32F0xx_HAL_Driver/Src/stm32f0xx_hal_tim_ex.c ****   }
 1201              		.loc 1 517 12
 1202 00b4 0123     		movs	r3, #1
 1203 00b6 34E0     		b	.L50
 1204              	.L59:
 533:Drivers/STM32F0xx_HAL_Driver/Src/stm32f0xx_hal_tim_ex.c ****   {
 534:Drivers/STM32F0xx_HAL_Driver/Src/stm32f0xx_hal_tim_ex.c ****     /* Return error status */
 535:Drivers/STM32F0xx_HAL_Driver/Src/stm32f0xx_hal_tim_ex.c ****     return HAL_ERROR;
 1205              		.loc 1 535 12
 1206 00b8 0123     		movs	r3, #1
 1207 00ba 32E0     		b	.L50
 1208              	.L54:
 536:Drivers/STM32F0xx_HAL_Driver/Src/stm32f0xx_hal_tim_ex.c ****   }
 537:Drivers/STM32F0xx_HAL_Driver/Src/stm32f0xx_hal_tim_ex.c ****   /* Enable the capture compare 1 Interrupt */
 538:Drivers/STM32F0xx_HAL_Driver/Src/stm32f0xx_hal_tim_ex.c ****   __HAL_TIM_ENABLE_DMA(htim, TIM_DMA_CC1);
 1209              		.loc 1 538 3
 1210 00bc FB68     		ldr	r3, [r7, #12]
 1211 00be 1B68     		ldr	r3, [r3]
 1212 00c0 DA68     		ldr	r2, [r3, #12]
 1213 00c2 FB68     		ldr	r3, [r7, #12]
 1214 00c4 1B68     		ldr	r3, [r3]
 1215 00c6 8021     		movs	r1, #128
 1216 00c8 8900     		lsls	r1, r1, #2
 1217 00ca 0A43     		orrs	r2, r1
 1218 00cc DA60     		str	r2, [r3, #12]
 539:Drivers/STM32F0xx_HAL_Driver/Src/stm32f0xx_hal_tim_ex.c **** 
 540:Drivers/STM32F0xx_HAL_Driver/Src/stm32f0xx_hal_tim_ex.c ****   /* Enable the Peripheral, except in trigger mode where enable is automatically done with trigger 
 541:Drivers/STM32F0xx_HAL_Driver/Src/stm32f0xx_hal_tim_ex.c ****   if (IS_TIM_SLAVE_INSTANCE(htim->Instance))
 1219              		.loc 1 541 7
 1220 00ce FB68     		ldr	r3, [r7, #12]
 1221 00d0 1B68     		ldr	r3, [r3]
 1222              		.loc 1 541 6
 1223 00d2 194A     		ldr	r2, .L60+12
 1224 00d4 9342     		cmp	r3, r2
 1225 00d6 09D0     		beq	.L55
 1226              		.loc 1 541 7 discriminator 1
 1227 00d8 FB68     		ldr	r3, [r7, #12]
 1228 00da 1B68     		ldr	r3, [r3]
 1229 00dc 174A     		ldr	r2, .L60+16
 1230 00de 9342     		cmp	r3, r2
 1231 00e0 04D0     		beq	.L55
 1232              		.loc 1 541 7 is_stmt 0 discriminator 2
 1233 00e2 FB68     		ldr	r3, [r7, #12]
 1234 00e4 1B68     		ldr	r3, [r3]
 1235 00e6 164A     		ldr	r2, .L60+20
 1236 00e8 9342     		cmp	r3, r2
 1237 00ea 11D1     		bne	.L56
 1238              	.L55:
 542:Drivers/STM32F0xx_HAL_Driver/Src/stm32f0xx_hal_tim_ex.c ****   {
ARM GAS  /var/folders/d0/cymppscj10lcmm48h781wrc80000gn/T//cc0qcKWW.s 			page 32


 543:Drivers/STM32F0xx_HAL_Driver/Src/stm32f0xx_hal_tim_ex.c ****     tmpsmcr = htim->Instance->SMCR & TIM_SMCR_SMS;
 1239              		.loc 1 543 19 is_stmt 1
 1240 00ec FB68     		ldr	r3, [r7, #12]
 1241 00ee 1B68     		ldr	r3, [r3]
 1242              		.loc 1 543 29
 1243 00f0 9B68     		ldr	r3, [r3, #8]
 1244              		.loc 1 543 13
 1245 00f2 0722     		movs	r2, #7
 1246 00f4 1340     		ands	r3, r2
 1247 00f6 3B61     		str	r3, [r7, #16]
 544:Drivers/STM32F0xx_HAL_Driver/Src/stm32f0xx_hal_tim_ex.c ****     if (!IS_TIM_SLAVEMODE_TRIGGER_ENABLED(tmpsmcr))
 1248              		.loc 1 544 8
 1249 00f8 3B69     		ldr	r3, [r7, #16]
 1250 00fa 062B     		cmp	r3, #6
 1251 00fc 10D0     		beq	.L58
 545:Drivers/STM32F0xx_HAL_Driver/Src/stm32f0xx_hal_tim_ex.c ****     {
 546:Drivers/STM32F0xx_HAL_Driver/Src/stm32f0xx_hal_tim_ex.c ****       __HAL_TIM_ENABLE(htim);
 1252              		.loc 1 546 7
 1253 00fe FB68     		ldr	r3, [r7, #12]
 1254 0100 1B68     		ldr	r3, [r3]
 1255 0102 1A68     		ldr	r2, [r3]
 1256 0104 FB68     		ldr	r3, [r7, #12]
 1257 0106 1B68     		ldr	r3, [r3]
 1258 0108 0121     		movs	r1, #1
 1259 010a 0A43     		orrs	r2, r1
 1260 010c 1A60     		str	r2, [r3]
 544:Drivers/STM32F0xx_HAL_Driver/Src/stm32f0xx_hal_tim_ex.c ****     if (!IS_TIM_SLAVEMODE_TRIGGER_ENABLED(tmpsmcr))
 1261              		.loc 1 544 8
 1262 010e 07E0     		b	.L58
 1263              	.L56:
 547:Drivers/STM32F0xx_HAL_Driver/Src/stm32f0xx_hal_tim_ex.c ****     }
 548:Drivers/STM32F0xx_HAL_Driver/Src/stm32f0xx_hal_tim_ex.c ****   }
 549:Drivers/STM32F0xx_HAL_Driver/Src/stm32f0xx_hal_tim_ex.c ****   else
 550:Drivers/STM32F0xx_HAL_Driver/Src/stm32f0xx_hal_tim_ex.c ****   {
 551:Drivers/STM32F0xx_HAL_Driver/Src/stm32f0xx_hal_tim_ex.c ****     __HAL_TIM_ENABLE(htim);
 1264              		.loc 1 551 5
 1265 0110 FB68     		ldr	r3, [r7, #12]
 1266 0112 1B68     		ldr	r3, [r3]
 1267 0114 1A68     		ldr	r2, [r3]
 1268 0116 FB68     		ldr	r3, [r7, #12]
 1269 0118 1B68     		ldr	r3, [r3]
 1270 011a 0121     		movs	r1, #1
 1271 011c 0A43     		orrs	r2, r1
 1272 011e 1A60     		str	r2, [r3]
 1273              	.L58:
 552:Drivers/STM32F0xx_HAL_Driver/Src/stm32f0xx_hal_tim_ex.c ****   }
 553:Drivers/STM32F0xx_HAL_Driver/Src/stm32f0xx_hal_tim_ex.c **** 
 554:Drivers/STM32F0xx_HAL_Driver/Src/stm32f0xx_hal_tim_ex.c ****   /* Return function status */
 555:Drivers/STM32F0xx_HAL_Driver/Src/stm32f0xx_hal_tim_ex.c ****   return HAL_OK;
 1274              		.loc 1 555 10
 1275 0120 0023     		movs	r3, #0
 1276              	.L50:
 556:Drivers/STM32F0xx_HAL_Driver/Src/stm32f0xx_hal_tim_ex.c **** }
 1277              		.loc 1 556 1
 1278 0122 1800     		movs	r0, r3
 1279 0124 BD46     		mov	sp, r7
 1280 0126 07B0     		add	sp, sp, #28
ARM GAS  /var/folders/d0/cymppscj10lcmm48h781wrc80000gn/T//cc0qcKWW.s 			page 33


 1281              		@ sp needed
 1282 0128 90BD     		pop	{r4, r7, pc}
 1283              	.L61:
 1284 012a C046     		.align	2
 1285              	.L60:
 1286 012c 00000000 		.word	TIM_DMACaptureCplt
 1287 0130 00000000 		.word	TIM_DMACaptureHalfCplt
 1288 0134 00000000 		.word	TIM_DMAError
 1289 0138 002C0140 		.word	1073818624
 1290 013c 00040040 		.word	1073742848
 1291 0140 00400140 		.word	1073823744
 1292              		.cfi_endproc
 1293              	.LFE48:
 1295              		.section	.text.HAL_TIMEx_HallSensor_Stop_DMA,"ax",%progbits
 1296              		.align	1
 1297              		.global	HAL_TIMEx_HallSensor_Stop_DMA
 1298              		.syntax unified
 1299              		.code	16
 1300              		.thumb_func
 1302              	HAL_TIMEx_HallSensor_Stop_DMA:
 1303              	.LFB49:
 557:Drivers/STM32F0xx_HAL_Driver/Src/stm32f0xx_hal_tim_ex.c **** 
 558:Drivers/STM32F0xx_HAL_Driver/Src/stm32f0xx_hal_tim_ex.c **** /**
 559:Drivers/STM32F0xx_HAL_Driver/Src/stm32f0xx_hal_tim_ex.c ****   * @brief  Stops the TIM Hall Sensor Interface in DMA mode.
 560:Drivers/STM32F0xx_HAL_Driver/Src/stm32f0xx_hal_tim_ex.c ****   * @param  htim TIM Hall Sensor Interface handle
 561:Drivers/STM32F0xx_HAL_Driver/Src/stm32f0xx_hal_tim_ex.c ****   * @retval HAL status
 562:Drivers/STM32F0xx_HAL_Driver/Src/stm32f0xx_hal_tim_ex.c ****   */
 563:Drivers/STM32F0xx_HAL_Driver/Src/stm32f0xx_hal_tim_ex.c **** HAL_StatusTypeDef HAL_TIMEx_HallSensor_Stop_DMA(TIM_HandleTypeDef *htim)
 564:Drivers/STM32F0xx_HAL_Driver/Src/stm32f0xx_hal_tim_ex.c **** {
 1304              		.loc 1 564 1
 1305              		.cfi_startproc
 1306              		@ args = 0, pretend = 0, frame = 8
 1307              		@ frame_needed = 1, uses_anonymous_args = 0
 1308 0000 80B5     		push	{r7, lr}
 1309              	.LCFI27:
 1310              		.cfi_def_cfa_offset 8
 1311              		.cfi_offset 7, -8
 1312              		.cfi_offset 14, -4
 1313 0002 82B0     		sub	sp, sp, #8
 1314              	.LCFI28:
 1315              		.cfi_def_cfa_offset 16
 1316 0004 00AF     		add	r7, sp, #0
 1317              	.LCFI29:
 1318              		.cfi_def_cfa_register 7
 1319 0006 7860     		str	r0, [r7, #4]
 565:Drivers/STM32F0xx_HAL_Driver/Src/stm32f0xx_hal_tim_ex.c ****   /* Check the parameters */
 566:Drivers/STM32F0xx_HAL_Driver/Src/stm32f0xx_hal_tim_ex.c ****   assert_param(IS_TIM_HALL_SENSOR_INTERFACE_INSTANCE(htim->Instance));
 567:Drivers/STM32F0xx_HAL_Driver/Src/stm32f0xx_hal_tim_ex.c **** 
 568:Drivers/STM32F0xx_HAL_Driver/Src/stm32f0xx_hal_tim_ex.c ****   /* Disable the Input Capture channel 1
 569:Drivers/STM32F0xx_HAL_Driver/Src/stm32f0xx_hal_tim_ex.c ****   (in the Hall Sensor Interface the three possible channels that can be used are TIM_CHANNEL_1,
 570:Drivers/STM32F0xx_HAL_Driver/Src/stm32f0xx_hal_tim_ex.c ****   TIM_CHANNEL_2 and TIM_CHANNEL_3) */
 571:Drivers/STM32F0xx_HAL_Driver/Src/stm32f0xx_hal_tim_ex.c ****   TIM_CCxChannelCmd(htim->Instance, TIM_CHANNEL_1, TIM_CCx_DISABLE);
 1320              		.loc 1 571 3
 1321 0008 7B68     		ldr	r3, [r7, #4]
 1322 000a 1B68     		ldr	r3, [r3]
 1323 000c 0022     		movs	r2, #0
 1324 000e 0021     		movs	r1, #0
ARM GAS  /var/folders/d0/cymppscj10lcmm48h781wrc80000gn/T//cc0qcKWW.s 			page 34


 1325 0010 1800     		movs	r0, r3
 1326 0012 FFF7FEFF 		bl	TIM_CCxChannelCmd
 572:Drivers/STM32F0xx_HAL_Driver/Src/stm32f0xx_hal_tim_ex.c **** 
 573:Drivers/STM32F0xx_HAL_Driver/Src/stm32f0xx_hal_tim_ex.c **** 
 574:Drivers/STM32F0xx_HAL_Driver/Src/stm32f0xx_hal_tim_ex.c ****   /* Disable the capture compare Interrupts 1 event */
 575:Drivers/STM32F0xx_HAL_Driver/Src/stm32f0xx_hal_tim_ex.c ****   __HAL_TIM_DISABLE_DMA(htim, TIM_DMA_CC1);
 1327              		.loc 1 575 3
 1328 0016 7B68     		ldr	r3, [r7, #4]
 1329 0018 1B68     		ldr	r3, [r3]
 1330 001a DA68     		ldr	r2, [r3, #12]
 1331 001c 7B68     		ldr	r3, [r7, #4]
 1332 001e 1B68     		ldr	r3, [r3]
 1333 0020 1449     		ldr	r1, .L65
 1334 0022 0A40     		ands	r2, r1
 1335 0024 DA60     		str	r2, [r3, #12]
 576:Drivers/STM32F0xx_HAL_Driver/Src/stm32f0xx_hal_tim_ex.c **** 
 577:Drivers/STM32F0xx_HAL_Driver/Src/stm32f0xx_hal_tim_ex.c ****   (void)HAL_DMA_Abort_IT(htim->hdma[TIM_DMA_ID_CC1]);
 1336              		.loc 1 577 9
 1337 0026 7B68     		ldr	r3, [r7, #4]
 1338 0028 5B6A     		ldr	r3, [r3, #36]
 1339 002a 1800     		movs	r0, r3
 1340 002c FFF7FEFF 		bl	HAL_DMA_Abort_IT
 578:Drivers/STM32F0xx_HAL_Driver/Src/stm32f0xx_hal_tim_ex.c **** 
 579:Drivers/STM32F0xx_HAL_Driver/Src/stm32f0xx_hal_tim_ex.c ****   /* Disable the Peripheral */
 580:Drivers/STM32F0xx_HAL_Driver/Src/stm32f0xx_hal_tim_ex.c ****   __HAL_TIM_DISABLE(htim);
 1341              		.loc 1 580 3
 1342 0030 7B68     		ldr	r3, [r7, #4]
 1343 0032 1B68     		ldr	r3, [r3]
 1344 0034 1B6A     		ldr	r3, [r3, #32]
 1345 0036 104A     		ldr	r2, .L65+4
 1346 0038 1340     		ands	r3, r2
 1347 003a 0DD1     		bne	.L63
 1348              		.loc 1 580 3 is_stmt 0 discriminator 1
 1349 003c 7B68     		ldr	r3, [r7, #4]
 1350 003e 1B68     		ldr	r3, [r3]
 1351 0040 1B6A     		ldr	r3, [r3, #32]
 1352 0042 0E4A     		ldr	r2, .L65+8
 1353 0044 1340     		ands	r3, r2
 1354 0046 07D1     		bne	.L63
 1355              		.loc 1 580 3 discriminator 2
 1356 0048 7B68     		ldr	r3, [r7, #4]
 1357 004a 1B68     		ldr	r3, [r3]
 1358 004c 1A68     		ldr	r2, [r3]
 1359 004e 7B68     		ldr	r3, [r7, #4]
 1360 0050 1B68     		ldr	r3, [r3]
 1361 0052 0121     		movs	r1, #1
 1362 0054 8A43     		bics	r2, r1
 1363 0056 1A60     		str	r2, [r3]
 1364              	.L63:
 581:Drivers/STM32F0xx_HAL_Driver/Src/stm32f0xx_hal_tim_ex.c **** 
 582:Drivers/STM32F0xx_HAL_Driver/Src/stm32f0xx_hal_tim_ex.c ****   /* Set the TIM channel state */
 583:Drivers/STM32F0xx_HAL_Driver/Src/stm32f0xx_hal_tim_ex.c ****   TIM_CHANNEL_STATE_SET(htim, TIM_CHANNEL_1, HAL_TIM_CHANNEL_STATE_READY);
 1365              		.loc 1 583 3 is_stmt 1
 1366 0058 7B68     		ldr	r3, [r7, #4]
 1367 005a 3E22     		movs	r2, #62
 1368 005c 0121     		movs	r1, #1
 1369 005e 9954     		strb	r1, [r3, r2]
ARM GAS  /var/folders/d0/cymppscj10lcmm48h781wrc80000gn/T//cc0qcKWW.s 			page 35


 584:Drivers/STM32F0xx_HAL_Driver/Src/stm32f0xx_hal_tim_ex.c ****   TIM_CHANNEL_N_STATE_SET(htim, TIM_CHANNEL_1, HAL_TIM_CHANNEL_STATE_READY);
 1370              		.loc 1 584 3
 1371 0060 7B68     		ldr	r3, [r7, #4]
 1372 0062 4222     		movs	r2, #66
 1373 0064 0121     		movs	r1, #1
 1374 0066 9954     		strb	r1, [r3, r2]
 585:Drivers/STM32F0xx_HAL_Driver/Src/stm32f0xx_hal_tim_ex.c **** 
 586:Drivers/STM32F0xx_HAL_Driver/Src/stm32f0xx_hal_tim_ex.c ****   /* Return function status */
 587:Drivers/STM32F0xx_HAL_Driver/Src/stm32f0xx_hal_tim_ex.c ****   return HAL_OK;
 1375              		.loc 1 587 10
 1376 0068 0023     		movs	r3, #0
 588:Drivers/STM32F0xx_HAL_Driver/Src/stm32f0xx_hal_tim_ex.c **** }
 1377              		.loc 1 588 1
 1378 006a 1800     		movs	r0, r3
 1379 006c BD46     		mov	sp, r7
 1380 006e 02B0     		add	sp, sp, #8
 1381              		@ sp needed
 1382 0070 80BD     		pop	{r7, pc}
 1383              	.L66:
 1384 0072 C046     		.align	2
 1385              	.L65:
 1386 0074 FFFDFFFF 		.word	-513
 1387 0078 11110000 		.word	4369
 1388 007c 44040000 		.word	1092
 1389              		.cfi_endproc
 1390              	.LFE49:
 1392              		.section	.text.HAL_TIMEx_OCN_Start,"ax",%progbits
 1393              		.align	1
 1394              		.global	HAL_TIMEx_OCN_Start
 1395              		.syntax unified
 1396              		.code	16
 1397              		.thumb_func
 1399              	HAL_TIMEx_OCN_Start:
 1400              	.LFB50:
 589:Drivers/STM32F0xx_HAL_Driver/Src/stm32f0xx_hal_tim_ex.c **** 
 590:Drivers/STM32F0xx_HAL_Driver/Src/stm32f0xx_hal_tim_ex.c **** /**
 591:Drivers/STM32F0xx_HAL_Driver/Src/stm32f0xx_hal_tim_ex.c ****   * @}
 592:Drivers/STM32F0xx_HAL_Driver/Src/stm32f0xx_hal_tim_ex.c ****   */
 593:Drivers/STM32F0xx_HAL_Driver/Src/stm32f0xx_hal_tim_ex.c **** 
 594:Drivers/STM32F0xx_HAL_Driver/Src/stm32f0xx_hal_tim_ex.c **** /** @defgroup TIMEx_Exported_Functions_Group2 Extended Timer Complementary Output Compare functions
 595:Drivers/STM32F0xx_HAL_Driver/Src/stm32f0xx_hal_tim_ex.c ****   *  @brief   Timer Complementary Output Compare functions
 596:Drivers/STM32F0xx_HAL_Driver/Src/stm32f0xx_hal_tim_ex.c ****   *
 597:Drivers/STM32F0xx_HAL_Driver/Src/stm32f0xx_hal_tim_ex.c **** @verbatim
 598:Drivers/STM32F0xx_HAL_Driver/Src/stm32f0xx_hal_tim_ex.c ****   ==============================================================================
 599:Drivers/STM32F0xx_HAL_Driver/Src/stm32f0xx_hal_tim_ex.c ****               ##### Timer Complementary Output Compare functions #####
 600:Drivers/STM32F0xx_HAL_Driver/Src/stm32f0xx_hal_tim_ex.c ****   ==============================================================================
 601:Drivers/STM32F0xx_HAL_Driver/Src/stm32f0xx_hal_tim_ex.c ****   [..]
 602:Drivers/STM32F0xx_HAL_Driver/Src/stm32f0xx_hal_tim_ex.c ****     This section provides functions allowing to:
 603:Drivers/STM32F0xx_HAL_Driver/Src/stm32f0xx_hal_tim_ex.c ****     (+) Start the Complementary Output Compare/PWM.
 604:Drivers/STM32F0xx_HAL_Driver/Src/stm32f0xx_hal_tim_ex.c ****     (+) Stop the Complementary Output Compare/PWM.
 605:Drivers/STM32F0xx_HAL_Driver/Src/stm32f0xx_hal_tim_ex.c ****     (+) Start the Complementary Output Compare/PWM and enable interrupts.
 606:Drivers/STM32F0xx_HAL_Driver/Src/stm32f0xx_hal_tim_ex.c ****     (+) Stop the Complementary Output Compare/PWM and disable interrupts.
 607:Drivers/STM32F0xx_HAL_Driver/Src/stm32f0xx_hal_tim_ex.c ****     (+) Start the Complementary Output Compare/PWM and enable DMA transfers.
 608:Drivers/STM32F0xx_HAL_Driver/Src/stm32f0xx_hal_tim_ex.c ****     (+) Stop the Complementary Output Compare/PWM and disable DMA transfers.
 609:Drivers/STM32F0xx_HAL_Driver/Src/stm32f0xx_hal_tim_ex.c **** 
 610:Drivers/STM32F0xx_HAL_Driver/Src/stm32f0xx_hal_tim_ex.c **** @endverbatim
 611:Drivers/STM32F0xx_HAL_Driver/Src/stm32f0xx_hal_tim_ex.c ****   * @{
ARM GAS  /var/folders/d0/cymppscj10lcmm48h781wrc80000gn/T//cc0qcKWW.s 			page 36


 612:Drivers/STM32F0xx_HAL_Driver/Src/stm32f0xx_hal_tim_ex.c ****   */
 613:Drivers/STM32F0xx_HAL_Driver/Src/stm32f0xx_hal_tim_ex.c **** 
 614:Drivers/STM32F0xx_HAL_Driver/Src/stm32f0xx_hal_tim_ex.c **** /**
 615:Drivers/STM32F0xx_HAL_Driver/Src/stm32f0xx_hal_tim_ex.c ****   * @brief  Starts the TIM Output Compare signal generation on the complementary
 616:Drivers/STM32F0xx_HAL_Driver/Src/stm32f0xx_hal_tim_ex.c ****   *         output.
 617:Drivers/STM32F0xx_HAL_Driver/Src/stm32f0xx_hal_tim_ex.c ****   * @param  htim TIM Output Compare handle
 618:Drivers/STM32F0xx_HAL_Driver/Src/stm32f0xx_hal_tim_ex.c ****   * @param  Channel TIM Channel to be enabled
 619:Drivers/STM32F0xx_HAL_Driver/Src/stm32f0xx_hal_tim_ex.c ****   *          This parameter can be one of the following values:
 620:Drivers/STM32F0xx_HAL_Driver/Src/stm32f0xx_hal_tim_ex.c ****   *            @arg TIM_CHANNEL_1: TIM Channel 1 selected
 621:Drivers/STM32F0xx_HAL_Driver/Src/stm32f0xx_hal_tim_ex.c ****   *            @arg TIM_CHANNEL_2: TIM Channel 2 selected
 622:Drivers/STM32F0xx_HAL_Driver/Src/stm32f0xx_hal_tim_ex.c ****   *            @arg TIM_CHANNEL_3: TIM Channel 3 selected
 623:Drivers/STM32F0xx_HAL_Driver/Src/stm32f0xx_hal_tim_ex.c ****   * @retval HAL status
 624:Drivers/STM32F0xx_HAL_Driver/Src/stm32f0xx_hal_tim_ex.c ****   */
 625:Drivers/STM32F0xx_HAL_Driver/Src/stm32f0xx_hal_tim_ex.c **** HAL_StatusTypeDef HAL_TIMEx_OCN_Start(TIM_HandleTypeDef *htim, uint32_t Channel)
 626:Drivers/STM32F0xx_HAL_Driver/Src/stm32f0xx_hal_tim_ex.c **** {
 1401              		.loc 1 626 1
 1402              		.cfi_startproc
 1403              		@ args = 0, pretend = 0, frame = 16
 1404              		@ frame_needed = 1, uses_anonymous_args = 0
 1405 0000 80B5     		push	{r7, lr}
 1406              	.LCFI30:
 1407              		.cfi_def_cfa_offset 8
 1408              		.cfi_offset 7, -8
 1409              		.cfi_offset 14, -4
 1410 0002 84B0     		sub	sp, sp, #16
 1411              	.LCFI31:
 1412              		.cfi_def_cfa_offset 24
 1413 0004 00AF     		add	r7, sp, #0
 1414              	.LCFI32:
 1415              		.cfi_def_cfa_register 7
 1416 0006 7860     		str	r0, [r7, #4]
 1417 0008 3960     		str	r1, [r7]
 627:Drivers/STM32F0xx_HAL_Driver/Src/stm32f0xx_hal_tim_ex.c ****   uint32_t tmpsmcr;
 628:Drivers/STM32F0xx_HAL_Driver/Src/stm32f0xx_hal_tim_ex.c **** 
 629:Drivers/STM32F0xx_HAL_Driver/Src/stm32f0xx_hal_tim_ex.c ****   /* Check the parameters */
 630:Drivers/STM32F0xx_HAL_Driver/Src/stm32f0xx_hal_tim_ex.c ****   assert_param(IS_TIM_CCXN_INSTANCE(htim->Instance, Channel));
 631:Drivers/STM32F0xx_HAL_Driver/Src/stm32f0xx_hal_tim_ex.c **** 
 632:Drivers/STM32F0xx_HAL_Driver/Src/stm32f0xx_hal_tim_ex.c ****   /* Check the TIM complementary channel state */
 633:Drivers/STM32F0xx_HAL_Driver/Src/stm32f0xx_hal_tim_ex.c ****   if (TIM_CHANNEL_N_STATE_GET(htim, Channel) != HAL_TIM_CHANNEL_STATE_READY)
 1418              		.loc 1 633 46
 1419 000a 3B68     		ldr	r3, [r7]
 1420 000c 002B     		cmp	r3, #0
 1421 000e 08D1     		bne	.L68
 1422              		.loc 1 633 7 discriminator 1
 1423 0010 7B68     		ldr	r3, [r7, #4]
 1424 0012 4222     		movs	r2, #66
 1425 0014 9B5C     		ldrb	r3, [r3, r2]
 1426 0016 DBB2     		uxtb	r3, r3
 1427              		.loc 1 633 46 discriminator 1
 1428 0018 013B     		subs	r3, r3, #1
 1429 001a 5A1E     		subs	r2, r3, #1
 1430 001c 9341     		sbcs	r3, r3, r2
 1431 001e DBB2     		uxtb	r3, r3
 1432 0020 1FE0     		b	.L69
 1433              	.L68:
 1434              		.loc 1 633 46 is_stmt 0 discriminator 2
 1435 0022 3B68     		ldr	r3, [r7]
ARM GAS  /var/folders/d0/cymppscj10lcmm48h781wrc80000gn/T//cc0qcKWW.s 			page 37


 1436 0024 042B     		cmp	r3, #4
 1437 0026 08D1     		bne	.L70
 1438              		.loc 1 633 7 is_stmt 1 discriminator 4
 1439 0028 7B68     		ldr	r3, [r7, #4]
 1440 002a 4322     		movs	r2, #67
 1441 002c 9B5C     		ldrb	r3, [r3, r2]
 1442 002e DBB2     		uxtb	r3, r3
 1443              		.loc 1 633 46 discriminator 4
 1444 0030 013B     		subs	r3, r3, #1
 1445 0032 5A1E     		subs	r2, r3, #1
 1446 0034 9341     		sbcs	r3, r3, r2
 1447 0036 DBB2     		uxtb	r3, r3
 1448 0038 13E0     		b	.L69
 1449              	.L70:
 1450              		.loc 1 633 46 is_stmt 0 discriminator 5
 1451 003a 3B68     		ldr	r3, [r7]
 1452 003c 082B     		cmp	r3, #8
 1453 003e 08D1     		bne	.L72
 1454              		.loc 1 633 7 is_stmt 1 discriminator 7
 1455 0040 7B68     		ldr	r3, [r7, #4]
 1456 0042 4422     		movs	r2, #68
 1457 0044 9B5C     		ldrb	r3, [r3, r2]
 1458 0046 DBB2     		uxtb	r3, r3
 1459              		.loc 1 633 46 discriminator 7
 1460 0048 013B     		subs	r3, r3, #1
 1461 004a 5A1E     		subs	r2, r3, #1
 1462 004c 9341     		sbcs	r3, r3, r2
 1463 004e DBB2     		uxtb	r3, r3
 1464 0050 07E0     		b	.L69
 1465              	.L72:
 1466              		.loc 1 633 7 discriminator 8
 1467 0052 7B68     		ldr	r3, [r7, #4]
 1468 0054 4522     		movs	r2, #69
 1469 0056 9B5C     		ldrb	r3, [r3, r2]
 1470 0058 DBB2     		uxtb	r3, r3
 1471              		.loc 1 633 46 discriminator 8
 1472 005a 013B     		subs	r3, r3, #1
 1473 005c 5A1E     		subs	r2, r3, #1
 1474 005e 9341     		sbcs	r3, r3, r2
 1475 0060 DBB2     		uxtb	r3, r3
 1476              	.L69:
 1477              		.loc 1 633 6 discriminator 12
 1478 0062 002B     		cmp	r3, #0
 1479 0064 01D0     		beq	.L74
 634:Drivers/STM32F0xx_HAL_Driver/Src/stm32f0xx_hal_tim_ex.c ****   {
 635:Drivers/STM32F0xx_HAL_Driver/Src/stm32f0xx_hal_tim_ex.c ****     return HAL_ERROR;
 1480              		.loc 1 635 12
 1481 0066 0123     		movs	r3, #1
 1482 0068 55E0     		b	.L75
 1483              	.L74:
 636:Drivers/STM32F0xx_HAL_Driver/Src/stm32f0xx_hal_tim_ex.c ****   }
 637:Drivers/STM32F0xx_HAL_Driver/Src/stm32f0xx_hal_tim_ex.c **** 
 638:Drivers/STM32F0xx_HAL_Driver/Src/stm32f0xx_hal_tim_ex.c ****   /* Set the TIM complementary channel state */
 639:Drivers/STM32F0xx_HAL_Driver/Src/stm32f0xx_hal_tim_ex.c ****   TIM_CHANNEL_N_STATE_SET(htim, Channel, HAL_TIM_CHANNEL_STATE_BUSY);
 1484              		.loc 1 639 3
 1485 006a 3B68     		ldr	r3, [r7]
 1486 006c 002B     		cmp	r3, #0
ARM GAS  /var/folders/d0/cymppscj10lcmm48h781wrc80000gn/T//cc0qcKWW.s 			page 38


 1487 006e 04D1     		bne	.L76
 1488              		.loc 1 639 3 is_stmt 0 discriminator 1
 1489 0070 7B68     		ldr	r3, [r7, #4]
 1490 0072 4222     		movs	r2, #66
 1491 0074 0221     		movs	r1, #2
 1492 0076 9954     		strb	r1, [r3, r2]
 1493 0078 13E0     		b	.L77
 1494              	.L76:
 1495              		.loc 1 639 3 discriminator 2
 1496 007a 3B68     		ldr	r3, [r7]
 1497 007c 042B     		cmp	r3, #4
 1498 007e 04D1     		bne	.L78
 1499              		.loc 1 639 3 discriminator 3
 1500 0080 7B68     		ldr	r3, [r7, #4]
 1501 0082 4322     		movs	r2, #67
 1502 0084 0221     		movs	r1, #2
 1503 0086 9954     		strb	r1, [r3, r2]
 1504 0088 0BE0     		b	.L77
 1505              	.L78:
 1506              		.loc 1 639 3 discriminator 4
 1507 008a 3B68     		ldr	r3, [r7]
 1508 008c 082B     		cmp	r3, #8
 1509 008e 04D1     		bne	.L80
 1510              		.loc 1 639 3 discriminator 6
 1511 0090 7B68     		ldr	r3, [r7, #4]
 1512 0092 4422     		movs	r2, #68
 1513 0094 0221     		movs	r1, #2
 1514 0096 9954     		strb	r1, [r3, r2]
 1515 0098 03E0     		b	.L77
 1516              	.L80:
 1517              		.loc 1 639 3 discriminator 7
 1518 009a 7B68     		ldr	r3, [r7, #4]
 1519 009c 4522     		movs	r2, #69
 1520 009e 0221     		movs	r1, #2
 1521 00a0 9954     		strb	r1, [r3, r2]
 1522              	.L77:
 640:Drivers/STM32F0xx_HAL_Driver/Src/stm32f0xx_hal_tim_ex.c **** 
 641:Drivers/STM32F0xx_HAL_Driver/Src/stm32f0xx_hal_tim_ex.c ****   /* Enable the Capture compare channel N */
 642:Drivers/STM32F0xx_HAL_Driver/Src/stm32f0xx_hal_tim_ex.c ****   TIM_CCxNChannelCmd(htim->Instance, Channel, TIM_CCxN_ENABLE);
 1523              		.loc 1 642 3 is_stmt 1
 1524 00a2 7B68     		ldr	r3, [r7, #4]
 1525 00a4 1B68     		ldr	r3, [r3]
 1526 00a6 3968     		ldr	r1, [r7]
 1527 00a8 0422     		movs	r2, #4
 1528 00aa 1800     		movs	r0, r3
 1529 00ac FFF7FEFF 		bl	TIM_CCxNChannelCmd
 643:Drivers/STM32F0xx_HAL_Driver/Src/stm32f0xx_hal_tim_ex.c **** 
 644:Drivers/STM32F0xx_HAL_Driver/Src/stm32f0xx_hal_tim_ex.c ****   /* Enable the Main Output */
 645:Drivers/STM32F0xx_HAL_Driver/Src/stm32f0xx_hal_tim_ex.c ****   __HAL_TIM_MOE_ENABLE(htim);
 1530              		.loc 1 645 3
 1531 00b0 7B68     		ldr	r3, [r7, #4]
 1532 00b2 1B68     		ldr	r3, [r3]
 1533 00b4 5A6C     		ldr	r2, [r3, #68]
 1534 00b6 7B68     		ldr	r3, [r7, #4]
 1535 00b8 1B68     		ldr	r3, [r3]
 1536 00ba 8021     		movs	r1, #128
 1537 00bc 0902     		lsls	r1, r1, #8
ARM GAS  /var/folders/d0/cymppscj10lcmm48h781wrc80000gn/T//cc0qcKWW.s 			page 39


 1538 00be 0A43     		orrs	r2, r1
 1539 00c0 5A64     		str	r2, [r3, #68]
 646:Drivers/STM32F0xx_HAL_Driver/Src/stm32f0xx_hal_tim_ex.c **** 
 647:Drivers/STM32F0xx_HAL_Driver/Src/stm32f0xx_hal_tim_ex.c ****   /* Enable the Peripheral, except in trigger mode where enable is automatically done with trigger 
 648:Drivers/STM32F0xx_HAL_Driver/Src/stm32f0xx_hal_tim_ex.c ****   if (IS_TIM_SLAVE_INSTANCE(htim->Instance))
 1540              		.loc 1 648 7
 1541 00c2 7B68     		ldr	r3, [r7, #4]
 1542 00c4 1B68     		ldr	r3, [r3]
 1543              		.loc 1 648 6
 1544 00c6 164A     		ldr	r2, .L86
 1545 00c8 9342     		cmp	r3, r2
 1546 00ca 09D0     		beq	.L82
 1547              		.loc 1 648 7 discriminator 1
 1548 00cc 7B68     		ldr	r3, [r7, #4]
 1549 00ce 1B68     		ldr	r3, [r3]
 1550 00d0 144A     		ldr	r2, .L86+4
 1551 00d2 9342     		cmp	r3, r2
 1552 00d4 04D0     		beq	.L82
 1553              		.loc 1 648 7 is_stmt 0 discriminator 2
 1554 00d6 7B68     		ldr	r3, [r7, #4]
 1555 00d8 1B68     		ldr	r3, [r3]
 1556 00da 134A     		ldr	r2, .L86+8
 1557 00dc 9342     		cmp	r3, r2
 1558 00de 11D1     		bne	.L83
 1559              	.L82:
 649:Drivers/STM32F0xx_HAL_Driver/Src/stm32f0xx_hal_tim_ex.c ****   {
 650:Drivers/STM32F0xx_HAL_Driver/Src/stm32f0xx_hal_tim_ex.c ****     tmpsmcr = htim->Instance->SMCR & TIM_SMCR_SMS;
 1560              		.loc 1 650 19 is_stmt 1
 1561 00e0 7B68     		ldr	r3, [r7, #4]
 1562 00e2 1B68     		ldr	r3, [r3]
 1563              		.loc 1 650 29
 1564 00e4 9B68     		ldr	r3, [r3, #8]
 1565              		.loc 1 650 13
 1566 00e6 0722     		movs	r2, #7
 1567 00e8 1340     		ands	r3, r2
 1568 00ea FB60     		str	r3, [r7, #12]
 651:Drivers/STM32F0xx_HAL_Driver/Src/stm32f0xx_hal_tim_ex.c ****     if (!IS_TIM_SLAVEMODE_TRIGGER_ENABLED(tmpsmcr))
 1569              		.loc 1 651 8
 1570 00ec FB68     		ldr	r3, [r7, #12]
 1571 00ee 062B     		cmp	r3, #6
 1572 00f0 10D0     		beq	.L85
 652:Drivers/STM32F0xx_HAL_Driver/Src/stm32f0xx_hal_tim_ex.c ****     {
 653:Drivers/STM32F0xx_HAL_Driver/Src/stm32f0xx_hal_tim_ex.c ****       __HAL_TIM_ENABLE(htim);
 1573              		.loc 1 653 7
 1574 00f2 7B68     		ldr	r3, [r7, #4]
 1575 00f4 1B68     		ldr	r3, [r3]
 1576 00f6 1A68     		ldr	r2, [r3]
 1577 00f8 7B68     		ldr	r3, [r7, #4]
 1578 00fa 1B68     		ldr	r3, [r3]
 1579 00fc 0121     		movs	r1, #1
 1580 00fe 0A43     		orrs	r2, r1
 1581 0100 1A60     		str	r2, [r3]
 651:Drivers/STM32F0xx_HAL_Driver/Src/stm32f0xx_hal_tim_ex.c ****     if (!IS_TIM_SLAVEMODE_TRIGGER_ENABLED(tmpsmcr))
 1582              		.loc 1 651 8
 1583 0102 07E0     		b	.L85
 1584              	.L83:
 654:Drivers/STM32F0xx_HAL_Driver/Src/stm32f0xx_hal_tim_ex.c ****     }
ARM GAS  /var/folders/d0/cymppscj10lcmm48h781wrc80000gn/T//cc0qcKWW.s 			page 40


 655:Drivers/STM32F0xx_HAL_Driver/Src/stm32f0xx_hal_tim_ex.c ****   }
 656:Drivers/STM32F0xx_HAL_Driver/Src/stm32f0xx_hal_tim_ex.c ****   else
 657:Drivers/STM32F0xx_HAL_Driver/Src/stm32f0xx_hal_tim_ex.c ****   {
 658:Drivers/STM32F0xx_HAL_Driver/Src/stm32f0xx_hal_tim_ex.c ****     __HAL_TIM_ENABLE(htim);
 1585              		.loc 1 658 5
 1586 0104 7B68     		ldr	r3, [r7, #4]
 1587 0106 1B68     		ldr	r3, [r3]
 1588 0108 1A68     		ldr	r2, [r3]
 1589 010a 7B68     		ldr	r3, [r7, #4]
 1590 010c 1B68     		ldr	r3, [r3]
 1591 010e 0121     		movs	r1, #1
 1592 0110 0A43     		orrs	r2, r1
 1593 0112 1A60     		str	r2, [r3]
 1594              	.L85:
 659:Drivers/STM32F0xx_HAL_Driver/Src/stm32f0xx_hal_tim_ex.c ****   }
 660:Drivers/STM32F0xx_HAL_Driver/Src/stm32f0xx_hal_tim_ex.c **** 
 661:Drivers/STM32F0xx_HAL_Driver/Src/stm32f0xx_hal_tim_ex.c ****   /* Return function status */
 662:Drivers/STM32F0xx_HAL_Driver/Src/stm32f0xx_hal_tim_ex.c ****   return HAL_OK;
 1595              		.loc 1 662 10
 1596 0114 0023     		movs	r3, #0
 1597              	.L75:
 663:Drivers/STM32F0xx_HAL_Driver/Src/stm32f0xx_hal_tim_ex.c **** }
 1598              		.loc 1 663 1
 1599 0116 1800     		movs	r0, r3
 1600 0118 BD46     		mov	sp, r7
 1601 011a 04B0     		add	sp, sp, #16
 1602              		@ sp needed
 1603 011c 80BD     		pop	{r7, pc}
 1604              	.L87:
 1605 011e C046     		.align	2
 1606              	.L86:
 1607 0120 002C0140 		.word	1073818624
 1608 0124 00040040 		.word	1073742848
 1609 0128 00400140 		.word	1073823744
 1610              		.cfi_endproc
 1611              	.LFE50:
 1613              		.section	.text.HAL_TIMEx_OCN_Stop,"ax",%progbits
 1614              		.align	1
 1615              		.global	HAL_TIMEx_OCN_Stop
 1616              		.syntax unified
 1617              		.code	16
 1618              		.thumb_func
 1620              	HAL_TIMEx_OCN_Stop:
 1621              	.LFB51:
 664:Drivers/STM32F0xx_HAL_Driver/Src/stm32f0xx_hal_tim_ex.c **** 
 665:Drivers/STM32F0xx_HAL_Driver/Src/stm32f0xx_hal_tim_ex.c **** /**
 666:Drivers/STM32F0xx_HAL_Driver/Src/stm32f0xx_hal_tim_ex.c ****   * @brief  Stops the TIM Output Compare signal generation on the complementary
 667:Drivers/STM32F0xx_HAL_Driver/Src/stm32f0xx_hal_tim_ex.c ****   *         output.
 668:Drivers/STM32F0xx_HAL_Driver/Src/stm32f0xx_hal_tim_ex.c ****   * @param  htim TIM handle
 669:Drivers/STM32F0xx_HAL_Driver/Src/stm32f0xx_hal_tim_ex.c ****   * @param  Channel TIM Channel to be disabled
 670:Drivers/STM32F0xx_HAL_Driver/Src/stm32f0xx_hal_tim_ex.c ****   *          This parameter can be one of the following values:
 671:Drivers/STM32F0xx_HAL_Driver/Src/stm32f0xx_hal_tim_ex.c ****   *            @arg TIM_CHANNEL_1: TIM Channel 1 selected
 672:Drivers/STM32F0xx_HAL_Driver/Src/stm32f0xx_hal_tim_ex.c ****   *            @arg TIM_CHANNEL_2: TIM Channel 2 selected
 673:Drivers/STM32F0xx_HAL_Driver/Src/stm32f0xx_hal_tim_ex.c ****   *            @arg TIM_CHANNEL_3: TIM Channel 3 selected
 674:Drivers/STM32F0xx_HAL_Driver/Src/stm32f0xx_hal_tim_ex.c ****   * @retval HAL status
 675:Drivers/STM32F0xx_HAL_Driver/Src/stm32f0xx_hal_tim_ex.c ****   */
 676:Drivers/STM32F0xx_HAL_Driver/Src/stm32f0xx_hal_tim_ex.c **** HAL_StatusTypeDef HAL_TIMEx_OCN_Stop(TIM_HandleTypeDef *htim, uint32_t Channel)
ARM GAS  /var/folders/d0/cymppscj10lcmm48h781wrc80000gn/T//cc0qcKWW.s 			page 41


 677:Drivers/STM32F0xx_HAL_Driver/Src/stm32f0xx_hal_tim_ex.c **** {
 1622              		.loc 1 677 1
 1623              		.cfi_startproc
 1624              		@ args = 0, pretend = 0, frame = 8
 1625              		@ frame_needed = 1, uses_anonymous_args = 0
 1626 0000 80B5     		push	{r7, lr}
 1627              	.LCFI33:
 1628              		.cfi_def_cfa_offset 8
 1629              		.cfi_offset 7, -8
 1630              		.cfi_offset 14, -4
 1631 0002 82B0     		sub	sp, sp, #8
 1632              	.LCFI34:
 1633              		.cfi_def_cfa_offset 16
 1634 0004 00AF     		add	r7, sp, #0
 1635              	.LCFI35:
 1636              		.cfi_def_cfa_register 7
 1637 0006 7860     		str	r0, [r7, #4]
 1638 0008 3960     		str	r1, [r7]
 678:Drivers/STM32F0xx_HAL_Driver/Src/stm32f0xx_hal_tim_ex.c ****   /* Check the parameters */
 679:Drivers/STM32F0xx_HAL_Driver/Src/stm32f0xx_hal_tim_ex.c ****   assert_param(IS_TIM_CCXN_INSTANCE(htim->Instance, Channel));
 680:Drivers/STM32F0xx_HAL_Driver/Src/stm32f0xx_hal_tim_ex.c **** 
 681:Drivers/STM32F0xx_HAL_Driver/Src/stm32f0xx_hal_tim_ex.c ****   /* Disable the Capture compare channel N */
 682:Drivers/STM32F0xx_HAL_Driver/Src/stm32f0xx_hal_tim_ex.c ****   TIM_CCxNChannelCmd(htim->Instance, Channel, TIM_CCxN_DISABLE);
 1639              		.loc 1 682 3
 1640 000a 7B68     		ldr	r3, [r7, #4]
 1641 000c 1B68     		ldr	r3, [r3]
 1642 000e 3968     		ldr	r1, [r7]
 1643 0010 0022     		movs	r2, #0
 1644 0012 1800     		movs	r0, r3
 1645 0014 FFF7FEFF 		bl	TIM_CCxNChannelCmd
 683:Drivers/STM32F0xx_HAL_Driver/Src/stm32f0xx_hal_tim_ex.c **** 
 684:Drivers/STM32F0xx_HAL_Driver/Src/stm32f0xx_hal_tim_ex.c ****   /* Disable the Main Output */
 685:Drivers/STM32F0xx_HAL_Driver/Src/stm32f0xx_hal_tim_ex.c ****   __HAL_TIM_MOE_DISABLE(htim);
 1646              		.loc 1 685 3
 1647 0018 7B68     		ldr	r3, [r7, #4]
 1648 001a 1B68     		ldr	r3, [r3]
 1649 001c 1B6A     		ldr	r3, [r3, #32]
 1650 001e 234A     		ldr	r2, .L98
 1651 0020 1340     		ands	r3, r2
 1652 0022 0DD1     		bne	.L89
 1653              		.loc 1 685 3 is_stmt 0 discriminator 1
 1654 0024 7B68     		ldr	r3, [r7, #4]
 1655 0026 1B68     		ldr	r3, [r3]
 1656 0028 1B6A     		ldr	r3, [r3, #32]
 1657 002a 214A     		ldr	r2, .L98+4
 1658 002c 1340     		ands	r3, r2
 1659 002e 07D1     		bne	.L89
 1660              		.loc 1 685 3 discriminator 2
 1661 0030 7B68     		ldr	r3, [r7, #4]
 1662 0032 1B68     		ldr	r3, [r3]
 1663 0034 5A6C     		ldr	r2, [r3, #68]
 1664 0036 7B68     		ldr	r3, [r7, #4]
 1665 0038 1B68     		ldr	r3, [r3]
 1666 003a 1E49     		ldr	r1, .L98+8
 1667 003c 0A40     		ands	r2, r1
 1668 003e 5A64     		str	r2, [r3, #68]
 1669              	.L89:
ARM GAS  /var/folders/d0/cymppscj10lcmm48h781wrc80000gn/T//cc0qcKWW.s 			page 42


 686:Drivers/STM32F0xx_HAL_Driver/Src/stm32f0xx_hal_tim_ex.c **** 
 687:Drivers/STM32F0xx_HAL_Driver/Src/stm32f0xx_hal_tim_ex.c ****   /* Disable the Peripheral */
 688:Drivers/STM32F0xx_HAL_Driver/Src/stm32f0xx_hal_tim_ex.c ****   __HAL_TIM_DISABLE(htim);
 1670              		.loc 1 688 3 is_stmt 1
 1671 0040 7B68     		ldr	r3, [r7, #4]
 1672 0042 1B68     		ldr	r3, [r3]
 1673 0044 1B6A     		ldr	r3, [r3, #32]
 1674 0046 194A     		ldr	r2, .L98
 1675 0048 1340     		ands	r3, r2
 1676 004a 0DD1     		bne	.L90
 1677              		.loc 1 688 3 is_stmt 0 discriminator 1
 1678 004c 7B68     		ldr	r3, [r7, #4]
 1679 004e 1B68     		ldr	r3, [r3]
 1680 0050 1B6A     		ldr	r3, [r3, #32]
 1681 0052 174A     		ldr	r2, .L98+4
 1682 0054 1340     		ands	r3, r2
 1683 0056 07D1     		bne	.L90
 1684              		.loc 1 688 3 discriminator 2
 1685 0058 7B68     		ldr	r3, [r7, #4]
 1686 005a 1B68     		ldr	r3, [r3]
 1687 005c 1A68     		ldr	r2, [r3]
 1688 005e 7B68     		ldr	r3, [r7, #4]
 1689 0060 1B68     		ldr	r3, [r3]
 1690 0062 0121     		movs	r1, #1
 1691 0064 8A43     		bics	r2, r1
 1692 0066 1A60     		str	r2, [r3]
 1693              	.L90:
 689:Drivers/STM32F0xx_HAL_Driver/Src/stm32f0xx_hal_tim_ex.c **** 
 690:Drivers/STM32F0xx_HAL_Driver/Src/stm32f0xx_hal_tim_ex.c ****   /* Set the TIM complementary channel state */
 691:Drivers/STM32F0xx_HAL_Driver/Src/stm32f0xx_hal_tim_ex.c ****   TIM_CHANNEL_N_STATE_SET(htim, Channel, HAL_TIM_CHANNEL_STATE_READY);
 1694              		.loc 1 691 3 is_stmt 1
 1695 0068 3B68     		ldr	r3, [r7]
 1696 006a 002B     		cmp	r3, #0
 1697 006c 04D1     		bne	.L91
 1698              		.loc 1 691 3 is_stmt 0 discriminator 1
 1699 006e 7B68     		ldr	r3, [r7, #4]
 1700 0070 4222     		movs	r2, #66
 1701 0072 0121     		movs	r1, #1
 1702 0074 9954     		strb	r1, [r3, r2]
 1703 0076 13E0     		b	.L92
 1704              	.L91:
 1705              		.loc 1 691 3 discriminator 2
 1706 0078 3B68     		ldr	r3, [r7]
 1707 007a 042B     		cmp	r3, #4
 1708 007c 04D1     		bne	.L93
 1709              		.loc 1 691 3 discriminator 3
 1710 007e 7B68     		ldr	r3, [r7, #4]
 1711 0080 4322     		movs	r2, #67
 1712 0082 0121     		movs	r1, #1
 1713 0084 9954     		strb	r1, [r3, r2]
 1714 0086 0BE0     		b	.L92
 1715              	.L93:
 1716              		.loc 1 691 3 discriminator 4
 1717 0088 3B68     		ldr	r3, [r7]
 1718 008a 082B     		cmp	r3, #8
 1719 008c 04D1     		bne	.L95
 1720              		.loc 1 691 3 discriminator 6
ARM GAS  /var/folders/d0/cymppscj10lcmm48h781wrc80000gn/T//cc0qcKWW.s 			page 43


 1721 008e 7B68     		ldr	r3, [r7, #4]
 1722 0090 4422     		movs	r2, #68
 1723 0092 0121     		movs	r1, #1
 1724 0094 9954     		strb	r1, [r3, r2]
 1725 0096 03E0     		b	.L92
 1726              	.L95:
 1727              		.loc 1 691 3 discriminator 7
 1728 0098 7B68     		ldr	r3, [r7, #4]
 1729 009a 4522     		movs	r2, #69
 1730 009c 0121     		movs	r1, #1
 1731 009e 9954     		strb	r1, [r3, r2]
 1732              	.L92:
 692:Drivers/STM32F0xx_HAL_Driver/Src/stm32f0xx_hal_tim_ex.c **** 
 693:Drivers/STM32F0xx_HAL_Driver/Src/stm32f0xx_hal_tim_ex.c ****   /* Return function status */
 694:Drivers/STM32F0xx_HAL_Driver/Src/stm32f0xx_hal_tim_ex.c ****   return HAL_OK;
 1733              		.loc 1 694 10 is_stmt 1
 1734 00a0 0023     		movs	r3, #0
 695:Drivers/STM32F0xx_HAL_Driver/Src/stm32f0xx_hal_tim_ex.c **** }
 1735              		.loc 1 695 1
 1736 00a2 1800     		movs	r0, r3
 1737 00a4 BD46     		mov	sp, r7
 1738 00a6 02B0     		add	sp, sp, #8
 1739              		@ sp needed
 1740 00a8 80BD     		pop	{r7, pc}
 1741              	.L99:
 1742 00aa C046     		.align	2
 1743              	.L98:
 1744 00ac 11110000 		.word	4369
 1745 00b0 44040000 		.word	1092
 1746 00b4 FF7FFFFF 		.word	-32769
 1747              		.cfi_endproc
 1748              	.LFE51:
 1750              		.section	.text.HAL_TIMEx_OCN_Start_IT,"ax",%progbits
 1751              		.align	1
 1752              		.global	HAL_TIMEx_OCN_Start_IT
 1753              		.syntax unified
 1754              		.code	16
 1755              		.thumb_func
 1757              	HAL_TIMEx_OCN_Start_IT:
 1758              	.LFB52:
 696:Drivers/STM32F0xx_HAL_Driver/Src/stm32f0xx_hal_tim_ex.c **** 
 697:Drivers/STM32F0xx_HAL_Driver/Src/stm32f0xx_hal_tim_ex.c **** /**
 698:Drivers/STM32F0xx_HAL_Driver/Src/stm32f0xx_hal_tim_ex.c ****   * @brief  Starts the TIM Output Compare signal generation in interrupt mode
 699:Drivers/STM32F0xx_HAL_Driver/Src/stm32f0xx_hal_tim_ex.c ****   *         on the complementary output.
 700:Drivers/STM32F0xx_HAL_Driver/Src/stm32f0xx_hal_tim_ex.c ****   * @param  htim TIM OC handle
 701:Drivers/STM32F0xx_HAL_Driver/Src/stm32f0xx_hal_tim_ex.c ****   * @param  Channel TIM Channel to be enabled
 702:Drivers/STM32F0xx_HAL_Driver/Src/stm32f0xx_hal_tim_ex.c ****   *          This parameter can be one of the following values:
 703:Drivers/STM32F0xx_HAL_Driver/Src/stm32f0xx_hal_tim_ex.c ****   *            @arg TIM_CHANNEL_1: TIM Channel 1 selected
 704:Drivers/STM32F0xx_HAL_Driver/Src/stm32f0xx_hal_tim_ex.c ****   *            @arg TIM_CHANNEL_2: TIM Channel 2 selected
 705:Drivers/STM32F0xx_HAL_Driver/Src/stm32f0xx_hal_tim_ex.c ****   *            @arg TIM_CHANNEL_3: TIM Channel 3 selected
 706:Drivers/STM32F0xx_HAL_Driver/Src/stm32f0xx_hal_tim_ex.c ****   * @retval HAL status
 707:Drivers/STM32F0xx_HAL_Driver/Src/stm32f0xx_hal_tim_ex.c ****   */
 708:Drivers/STM32F0xx_HAL_Driver/Src/stm32f0xx_hal_tim_ex.c **** HAL_StatusTypeDef HAL_TIMEx_OCN_Start_IT(TIM_HandleTypeDef *htim, uint32_t Channel)
 709:Drivers/STM32F0xx_HAL_Driver/Src/stm32f0xx_hal_tim_ex.c **** {
 1759              		.loc 1 709 1
 1760              		.cfi_startproc
 1761              		@ args = 0, pretend = 0, frame = 16
ARM GAS  /var/folders/d0/cymppscj10lcmm48h781wrc80000gn/T//cc0qcKWW.s 			page 44


 1762              		@ frame_needed = 1, uses_anonymous_args = 0
 1763 0000 80B5     		push	{r7, lr}
 1764              	.LCFI36:
 1765              		.cfi_def_cfa_offset 8
 1766              		.cfi_offset 7, -8
 1767              		.cfi_offset 14, -4
 1768 0002 84B0     		sub	sp, sp, #16
 1769              	.LCFI37:
 1770              		.cfi_def_cfa_offset 24
 1771 0004 00AF     		add	r7, sp, #0
 1772              	.LCFI38:
 1773              		.cfi_def_cfa_register 7
 1774 0006 7860     		str	r0, [r7, #4]
 1775 0008 3960     		str	r1, [r7]
 710:Drivers/STM32F0xx_HAL_Driver/Src/stm32f0xx_hal_tim_ex.c ****   HAL_StatusTypeDef status = HAL_OK;
 1776              		.loc 1 710 21
 1777 000a 0F23     		movs	r3, #15
 1778 000c FB18     		adds	r3, r7, r3
 1779 000e 0022     		movs	r2, #0
 1780 0010 1A70     		strb	r2, [r3]
 711:Drivers/STM32F0xx_HAL_Driver/Src/stm32f0xx_hal_tim_ex.c ****   uint32_t tmpsmcr;
 712:Drivers/STM32F0xx_HAL_Driver/Src/stm32f0xx_hal_tim_ex.c **** 
 713:Drivers/STM32F0xx_HAL_Driver/Src/stm32f0xx_hal_tim_ex.c ****   /* Check the parameters */
 714:Drivers/STM32F0xx_HAL_Driver/Src/stm32f0xx_hal_tim_ex.c ****   assert_param(IS_TIM_CCXN_INSTANCE(htim->Instance, Channel));
 715:Drivers/STM32F0xx_HAL_Driver/Src/stm32f0xx_hal_tim_ex.c **** 
 716:Drivers/STM32F0xx_HAL_Driver/Src/stm32f0xx_hal_tim_ex.c ****   /* Check the TIM complementary channel state */
 717:Drivers/STM32F0xx_HAL_Driver/Src/stm32f0xx_hal_tim_ex.c ****   if (TIM_CHANNEL_N_STATE_GET(htim, Channel) != HAL_TIM_CHANNEL_STATE_READY)
 1781              		.loc 1 717 46
 1782 0012 3B68     		ldr	r3, [r7]
 1783 0014 002B     		cmp	r3, #0
 1784 0016 08D1     		bne	.L101
 1785              		.loc 1 717 7 discriminator 1
 1786 0018 7B68     		ldr	r3, [r7, #4]
 1787 001a 4222     		movs	r2, #66
 1788 001c 9B5C     		ldrb	r3, [r3, r2]
 1789 001e DBB2     		uxtb	r3, r3
 1790              		.loc 1 717 46 discriminator 1
 1791 0020 013B     		subs	r3, r3, #1
 1792 0022 5A1E     		subs	r2, r3, #1
 1793 0024 9341     		sbcs	r3, r3, r2
 1794 0026 DBB2     		uxtb	r3, r3
 1795 0028 1FE0     		b	.L102
 1796              	.L101:
 1797              		.loc 1 717 46 is_stmt 0 discriminator 2
 1798 002a 3B68     		ldr	r3, [r7]
 1799 002c 042B     		cmp	r3, #4
 1800 002e 08D1     		bne	.L103
 1801              		.loc 1 717 7 is_stmt 1 discriminator 4
 1802 0030 7B68     		ldr	r3, [r7, #4]
 1803 0032 4322     		movs	r2, #67
 1804 0034 9B5C     		ldrb	r3, [r3, r2]
 1805 0036 DBB2     		uxtb	r3, r3
 1806              		.loc 1 717 46 discriminator 4
 1807 0038 013B     		subs	r3, r3, #1
 1808 003a 5A1E     		subs	r2, r3, #1
 1809 003c 9341     		sbcs	r3, r3, r2
 1810 003e DBB2     		uxtb	r3, r3
ARM GAS  /var/folders/d0/cymppscj10lcmm48h781wrc80000gn/T//cc0qcKWW.s 			page 45


 1811 0040 13E0     		b	.L102
 1812              	.L103:
 1813              		.loc 1 717 46 is_stmt 0 discriminator 5
 1814 0042 3B68     		ldr	r3, [r7]
 1815 0044 082B     		cmp	r3, #8
 1816 0046 08D1     		bne	.L105
 1817              		.loc 1 717 7 is_stmt 1 discriminator 7
 1818 0048 7B68     		ldr	r3, [r7, #4]
 1819 004a 4422     		movs	r2, #68
 1820 004c 9B5C     		ldrb	r3, [r3, r2]
 1821 004e DBB2     		uxtb	r3, r3
 1822              		.loc 1 717 46 discriminator 7
 1823 0050 013B     		subs	r3, r3, #1
 1824 0052 5A1E     		subs	r2, r3, #1
 1825 0054 9341     		sbcs	r3, r3, r2
 1826 0056 DBB2     		uxtb	r3, r3
 1827 0058 07E0     		b	.L102
 1828              	.L105:
 1829              		.loc 1 717 7 discriminator 8
 1830 005a 7B68     		ldr	r3, [r7, #4]
 1831 005c 4522     		movs	r2, #69
 1832 005e 9B5C     		ldrb	r3, [r3, r2]
 1833 0060 DBB2     		uxtb	r3, r3
 1834              		.loc 1 717 46 discriminator 8
 1835 0062 013B     		subs	r3, r3, #1
 1836 0064 5A1E     		subs	r2, r3, #1
 1837 0066 9341     		sbcs	r3, r3, r2
 1838 0068 DBB2     		uxtb	r3, r3
 1839              	.L102:
 1840              		.loc 1 717 6 discriminator 12
 1841 006a 002B     		cmp	r3, #0
 1842 006c 01D0     		beq	.L107
 718:Drivers/STM32F0xx_HAL_Driver/Src/stm32f0xx_hal_tim_ex.c ****   {
 719:Drivers/STM32F0xx_HAL_Driver/Src/stm32f0xx_hal_tim_ex.c ****     return HAL_ERROR;
 1843              		.loc 1 719 12
 1844 006e 0123     		movs	r3, #1
 1845 0070 91E0     		b	.L108
 1846              	.L107:
 720:Drivers/STM32F0xx_HAL_Driver/Src/stm32f0xx_hal_tim_ex.c ****   }
 721:Drivers/STM32F0xx_HAL_Driver/Src/stm32f0xx_hal_tim_ex.c **** 
 722:Drivers/STM32F0xx_HAL_Driver/Src/stm32f0xx_hal_tim_ex.c ****   /* Set the TIM complementary channel state */
 723:Drivers/STM32F0xx_HAL_Driver/Src/stm32f0xx_hal_tim_ex.c ****   TIM_CHANNEL_N_STATE_SET(htim, Channel, HAL_TIM_CHANNEL_STATE_BUSY);
 1847              		.loc 1 723 3
 1848 0072 3B68     		ldr	r3, [r7]
 1849 0074 002B     		cmp	r3, #0
 1850 0076 04D1     		bne	.L109
 1851              		.loc 1 723 3 is_stmt 0 discriminator 1
 1852 0078 7B68     		ldr	r3, [r7, #4]
 1853 007a 4222     		movs	r2, #66
 1854 007c 0221     		movs	r1, #2
 1855 007e 9954     		strb	r1, [r3, r2]
 1856 0080 13E0     		b	.L110
 1857              	.L109:
 1858              		.loc 1 723 3 discriminator 2
 1859 0082 3B68     		ldr	r3, [r7]
 1860 0084 042B     		cmp	r3, #4
 1861 0086 04D1     		bne	.L111
ARM GAS  /var/folders/d0/cymppscj10lcmm48h781wrc80000gn/T//cc0qcKWW.s 			page 46


 1862              		.loc 1 723 3 discriminator 3
 1863 0088 7B68     		ldr	r3, [r7, #4]
 1864 008a 4322     		movs	r2, #67
 1865 008c 0221     		movs	r1, #2
 1866 008e 9954     		strb	r1, [r3, r2]
 1867 0090 0BE0     		b	.L110
 1868              	.L111:
 1869              		.loc 1 723 3 discriminator 4
 1870 0092 3B68     		ldr	r3, [r7]
 1871 0094 082B     		cmp	r3, #8
 1872 0096 04D1     		bne	.L113
 1873              		.loc 1 723 3 discriminator 6
 1874 0098 7B68     		ldr	r3, [r7, #4]
 1875 009a 4422     		movs	r2, #68
 1876 009c 0221     		movs	r1, #2
 1877 009e 9954     		strb	r1, [r3, r2]
 1878 00a0 03E0     		b	.L110
 1879              	.L113:
 1880              		.loc 1 723 3 discriminator 7
 1881 00a2 7B68     		ldr	r3, [r7, #4]
 1882 00a4 4522     		movs	r2, #69
 1883 00a6 0221     		movs	r1, #2
 1884 00a8 9954     		strb	r1, [r3, r2]
 1885              	.L110:
 724:Drivers/STM32F0xx_HAL_Driver/Src/stm32f0xx_hal_tim_ex.c **** 
 725:Drivers/STM32F0xx_HAL_Driver/Src/stm32f0xx_hal_tim_ex.c ****   switch (Channel)
 1886              		.loc 1 725 3 is_stmt 1
 1887 00aa 3B68     		ldr	r3, [r7]
 1888 00ac 082B     		cmp	r3, #8
 1889 00ae 1BD0     		beq	.L115
 1890 00b0 3B68     		ldr	r3, [r7]
 1891 00b2 082B     		cmp	r3, #8
 1892 00b4 21D8     		bhi	.L116
 1893 00b6 3B68     		ldr	r3, [r7]
 1894 00b8 002B     		cmp	r3, #0
 1895 00ba 03D0     		beq	.L117
 1896 00bc 3B68     		ldr	r3, [r7]
 1897 00be 042B     		cmp	r3, #4
 1898 00c0 09D0     		beq	.L118
 1899 00c2 1AE0     		b	.L116
 1900              	.L117:
 726:Drivers/STM32F0xx_HAL_Driver/Src/stm32f0xx_hal_tim_ex.c ****   {
 727:Drivers/STM32F0xx_HAL_Driver/Src/stm32f0xx_hal_tim_ex.c ****     case TIM_CHANNEL_1:
 728:Drivers/STM32F0xx_HAL_Driver/Src/stm32f0xx_hal_tim_ex.c ****     {
 729:Drivers/STM32F0xx_HAL_Driver/Src/stm32f0xx_hal_tim_ex.c ****       /* Enable the TIM Output Compare interrupt */
 730:Drivers/STM32F0xx_HAL_Driver/Src/stm32f0xx_hal_tim_ex.c ****       __HAL_TIM_ENABLE_IT(htim, TIM_IT_CC1);
 1901              		.loc 1 730 7
 1902 00c4 7B68     		ldr	r3, [r7, #4]
 1903 00c6 1B68     		ldr	r3, [r3]
 1904 00c8 DA68     		ldr	r2, [r3, #12]
 1905 00ca 7B68     		ldr	r3, [r7, #4]
 1906 00cc 1B68     		ldr	r3, [r3]
 1907 00ce 0221     		movs	r1, #2
 1908 00d0 0A43     		orrs	r2, r1
 1909 00d2 DA60     		str	r2, [r3, #12]
 731:Drivers/STM32F0xx_HAL_Driver/Src/stm32f0xx_hal_tim_ex.c ****       break;
 1910              		.loc 1 731 7
ARM GAS  /var/folders/d0/cymppscj10lcmm48h781wrc80000gn/T//cc0qcKWW.s 			page 47


 1911 00d4 16E0     		b	.L119
 1912              	.L118:
 732:Drivers/STM32F0xx_HAL_Driver/Src/stm32f0xx_hal_tim_ex.c ****     }
 733:Drivers/STM32F0xx_HAL_Driver/Src/stm32f0xx_hal_tim_ex.c **** 
 734:Drivers/STM32F0xx_HAL_Driver/Src/stm32f0xx_hal_tim_ex.c ****     case TIM_CHANNEL_2:
 735:Drivers/STM32F0xx_HAL_Driver/Src/stm32f0xx_hal_tim_ex.c ****     {
 736:Drivers/STM32F0xx_HAL_Driver/Src/stm32f0xx_hal_tim_ex.c ****       /* Enable the TIM Output Compare interrupt */
 737:Drivers/STM32F0xx_HAL_Driver/Src/stm32f0xx_hal_tim_ex.c ****       __HAL_TIM_ENABLE_IT(htim, TIM_IT_CC2);
 1913              		.loc 1 737 7
 1914 00d6 7B68     		ldr	r3, [r7, #4]
 1915 00d8 1B68     		ldr	r3, [r3]
 1916 00da DA68     		ldr	r2, [r3, #12]
 1917 00dc 7B68     		ldr	r3, [r7, #4]
 1918 00de 1B68     		ldr	r3, [r3]
 1919 00e0 0421     		movs	r1, #4
 1920 00e2 0A43     		orrs	r2, r1
 1921 00e4 DA60     		str	r2, [r3, #12]
 738:Drivers/STM32F0xx_HAL_Driver/Src/stm32f0xx_hal_tim_ex.c ****       break;
 1922              		.loc 1 738 7
 1923 00e6 0DE0     		b	.L119
 1924              	.L115:
 739:Drivers/STM32F0xx_HAL_Driver/Src/stm32f0xx_hal_tim_ex.c ****     }
 740:Drivers/STM32F0xx_HAL_Driver/Src/stm32f0xx_hal_tim_ex.c **** 
 741:Drivers/STM32F0xx_HAL_Driver/Src/stm32f0xx_hal_tim_ex.c ****     case TIM_CHANNEL_3:
 742:Drivers/STM32F0xx_HAL_Driver/Src/stm32f0xx_hal_tim_ex.c ****     {
 743:Drivers/STM32F0xx_HAL_Driver/Src/stm32f0xx_hal_tim_ex.c ****       /* Enable the TIM Output Compare interrupt */
 744:Drivers/STM32F0xx_HAL_Driver/Src/stm32f0xx_hal_tim_ex.c ****       __HAL_TIM_ENABLE_IT(htim, TIM_IT_CC3);
 1925              		.loc 1 744 7
 1926 00e8 7B68     		ldr	r3, [r7, #4]
 1927 00ea 1B68     		ldr	r3, [r3]
 1928 00ec DA68     		ldr	r2, [r3, #12]
 1929 00ee 7B68     		ldr	r3, [r7, #4]
 1930 00f0 1B68     		ldr	r3, [r3]
 1931 00f2 0821     		movs	r1, #8
 1932 00f4 0A43     		orrs	r2, r1
 1933 00f6 DA60     		str	r2, [r3, #12]
 745:Drivers/STM32F0xx_HAL_Driver/Src/stm32f0xx_hal_tim_ex.c ****       break;
 1934              		.loc 1 745 7
 1935 00f8 04E0     		b	.L119
 1936              	.L116:
 746:Drivers/STM32F0xx_HAL_Driver/Src/stm32f0xx_hal_tim_ex.c ****     }
 747:Drivers/STM32F0xx_HAL_Driver/Src/stm32f0xx_hal_tim_ex.c **** 
 748:Drivers/STM32F0xx_HAL_Driver/Src/stm32f0xx_hal_tim_ex.c **** 
 749:Drivers/STM32F0xx_HAL_Driver/Src/stm32f0xx_hal_tim_ex.c ****     default:
 750:Drivers/STM32F0xx_HAL_Driver/Src/stm32f0xx_hal_tim_ex.c ****       status = HAL_ERROR;
 1937              		.loc 1 750 14
 1938 00fa 0F23     		movs	r3, #15
 1939 00fc FB18     		adds	r3, r7, r3
 1940 00fe 0122     		movs	r2, #1
 1941 0100 1A70     		strb	r2, [r3]
 751:Drivers/STM32F0xx_HAL_Driver/Src/stm32f0xx_hal_tim_ex.c ****       break;
 1942              		.loc 1 751 7
 1943 0102 C046     		nop
 1944              	.L119:
 752:Drivers/STM32F0xx_HAL_Driver/Src/stm32f0xx_hal_tim_ex.c ****   }
 753:Drivers/STM32F0xx_HAL_Driver/Src/stm32f0xx_hal_tim_ex.c **** 
 754:Drivers/STM32F0xx_HAL_Driver/Src/stm32f0xx_hal_tim_ex.c ****   if (status == HAL_OK)
ARM GAS  /var/folders/d0/cymppscj10lcmm48h781wrc80000gn/T//cc0qcKWW.s 			page 48


 1945              		.loc 1 754 6
 1946 0104 0F23     		movs	r3, #15
 1947 0106 FB18     		adds	r3, r7, r3
 1948 0108 1B78     		ldrb	r3, [r3]
 1949 010a 002B     		cmp	r3, #0
 1950 010c 40D1     		bne	.L120
 755:Drivers/STM32F0xx_HAL_Driver/Src/stm32f0xx_hal_tim_ex.c ****   {
 756:Drivers/STM32F0xx_HAL_Driver/Src/stm32f0xx_hal_tim_ex.c ****     /* Enable the TIM Break interrupt */
 757:Drivers/STM32F0xx_HAL_Driver/Src/stm32f0xx_hal_tim_ex.c ****     __HAL_TIM_ENABLE_IT(htim, TIM_IT_BREAK);
 1951              		.loc 1 757 5
 1952 010e 7B68     		ldr	r3, [r7, #4]
 1953 0110 1B68     		ldr	r3, [r3]
 1954 0112 DA68     		ldr	r2, [r3, #12]
 1955 0114 7B68     		ldr	r3, [r7, #4]
 1956 0116 1B68     		ldr	r3, [r3]
 1957 0118 8021     		movs	r1, #128
 1958 011a 0A43     		orrs	r2, r1
 1959 011c DA60     		str	r2, [r3, #12]
 758:Drivers/STM32F0xx_HAL_Driver/Src/stm32f0xx_hal_tim_ex.c **** 
 759:Drivers/STM32F0xx_HAL_Driver/Src/stm32f0xx_hal_tim_ex.c ****     /* Enable the Capture compare channel N */
 760:Drivers/STM32F0xx_HAL_Driver/Src/stm32f0xx_hal_tim_ex.c ****     TIM_CCxNChannelCmd(htim->Instance, Channel, TIM_CCxN_ENABLE);
 1960              		.loc 1 760 5
 1961 011e 7B68     		ldr	r3, [r7, #4]
 1962 0120 1B68     		ldr	r3, [r3]
 1963 0122 3968     		ldr	r1, [r7]
 1964 0124 0422     		movs	r2, #4
 1965 0126 1800     		movs	r0, r3
 1966 0128 FFF7FEFF 		bl	TIM_CCxNChannelCmd
 761:Drivers/STM32F0xx_HAL_Driver/Src/stm32f0xx_hal_tim_ex.c **** 
 762:Drivers/STM32F0xx_HAL_Driver/Src/stm32f0xx_hal_tim_ex.c ****     /* Enable the Main Output */
 763:Drivers/STM32F0xx_HAL_Driver/Src/stm32f0xx_hal_tim_ex.c ****     __HAL_TIM_MOE_ENABLE(htim);
 1967              		.loc 1 763 5
 1968 012c 7B68     		ldr	r3, [r7, #4]
 1969 012e 1B68     		ldr	r3, [r3]
 1970 0130 5A6C     		ldr	r2, [r3, #68]
 1971 0132 7B68     		ldr	r3, [r7, #4]
 1972 0134 1B68     		ldr	r3, [r3]
 1973 0136 8021     		movs	r1, #128
 1974 0138 0902     		lsls	r1, r1, #8
 1975 013a 0A43     		orrs	r2, r1
 1976 013c 5A64     		str	r2, [r3, #68]
 764:Drivers/STM32F0xx_HAL_Driver/Src/stm32f0xx_hal_tim_ex.c **** 
 765:Drivers/STM32F0xx_HAL_Driver/Src/stm32f0xx_hal_tim_ex.c ****     /* Enable the Peripheral, except in trigger mode where enable is automatically done with trigge
 766:Drivers/STM32F0xx_HAL_Driver/Src/stm32f0xx_hal_tim_ex.c ****     if (IS_TIM_SLAVE_INSTANCE(htim->Instance))
 1977              		.loc 1 766 9
 1978 013e 7B68     		ldr	r3, [r7, #4]
 1979 0140 1B68     		ldr	r3, [r3]
 1980              		.loc 1 766 8
 1981 0142 174A     		ldr	r2, .L124
 1982 0144 9342     		cmp	r3, r2
 1983 0146 09D0     		beq	.L121
 1984              		.loc 1 766 9 discriminator 1
 1985 0148 7B68     		ldr	r3, [r7, #4]
 1986 014a 1B68     		ldr	r3, [r3]
 1987 014c 154A     		ldr	r2, .L124+4
 1988 014e 9342     		cmp	r3, r2
 1989 0150 04D0     		beq	.L121
ARM GAS  /var/folders/d0/cymppscj10lcmm48h781wrc80000gn/T//cc0qcKWW.s 			page 49


 1990              		.loc 1 766 9 is_stmt 0 discriminator 2
 1991 0152 7B68     		ldr	r3, [r7, #4]
 1992 0154 1B68     		ldr	r3, [r3]
 1993 0156 144A     		ldr	r2, .L124+8
 1994 0158 9342     		cmp	r3, r2
 1995 015a 11D1     		bne	.L122
 1996              	.L121:
 767:Drivers/STM32F0xx_HAL_Driver/Src/stm32f0xx_hal_tim_ex.c ****     {
 768:Drivers/STM32F0xx_HAL_Driver/Src/stm32f0xx_hal_tim_ex.c ****       tmpsmcr = htim->Instance->SMCR & TIM_SMCR_SMS;
 1997              		.loc 1 768 21 is_stmt 1
 1998 015c 7B68     		ldr	r3, [r7, #4]
 1999 015e 1B68     		ldr	r3, [r3]
 2000              		.loc 1 768 31
 2001 0160 9B68     		ldr	r3, [r3, #8]
 2002              		.loc 1 768 15
 2003 0162 0722     		movs	r2, #7
 2004 0164 1340     		ands	r3, r2
 2005 0166 BB60     		str	r3, [r7, #8]
 769:Drivers/STM32F0xx_HAL_Driver/Src/stm32f0xx_hal_tim_ex.c ****       if (!IS_TIM_SLAVEMODE_TRIGGER_ENABLED(tmpsmcr))
 2006              		.loc 1 769 10
 2007 0168 BB68     		ldr	r3, [r7, #8]
 2008 016a 062B     		cmp	r3, #6
 2009 016c 10D0     		beq	.L120
 770:Drivers/STM32F0xx_HAL_Driver/Src/stm32f0xx_hal_tim_ex.c ****       {
 771:Drivers/STM32F0xx_HAL_Driver/Src/stm32f0xx_hal_tim_ex.c ****         __HAL_TIM_ENABLE(htim);
 2010              		.loc 1 771 9
 2011 016e 7B68     		ldr	r3, [r7, #4]
 2012 0170 1B68     		ldr	r3, [r3]
 2013 0172 1A68     		ldr	r2, [r3]
 2014 0174 7B68     		ldr	r3, [r7, #4]
 2015 0176 1B68     		ldr	r3, [r3]
 2016 0178 0121     		movs	r1, #1
 2017 017a 0A43     		orrs	r2, r1
 2018 017c 1A60     		str	r2, [r3]
 769:Drivers/STM32F0xx_HAL_Driver/Src/stm32f0xx_hal_tim_ex.c ****       if (!IS_TIM_SLAVEMODE_TRIGGER_ENABLED(tmpsmcr))
 2019              		.loc 1 769 10
 2020 017e 07E0     		b	.L120
 2021              	.L122:
 772:Drivers/STM32F0xx_HAL_Driver/Src/stm32f0xx_hal_tim_ex.c ****       }
 773:Drivers/STM32F0xx_HAL_Driver/Src/stm32f0xx_hal_tim_ex.c ****     }
 774:Drivers/STM32F0xx_HAL_Driver/Src/stm32f0xx_hal_tim_ex.c ****     else
 775:Drivers/STM32F0xx_HAL_Driver/Src/stm32f0xx_hal_tim_ex.c ****     {
 776:Drivers/STM32F0xx_HAL_Driver/Src/stm32f0xx_hal_tim_ex.c ****       __HAL_TIM_ENABLE(htim);
 2022              		.loc 1 776 7
 2023 0180 7B68     		ldr	r3, [r7, #4]
 2024 0182 1B68     		ldr	r3, [r3]
 2025 0184 1A68     		ldr	r2, [r3]
 2026 0186 7B68     		ldr	r3, [r7, #4]
 2027 0188 1B68     		ldr	r3, [r3]
 2028 018a 0121     		movs	r1, #1
 2029 018c 0A43     		orrs	r2, r1
 2030 018e 1A60     		str	r2, [r3]
 2031              	.L120:
 777:Drivers/STM32F0xx_HAL_Driver/Src/stm32f0xx_hal_tim_ex.c ****     }
 778:Drivers/STM32F0xx_HAL_Driver/Src/stm32f0xx_hal_tim_ex.c ****   }
 779:Drivers/STM32F0xx_HAL_Driver/Src/stm32f0xx_hal_tim_ex.c **** 
 780:Drivers/STM32F0xx_HAL_Driver/Src/stm32f0xx_hal_tim_ex.c ****   /* Return function status */
ARM GAS  /var/folders/d0/cymppscj10lcmm48h781wrc80000gn/T//cc0qcKWW.s 			page 50


 781:Drivers/STM32F0xx_HAL_Driver/Src/stm32f0xx_hal_tim_ex.c ****   return status;
 2032              		.loc 1 781 10
 2033 0190 0F23     		movs	r3, #15
 2034 0192 FB18     		adds	r3, r7, r3
 2035 0194 1B78     		ldrb	r3, [r3]
 2036              	.L108:
 782:Drivers/STM32F0xx_HAL_Driver/Src/stm32f0xx_hal_tim_ex.c **** }
 2037              		.loc 1 782 1
 2038 0196 1800     		movs	r0, r3
 2039 0198 BD46     		mov	sp, r7
 2040 019a 04B0     		add	sp, sp, #16
 2041              		@ sp needed
 2042 019c 80BD     		pop	{r7, pc}
 2043              	.L125:
 2044 019e C046     		.align	2
 2045              	.L124:
 2046 01a0 002C0140 		.word	1073818624
 2047 01a4 00040040 		.word	1073742848
 2048 01a8 00400140 		.word	1073823744
 2049              		.cfi_endproc
 2050              	.LFE52:
 2052              		.section	.text.HAL_TIMEx_OCN_Stop_IT,"ax",%progbits
 2053              		.align	1
 2054              		.global	HAL_TIMEx_OCN_Stop_IT
 2055              		.syntax unified
 2056              		.code	16
 2057              		.thumb_func
 2059              	HAL_TIMEx_OCN_Stop_IT:
 2060              	.LFB53:
 783:Drivers/STM32F0xx_HAL_Driver/Src/stm32f0xx_hal_tim_ex.c **** 
 784:Drivers/STM32F0xx_HAL_Driver/Src/stm32f0xx_hal_tim_ex.c **** /**
 785:Drivers/STM32F0xx_HAL_Driver/Src/stm32f0xx_hal_tim_ex.c ****   * @brief  Stops the TIM Output Compare signal generation in interrupt mode
 786:Drivers/STM32F0xx_HAL_Driver/Src/stm32f0xx_hal_tim_ex.c ****   *         on the complementary output.
 787:Drivers/STM32F0xx_HAL_Driver/Src/stm32f0xx_hal_tim_ex.c ****   * @param  htim TIM Output Compare handle
 788:Drivers/STM32F0xx_HAL_Driver/Src/stm32f0xx_hal_tim_ex.c ****   * @param  Channel TIM Channel to be disabled
 789:Drivers/STM32F0xx_HAL_Driver/Src/stm32f0xx_hal_tim_ex.c ****   *          This parameter can be one of the following values:
 790:Drivers/STM32F0xx_HAL_Driver/Src/stm32f0xx_hal_tim_ex.c ****   *            @arg TIM_CHANNEL_1: TIM Channel 1 selected
 791:Drivers/STM32F0xx_HAL_Driver/Src/stm32f0xx_hal_tim_ex.c ****   *            @arg TIM_CHANNEL_2: TIM Channel 2 selected
 792:Drivers/STM32F0xx_HAL_Driver/Src/stm32f0xx_hal_tim_ex.c ****   *            @arg TIM_CHANNEL_3: TIM Channel 3 selected
 793:Drivers/STM32F0xx_HAL_Driver/Src/stm32f0xx_hal_tim_ex.c ****   * @retval HAL status
 794:Drivers/STM32F0xx_HAL_Driver/Src/stm32f0xx_hal_tim_ex.c ****   */
 795:Drivers/STM32F0xx_HAL_Driver/Src/stm32f0xx_hal_tim_ex.c **** HAL_StatusTypeDef HAL_TIMEx_OCN_Stop_IT(TIM_HandleTypeDef *htim, uint32_t Channel)
 796:Drivers/STM32F0xx_HAL_Driver/Src/stm32f0xx_hal_tim_ex.c **** {
 2061              		.loc 1 796 1
 2062              		.cfi_startproc
 2063              		@ args = 0, pretend = 0, frame = 16
 2064              		@ frame_needed = 1, uses_anonymous_args = 0
 2065 0000 80B5     		push	{r7, lr}
 2066              	.LCFI39:
 2067              		.cfi_def_cfa_offset 8
 2068              		.cfi_offset 7, -8
 2069              		.cfi_offset 14, -4
 2070 0002 84B0     		sub	sp, sp, #16
 2071              	.LCFI40:
 2072              		.cfi_def_cfa_offset 24
 2073 0004 00AF     		add	r7, sp, #0
 2074              	.LCFI41:
ARM GAS  /var/folders/d0/cymppscj10lcmm48h781wrc80000gn/T//cc0qcKWW.s 			page 51


 2075              		.cfi_def_cfa_register 7
 2076 0006 7860     		str	r0, [r7, #4]
 2077 0008 3960     		str	r1, [r7]
 797:Drivers/STM32F0xx_HAL_Driver/Src/stm32f0xx_hal_tim_ex.c ****   HAL_StatusTypeDef status = HAL_OK;
 2078              		.loc 1 797 21
 2079 000a 0F23     		movs	r3, #15
 2080 000c FB18     		adds	r3, r7, r3
 2081 000e 0022     		movs	r2, #0
 2082 0010 1A70     		strb	r2, [r3]
 798:Drivers/STM32F0xx_HAL_Driver/Src/stm32f0xx_hal_tim_ex.c ****   uint32_t tmpccer;
 799:Drivers/STM32F0xx_HAL_Driver/Src/stm32f0xx_hal_tim_ex.c **** 
 800:Drivers/STM32F0xx_HAL_Driver/Src/stm32f0xx_hal_tim_ex.c ****   /* Check the parameters */
 801:Drivers/STM32F0xx_HAL_Driver/Src/stm32f0xx_hal_tim_ex.c ****   assert_param(IS_TIM_CCXN_INSTANCE(htim->Instance, Channel));
 802:Drivers/STM32F0xx_HAL_Driver/Src/stm32f0xx_hal_tim_ex.c **** 
 803:Drivers/STM32F0xx_HAL_Driver/Src/stm32f0xx_hal_tim_ex.c ****   switch (Channel)
 2083              		.loc 1 803 3
 2084 0012 3B68     		ldr	r3, [r7]
 2085 0014 082B     		cmp	r3, #8
 2086 0016 1BD0     		beq	.L127
 2087 0018 3B68     		ldr	r3, [r7]
 2088 001a 082B     		cmp	r3, #8
 2089 001c 21D8     		bhi	.L128
 2090 001e 3B68     		ldr	r3, [r7]
 2091 0020 002B     		cmp	r3, #0
 2092 0022 03D0     		beq	.L129
 2093 0024 3B68     		ldr	r3, [r7]
 2094 0026 042B     		cmp	r3, #4
 2095 0028 09D0     		beq	.L130
 2096 002a 1AE0     		b	.L128
 2097              	.L129:
 804:Drivers/STM32F0xx_HAL_Driver/Src/stm32f0xx_hal_tim_ex.c ****   {
 805:Drivers/STM32F0xx_HAL_Driver/Src/stm32f0xx_hal_tim_ex.c ****     case TIM_CHANNEL_1:
 806:Drivers/STM32F0xx_HAL_Driver/Src/stm32f0xx_hal_tim_ex.c ****     {
 807:Drivers/STM32F0xx_HAL_Driver/Src/stm32f0xx_hal_tim_ex.c ****       /* Disable the TIM Output Compare interrupt */
 808:Drivers/STM32F0xx_HAL_Driver/Src/stm32f0xx_hal_tim_ex.c ****       __HAL_TIM_DISABLE_IT(htim, TIM_IT_CC1);
 2098              		.loc 1 808 7
 2099 002c 7B68     		ldr	r3, [r7, #4]
 2100 002e 1B68     		ldr	r3, [r3]
 2101 0030 DA68     		ldr	r2, [r3, #12]
 2102 0032 7B68     		ldr	r3, [r7, #4]
 2103 0034 1B68     		ldr	r3, [r3]
 2104 0036 0221     		movs	r1, #2
 2105 0038 8A43     		bics	r2, r1
 2106 003a DA60     		str	r2, [r3, #12]
 809:Drivers/STM32F0xx_HAL_Driver/Src/stm32f0xx_hal_tim_ex.c ****       break;
 2107              		.loc 1 809 7
 2108 003c 16E0     		b	.L131
 2109              	.L130:
 810:Drivers/STM32F0xx_HAL_Driver/Src/stm32f0xx_hal_tim_ex.c ****     }
 811:Drivers/STM32F0xx_HAL_Driver/Src/stm32f0xx_hal_tim_ex.c **** 
 812:Drivers/STM32F0xx_HAL_Driver/Src/stm32f0xx_hal_tim_ex.c ****     case TIM_CHANNEL_2:
 813:Drivers/STM32F0xx_HAL_Driver/Src/stm32f0xx_hal_tim_ex.c ****     {
 814:Drivers/STM32F0xx_HAL_Driver/Src/stm32f0xx_hal_tim_ex.c ****       /* Disable the TIM Output Compare interrupt */
 815:Drivers/STM32F0xx_HAL_Driver/Src/stm32f0xx_hal_tim_ex.c ****       __HAL_TIM_DISABLE_IT(htim, TIM_IT_CC2);
 2110              		.loc 1 815 7
 2111 003e 7B68     		ldr	r3, [r7, #4]
 2112 0040 1B68     		ldr	r3, [r3]
ARM GAS  /var/folders/d0/cymppscj10lcmm48h781wrc80000gn/T//cc0qcKWW.s 			page 52


 2113 0042 DA68     		ldr	r2, [r3, #12]
 2114 0044 7B68     		ldr	r3, [r7, #4]
 2115 0046 1B68     		ldr	r3, [r3]
 2116 0048 0421     		movs	r1, #4
 2117 004a 8A43     		bics	r2, r1
 2118 004c DA60     		str	r2, [r3, #12]
 816:Drivers/STM32F0xx_HAL_Driver/Src/stm32f0xx_hal_tim_ex.c ****       break;
 2119              		.loc 1 816 7
 2120 004e 0DE0     		b	.L131
 2121              	.L127:
 817:Drivers/STM32F0xx_HAL_Driver/Src/stm32f0xx_hal_tim_ex.c ****     }
 818:Drivers/STM32F0xx_HAL_Driver/Src/stm32f0xx_hal_tim_ex.c **** 
 819:Drivers/STM32F0xx_HAL_Driver/Src/stm32f0xx_hal_tim_ex.c ****     case TIM_CHANNEL_3:
 820:Drivers/STM32F0xx_HAL_Driver/Src/stm32f0xx_hal_tim_ex.c ****     {
 821:Drivers/STM32F0xx_HAL_Driver/Src/stm32f0xx_hal_tim_ex.c ****       /* Disable the TIM Output Compare interrupt */
 822:Drivers/STM32F0xx_HAL_Driver/Src/stm32f0xx_hal_tim_ex.c ****       __HAL_TIM_DISABLE_IT(htim, TIM_IT_CC3);
 2122              		.loc 1 822 7
 2123 0050 7B68     		ldr	r3, [r7, #4]
 2124 0052 1B68     		ldr	r3, [r3]
 2125 0054 DA68     		ldr	r2, [r3, #12]
 2126 0056 7B68     		ldr	r3, [r7, #4]
 2127 0058 1B68     		ldr	r3, [r3]
 2128 005a 0821     		movs	r1, #8
 2129 005c 8A43     		bics	r2, r1
 2130 005e DA60     		str	r2, [r3, #12]
 823:Drivers/STM32F0xx_HAL_Driver/Src/stm32f0xx_hal_tim_ex.c ****       break;
 2131              		.loc 1 823 7
 2132 0060 04E0     		b	.L131
 2133              	.L128:
 824:Drivers/STM32F0xx_HAL_Driver/Src/stm32f0xx_hal_tim_ex.c ****     }
 825:Drivers/STM32F0xx_HAL_Driver/Src/stm32f0xx_hal_tim_ex.c **** 
 826:Drivers/STM32F0xx_HAL_Driver/Src/stm32f0xx_hal_tim_ex.c ****     default:
 827:Drivers/STM32F0xx_HAL_Driver/Src/stm32f0xx_hal_tim_ex.c ****       status = HAL_ERROR;
 2134              		.loc 1 827 14
 2135 0062 0F23     		movs	r3, #15
 2136 0064 FB18     		adds	r3, r7, r3
 2137 0066 0122     		movs	r2, #1
 2138 0068 1A70     		strb	r2, [r3]
 828:Drivers/STM32F0xx_HAL_Driver/Src/stm32f0xx_hal_tim_ex.c ****       break;
 2139              		.loc 1 828 7
 2140 006a C046     		nop
 2141              	.L131:
 829:Drivers/STM32F0xx_HAL_Driver/Src/stm32f0xx_hal_tim_ex.c ****   }
 830:Drivers/STM32F0xx_HAL_Driver/Src/stm32f0xx_hal_tim_ex.c **** 
 831:Drivers/STM32F0xx_HAL_Driver/Src/stm32f0xx_hal_tim_ex.c ****   if (status == HAL_OK)
 2142              		.loc 1 831 6
 2143 006c 0F23     		movs	r3, #15
 2144 006e FB18     		adds	r3, r7, r3
 2145 0070 1B78     		ldrb	r3, [r3]
 2146 0072 002B     		cmp	r3, #0
 2147 0074 5AD1     		bne	.L132
 832:Drivers/STM32F0xx_HAL_Driver/Src/stm32f0xx_hal_tim_ex.c ****   {
 833:Drivers/STM32F0xx_HAL_Driver/Src/stm32f0xx_hal_tim_ex.c ****     /* Disable the Capture compare channel N */
 834:Drivers/STM32F0xx_HAL_Driver/Src/stm32f0xx_hal_tim_ex.c ****     TIM_CCxNChannelCmd(htim->Instance, Channel, TIM_CCxN_DISABLE);
 2148              		.loc 1 834 5
 2149 0076 7B68     		ldr	r3, [r7, #4]
 2150 0078 1B68     		ldr	r3, [r3]
ARM GAS  /var/folders/d0/cymppscj10lcmm48h781wrc80000gn/T//cc0qcKWW.s 			page 53


 2151 007a 3968     		ldr	r1, [r7]
 2152 007c 0022     		movs	r2, #0
 2153 007e 1800     		movs	r0, r3
 2154 0080 FFF7FEFF 		bl	TIM_CCxNChannelCmd
 835:Drivers/STM32F0xx_HAL_Driver/Src/stm32f0xx_hal_tim_ex.c **** 
 836:Drivers/STM32F0xx_HAL_Driver/Src/stm32f0xx_hal_tim_ex.c ****     /* Disable the TIM Break interrupt (only if no more channel is active) */
 837:Drivers/STM32F0xx_HAL_Driver/Src/stm32f0xx_hal_tim_ex.c ****     tmpccer = htim->Instance->CCER;
 2155              		.loc 1 837 19
 2156 0084 7B68     		ldr	r3, [r7, #4]
 2157 0086 1B68     		ldr	r3, [r3]
 2158              		.loc 1 837 13
 2159 0088 1B6A     		ldr	r3, [r3, #32]
 2160 008a BB60     		str	r3, [r7, #8]
 838:Drivers/STM32F0xx_HAL_Driver/Src/stm32f0xx_hal_tim_ex.c ****     if ((tmpccer & (TIM_CCER_CC1NE | TIM_CCER_CC2NE | TIM_CCER_CC3NE)) == (uint32_t)RESET)
 2161              		.loc 1 838 18
 2162 008c BB68     		ldr	r3, [r7, #8]
 2163 008e 2B4A     		ldr	r2, .L142
 2164 0090 1340     		ands	r3, r2
 2165              		.loc 1 838 8
 2166 0092 07D1     		bne	.L133
 839:Drivers/STM32F0xx_HAL_Driver/Src/stm32f0xx_hal_tim_ex.c ****     {
 840:Drivers/STM32F0xx_HAL_Driver/Src/stm32f0xx_hal_tim_ex.c ****       __HAL_TIM_DISABLE_IT(htim, TIM_IT_BREAK);
 2167              		.loc 1 840 7
 2168 0094 7B68     		ldr	r3, [r7, #4]
 2169 0096 1B68     		ldr	r3, [r3]
 2170 0098 DA68     		ldr	r2, [r3, #12]
 2171 009a 7B68     		ldr	r3, [r7, #4]
 2172 009c 1B68     		ldr	r3, [r3]
 2173 009e 8021     		movs	r1, #128
 2174 00a0 8A43     		bics	r2, r1
 2175 00a2 DA60     		str	r2, [r3, #12]
 2176              	.L133:
 841:Drivers/STM32F0xx_HAL_Driver/Src/stm32f0xx_hal_tim_ex.c ****     }
 842:Drivers/STM32F0xx_HAL_Driver/Src/stm32f0xx_hal_tim_ex.c **** 
 843:Drivers/STM32F0xx_HAL_Driver/Src/stm32f0xx_hal_tim_ex.c ****     /* Disable the Main Output */
 844:Drivers/STM32F0xx_HAL_Driver/Src/stm32f0xx_hal_tim_ex.c ****     __HAL_TIM_MOE_DISABLE(htim);
 2177              		.loc 1 844 5
 2178 00a4 7B68     		ldr	r3, [r7, #4]
 2179 00a6 1B68     		ldr	r3, [r3]
 2180 00a8 1B6A     		ldr	r3, [r3, #32]
 2181 00aa 254A     		ldr	r2, .L142+4
 2182 00ac 1340     		ands	r3, r2
 2183 00ae 0DD1     		bne	.L134
 2184              		.loc 1 844 5 is_stmt 0 discriminator 1
 2185 00b0 7B68     		ldr	r3, [r7, #4]
 2186 00b2 1B68     		ldr	r3, [r3]
 2187 00b4 1B6A     		ldr	r3, [r3, #32]
 2188 00b6 214A     		ldr	r2, .L142
 2189 00b8 1340     		ands	r3, r2
 2190 00ba 07D1     		bne	.L134
 2191              		.loc 1 844 5 discriminator 2
 2192 00bc 7B68     		ldr	r3, [r7, #4]
 2193 00be 1B68     		ldr	r3, [r3]
 2194 00c0 5A6C     		ldr	r2, [r3, #68]
 2195 00c2 7B68     		ldr	r3, [r7, #4]
 2196 00c4 1B68     		ldr	r3, [r3]
 2197 00c6 1F49     		ldr	r1, .L142+8
ARM GAS  /var/folders/d0/cymppscj10lcmm48h781wrc80000gn/T//cc0qcKWW.s 			page 54


 2198 00c8 0A40     		ands	r2, r1
 2199 00ca 5A64     		str	r2, [r3, #68]
 2200              	.L134:
 845:Drivers/STM32F0xx_HAL_Driver/Src/stm32f0xx_hal_tim_ex.c **** 
 846:Drivers/STM32F0xx_HAL_Driver/Src/stm32f0xx_hal_tim_ex.c ****     /* Disable the Peripheral */
 847:Drivers/STM32F0xx_HAL_Driver/Src/stm32f0xx_hal_tim_ex.c ****     __HAL_TIM_DISABLE(htim);
 2201              		.loc 1 847 5 is_stmt 1
 2202 00cc 7B68     		ldr	r3, [r7, #4]
 2203 00ce 1B68     		ldr	r3, [r3]
 2204 00d0 1B6A     		ldr	r3, [r3, #32]
 2205 00d2 1B4A     		ldr	r2, .L142+4
 2206 00d4 1340     		ands	r3, r2
 2207 00d6 0DD1     		bne	.L135
 2208              		.loc 1 847 5 is_stmt 0 discriminator 1
 2209 00d8 7B68     		ldr	r3, [r7, #4]
 2210 00da 1B68     		ldr	r3, [r3]
 2211 00dc 1B6A     		ldr	r3, [r3, #32]
 2212 00de 174A     		ldr	r2, .L142
 2213 00e0 1340     		ands	r3, r2
 2214 00e2 07D1     		bne	.L135
 2215              		.loc 1 847 5 discriminator 2
 2216 00e4 7B68     		ldr	r3, [r7, #4]
 2217 00e6 1B68     		ldr	r3, [r3]
 2218 00e8 1A68     		ldr	r2, [r3]
 2219 00ea 7B68     		ldr	r3, [r7, #4]
 2220 00ec 1B68     		ldr	r3, [r3]
 2221 00ee 0121     		movs	r1, #1
 2222 00f0 8A43     		bics	r2, r1
 2223 00f2 1A60     		str	r2, [r3]
 2224              	.L135:
 848:Drivers/STM32F0xx_HAL_Driver/Src/stm32f0xx_hal_tim_ex.c **** 
 849:Drivers/STM32F0xx_HAL_Driver/Src/stm32f0xx_hal_tim_ex.c ****     /* Set the TIM complementary channel state */
 850:Drivers/STM32F0xx_HAL_Driver/Src/stm32f0xx_hal_tim_ex.c ****     TIM_CHANNEL_N_STATE_SET(htim, Channel, HAL_TIM_CHANNEL_STATE_READY);
 2225              		.loc 1 850 5 is_stmt 1
 2226 00f4 3B68     		ldr	r3, [r7]
 2227 00f6 002B     		cmp	r3, #0
 2228 00f8 04D1     		bne	.L136
 2229              		.loc 1 850 5 is_stmt 0 discriminator 1
 2230 00fa 7B68     		ldr	r3, [r7, #4]
 2231 00fc 4222     		movs	r2, #66
 2232 00fe 0121     		movs	r1, #1
 2233 0100 9954     		strb	r1, [r3, r2]
 2234 0102 13E0     		b	.L132
 2235              	.L136:
 2236              		.loc 1 850 5 discriminator 2
 2237 0104 3B68     		ldr	r3, [r7]
 2238 0106 042B     		cmp	r3, #4
 2239 0108 04D1     		bne	.L137
 2240              		.loc 1 850 5 discriminator 3
 2241 010a 7B68     		ldr	r3, [r7, #4]
 2242 010c 4322     		movs	r2, #67
 2243 010e 0121     		movs	r1, #1
 2244 0110 9954     		strb	r1, [r3, r2]
 2245 0112 0BE0     		b	.L132
 2246              	.L137:
 2247              		.loc 1 850 5 discriminator 4
 2248 0114 3B68     		ldr	r3, [r7]
ARM GAS  /var/folders/d0/cymppscj10lcmm48h781wrc80000gn/T//cc0qcKWW.s 			page 55


 2249 0116 082B     		cmp	r3, #8
 2250 0118 04D1     		bne	.L139
 2251              		.loc 1 850 5 discriminator 6
 2252 011a 7B68     		ldr	r3, [r7, #4]
 2253 011c 4422     		movs	r2, #68
 2254 011e 0121     		movs	r1, #1
 2255 0120 9954     		strb	r1, [r3, r2]
 2256 0122 03E0     		b	.L132
 2257              	.L139:
 2258              		.loc 1 850 5 discriminator 7
 2259 0124 7B68     		ldr	r3, [r7, #4]
 2260 0126 4522     		movs	r2, #69
 2261 0128 0121     		movs	r1, #1
 2262 012a 9954     		strb	r1, [r3, r2]
 2263              	.L132:
 851:Drivers/STM32F0xx_HAL_Driver/Src/stm32f0xx_hal_tim_ex.c ****   }
 852:Drivers/STM32F0xx_HAL_Driver/Src/stm32f0xx_hal_tim_ex.c **** 
 853:Drivers/STM32F0xx_HAL_Driver/Src/stm32f0xx_hal_tim_ex.c ****   /* Return function status */
 854:Drivers/STM32F0xx_HAL_Driver/Src/stm32f0xx_hal_tim_ex.c ****   return status;
 2264              		.loc 1 854 10 is_stmt 1
 2265 012c 0F23     		movs	r3, #15
 2266 012e FB18     		adds	r3, r7, r3
 2267 0130 1B78     		ldrb	r3, [r3]
 855:Drivers/STM32F0xx_HAL_Driver/Src/stm32f0xx_hal_tim_ex.c **** }
 2268              		.loc 1 855 1
 2269 0132 1800     		movs	r0, r3
 2270 0134 BD46     		mov	sp, r7
 2271 0136 04B0     		add	sp, sp, #16
 2272              		@ sp needed
 2273 0138 80BD     		pop	{r7, pc}
 2274              	.L143:
 2275 013a C046     		.align	2
 2276              	.L142:
 2277 013c 44040000 		.word	1092
 2278 0140 11110000 		.word	4369
 2279 0144 FF7FFFFF 		.word	-32769
 2280              		.cfi_endproc
 2281              	.LFE53:
 2283              		.section	.text.HAL_TIMEx_OCN_Start_DMA,"ax",%progbits
 2284              		.align	1
 2285              		.global	HAL_TIMEx_OCN_Start_DMA
 2286              		.syntax unified
 2287              		.code	16
 2288              		.thumb_func
 2290              	HAL_TIMEx_OCN_Start_DMA:
 2291              	.LFB54:
 856:Drivers/STM32F0xx_HAL_Driver/Src/stm32f0xx_hal_tim_ex.c **** 
 857:Drivers/STM32F0xx_HAL_Driver/Src/stm32f0xx_hal_tim_ex.c **** /**
 858:Drivers/STM32F0xx_HAL_Driver/Src/stm32f0xx_hal_tim_ex.c ****   * @brief  Starts the TIM Output Compare signal generation in DMA mode
 859:Drivers/STM32F0xx_HAL_Driver/Src/stm32f0xx_hal_tim_ex.c ****   *         on the complementary output.
 860:Drivers/STM32F0xx_HAL_Driver/Src/stm32f0xx_hal_tim_ex.c ****   * @param  htim TIM Output Compare handle
 861:Drivers/STM32F0xx_HAL_Driver/Src/stm32f0xx_hal_tim_ex.c ****   * @param  Channel TIM Channel to be enabled
 862:Drivers/STM32F0xx_HAL_Driver/Src/stm32f0xx_hal_tim_ex.c ****   *          This parameter can be one of the following values:
 863:Drivers/STM32F0xx_HAL_Driver/Src/stm32f0xx_hal_tim_ex.c ****   *            @arg TIM_CHANNEL_1: TIM Channel 1 selected
 864:Drivers/STM32F0xx_HAL_Driver/Src/stm32f0xx_hal_tim_ex.c ****   *            @arg TIM_CHANNEL_2: TIM Channel 2 selected
 865:Drivers/STM32F0xx_HAL_Driver/Src/stm32f0xx_hal_tim_ex.c ****   *            @arg TIM_CHANNEL_3: TIM Channel 3 selected
 866:Drivers/STM32F0xx_HAL_Driver/Src/stm32f0xx_hal_tim_ex.c ****   * @param  pData The source Buffer address.
ARM GAS  /var/folders/d0/cymppscj10lcmm48h781wrc80000gn/T//cc0qcKWW.s 			page 56


 867:Drivers/STM32F0xx_HAL_Driver/Src/stm32f0xx_hal_tim_ex.c ****   * @param  Length The length of data to be transferred from memory to TIM peripheral
 868:Drivers/STM32F0xx_HAL_Driver/Src/stm32f0xx_hal_tim_ex.c ****   * @retval HAL status
 869:Drivers/STM32F0xx_HAL_Driver/Src/stm32f0xx_hal_tim_ex.c ****   */
 870:Drivers/STM32F0xx_HAL_Driver/Src/stm32f0xx_hal_tim_ex.c **** HAL_StatusTypeDef HAL_TIMEx_OCN_Start_DMA(TIM_HandleTypeDef *htim, uint32_t Channel, uint32_t *pDat
 871:Drivers/STM32F0xx_HAL_Driver/Src/stm32f0xx_hal_tim_ex.c **** {
 2292              		.loc 1 871 1
 2293              		.cfi_startproc
 2294              		@ args = 0, pretend = 0, frame = 24
 2295              		@ frame_needed = 1, uses_anonymous_args = 0
 2296 0000 80B5     		push	{r7, lr}
 2297              	.LCFI42:
 2298              		.cfi_def_cfa_offset 8
 2299              		.cfi_offset 7, -8
 2300              		.cfi_offset 14, -4
 2301 0002 86B0     		sub	sp, sp, #24
 2302              	.LCFI43:
 2303              		.cfi_def_cfa_offset 32
 2304 0004 00AF     		add	r7, sp, #0
 2305              	.LCFI44:
 2306              		.cfi_def_cfa_register 7
 2307 0006 F860     		str	r0, [r7, #12]
 2308 0008 B960     		str	r1, [r7, #8]
 2309 000a 7A60     		str	r2, [r7, #4]
 2310 000c 1A00     		movs	r2, r3
 2311 000e BB1C     		adds	r3, r7, #2
 2312 0010 1A80     		strh	r2, [r3]
 872:Drivers/STM32F0xx_HAL_Driver/Src/stm32f0xx_hal_tim_ex.c ****   HAL_StatusTypeDef status = HAL_OK;
 2313              		.loc 1 872 21
 2314 0012 1723     		movs	r3, #23
 2315 0014 FB18     		adds	r3, r7, r3
 2316 0016 0022     		movs	r2, #0
 2317 0018 1A70     		strb	r2, [r3]
 873:Drivers/STM32F0xx_HAL_Driver/Src/stm32f0xx_hal_tim_ex.c ****   uint32_t tmpsmcr;
 874:Drivers/STM32F0xx_HAL_Driver/Src/stm32f0xx_hal_tim_ex.c **** 
 875:Drivers/STM32F0xx_HAL_Driver/Src/stm32f0xx_hal_tim_ex.c ****   /* Check the parameters */
 876:Drivers/STM32F0xx_HAL_Driver/Src/stm32f0xx_hal_tim_ex.c ****   assert_param(IS_TIM_CCXN_INSTANCE(htim->Instance, Channel));
 877:Drivers/STM32F0xx_HAL_Driver/Src/stm32f0xx_hal_tim_ex.c **** 
 878:Drivers/STM32F0xx_HAL_Driver/Src/stm32f0xx_hal_tim_ex.c ****   /* Set the TIM complementary channel state */
 879:Drivers/STM32F0xx_HAL_Driver/Src/stm32f0xx_hal_tim_ex.c ****   if (TIM_CHANNEL_N_STATE_GET(htim, Channel) == HAL_TIM_CHANNEL_STATE_BUSY)
 2318              		.loc 1 879 46
 2319 001a BB68     		ldr	r3, [r7, #8]
 2320 001c 002B     		cmp	r3, #0
 2321 001e 08D1     		bne	.L145
 2322              		.loc 1 879 7 discriminator 1
 2323 0020 FB68     		ldr	r3, [r7, #12]
 2324 0022 4222     		movs	r2, #66
 2325 0024 9B5C     		ldrb	r3, [r3, r2]
 2326 0026 DBB2     		uxtb	r3, r3
 2327              		.loc 1 879 46 discriminator 1
 2328 0028 023B     		subs	r3, r3, #2
 2329 002a 5A42     		rsbs	r2, r3, #0
 2330 002c 5341     		adcs	r3, r3, r2
 2331 002e DBB2     		uxtb	r3, r3
 2332 0030 1FE0     		b	.L146
 2333              	.L145:
 2334              		.loc 1 879 46 is_stmt 0 discriminator 2
 2335 0032 BB68     		ldr	r3, [r7, #8]
ARM GAS  /var/folders/d0/cymppscj10lcmm48h781wrc80000gn/T//cc0qcKWW.s 			page 57


 2336 0034 042B     		cmp	r3, #4
 2337 0036 08D1     		bne	.L147
 2338              		.loc 1 879 7 is_stmt 1 discriminator 4
 2339 0038 FB68     		ldr	r3, [r7, #12]
 2340 003a 4322     		movs	r2, #67
 2341 003c 9B5C     		ldrb	r3, [r3, r2]
 2342 003e DBB2     		uxtb	r3, r3
 2343              		.loc 1 879 46 discriminator 4
 2344 0040 023B     		subs	r3, r3, #2
 2345 0042 5A42     		rsbs	r2, r3, #0
 2346 0044 5341     		adcs	r3, r3, r2
 2347 0046 DBB2     		uxtb	r3, r3
 2348 0048 13E0     		b	.L146
 2349              	.L147:
 2350              		.loc 1 879 46 is_stmt 0 discriminator 5
 2351 004a BB68     		ldr	r3, [r7, #8]
 2352 004c 082B     		cmp	r3, #8
 2353 004e 08D1     		bne	.L149
 2354              		.loc 1 879 7 is_stmt 1 discriminator 7
 2355 0050 FB68     		ldr	r3, [r7, #12]
 2356 0052 4422     		movs	r2, #68
 2357 0054 9B5C     		ldrb	r3, [r3, r2]
 2358 0056 DBB2     		uxtb	r3, r3
 2359              		.loc 1 879 46 discriminator 7
 2360 0058 023B     		subs	r3, r3, #2
 2361 005a 5A42     		rsbs	r2, r3, #0
 2362 005c 5341     		adcs	r3, r3, r2
 2363 005e DBB2     		uxtb	r3, r3
 2364 0060 07E0     		b	.L146
 2365              	.L149:
 2366              		.loc 1 879 7 discriminator 8
 2367 0062 FB68     		ldr	r3, [r7, #12]
 2368 0064 4522     		movs	r2, #69
 2369 0066 9B5C     		ldrb	r3, [r3, r2]
 2370 0068 DBB2     		uxtb	r3, r3
 2371              		.loc 1 879 46 discriminator 8
 2372 006a 023B     		subs	r3, r3, #2
 2373 006c 5A42     		rsbs	r2, r3, #0
 2374 006e 5341     		adcs	r3, r3, r2
 2375 0070 DBB2     		uxtb	r3, r3
 2376              	.L146:
 2377              		.loc 1 879 6 discriminator 12
 2378 0072 002B     		cmp	r3, #0
 2379 0074 01D0     		beq	.L151
 880:Drivers/STM32F0xx_HAL_Driver/Src/stm32f0xx_hal_tim_ex.c ****   {
 881:Drivers/STM32F0xx_HAL_Driver/Src/stm32f0xx_hal_tim_ex.c ****     return HAL_BUSY;
 2380              		.loc 1 881 12
 2381 0076 0223     		movs	r3, #2
 2382 0078 18E1     		b	.L152
 2383              	.L151:
 882:Drivers/STM32F0xx_HAL_Driver/Src/stm32f0xx_hal_tim_ex.c ****   }
 883:Drivers/STM32F0xx_HAL_Driver/Src/stm32f0xx_hal_tim_ex.c ****   else if (TIM_CHANNEL_N_STATE_GET(htim, Channel) == HAL_TIM_CHANNEL_STATE_READY)
 2384              		.loc 1 883 51
 2385 007a BB68     		ldr	r3, [r7, #8]
 2386 007c 002B     		cmp	r3, #0
 2387 007e 08D1     		bne	.L153
 2388              		.loc 1 883 12 discriminator 1
ARM GAS  /var/folders/d0/cymppscj10lcmm48h781wrc80000gn/T//cc0qcKWW.s 			page 58


 2389 0080 FB68     		ldr	r3, [r7, #12]
 2390 0082 4222     		movs	r2, #66
 2391 0084 9B5C     		ldrb	r3, [r3, r2]
 2392 0086 DBB2     		uxtb	r3, r3
 2393              		.loc 1 883 51 discriminator 1
 2394 0088 013B     		subs	r3, r3, #1
 2395 008a 5A42     		rsbs	r2, r3, #0
 2396 008c 5341     		adcs	r3, r3, r2
 2397 008e DBB2     		uxtb	r3, r3
 2398 0090 1FE0     		b	.L154
 2399              	.L153:
 2400              		.loc 1 883 51 is_stmt 0 discriminator 2
 2401 0092 BB68     		ldr	r3, [r7, #8]
 2402 0094 042B     		cmp	r3, #4
 2403 0096 08D1     		bne	.L155
 2404              		.loc 1 883 12 is_stmt 1 discriminator 4
 2405 0098 FB68     		ldr	r3, [r7, #12]
 2406 009a 4322     		movs	r2, #67
 2407 009c 9B5C     		ldrb	r3, [r3, r2]
 2408 009e DBB2     		uxtb	r3, r3
 2409              		.loc 1 883 51 discriminator 4
 2410 00a0 013B     		subs	r3, r3, #1
 2411 00a2 5A42     		rsbs	r2, r3, #0
 2412 00a4 5341     		adcs	r3, r3, r2
 2413 00a6 DBB2     		uxtb	r3, r3
 2414 00a8 13E0     		b	.L154
 2415              	.L155:
 2416              		.loc 1 883 51 is_stmt 0 discriminator 5
 2417 00aa BB68     		ldr	r3, [r7, #8]
 2418 00ac 082B     		cmp	r3, #8
 2419 00ae 08D1     		bne	.L157
 2420              		.loc 1 883 12 is_stmt 1 discriminator 7
 2421 00b0 FB68     		ldr	r3, [r7, #12]
 2422 00b2 4422     		movs	r2, #68
 2423 00b4 9B5C     		ldrb	r3, [r3, r2]
 2424 00b6 DBB2     		uxtb	r3, r3
 2425              		.loc 1 883 51 discriminator 7
 2426 00b8 013B     		subs	r3, r3, #1
 2427 00ba 5A42     		rsbs	r2, r3, #0
 2428 00bc 5341     		adcs	r3, r3, r2
 2429 00be DBB2     		uxtb	r3, r3
 2430 00c0 07E0     		b	.L154
 2431              	.L157:
 2432              		.loc 1 883 12 discriminator 8
 2433 00c2 FB68     		ldr	r3, [r7, #12]
 2434 00c4 4522     		movs	r2, #69
 2435 00c6 9B5C     		ldrb	r3, [r3, r2]
 2436 00c8 DBB2     		uxtb	r3, r3
 2437              		.loc 1 883 51 discriminator 8
 2438 00ca 013B     		subs	r3, r3, #1
 2439 00cc 5A42     		rsbs	r2, r3, #0
 2440 00ce 5341     		adcs	r3, r3, r2
 2441 00d0 DBB2     		uxtb	r3, r3
 2442              	.L154:
 2443              		.loc 1 883 11 discriminator 12
 2444 00d2 002B     		cmp	r3, #0
 2445 00d4 25D0     		beq	.L159
ARM GAS  /var/folders/d0/cymppscj10lcmm48h781wrc80000gn/T//cc0qcKWW.s 			page 59


 884:Drivers/STM32F0xx_HAL_Driver/Src/stm32f0xx_hal_tim_ex.c ****   {
 885:Drivers/STM32F0xx_HAL_Driver/Src/stm32f0xx_hal_tim_ex.c ****     if ((pData == NULL) && (Length > 0U))
 2446              		.loc 1 885 8
 2447 00d6 7B68     		ldr	r3, [r7, #4]
 2448 00d8 002B     		cmp	r3, #0
 2449 00da 05D1     		bne	.L160
 2450              		.loc 1 885 25 discriminator 1
 2451 00dc BB1C     		adds	r3, r7, #2
 2452 00de 1B88     		ldrh	r3, [r3]
 2453 00e0 002B     		cmp	r3, #0
 2454 00e2 01D0     		beq	.L160
 886:Drivers/STM32F0xx_HAL_Driver/Src/stm32f0xx_hal_tim_ex.c ****     {
 887:Drivers/STM32F0xx_HAL_Driver/Src/stm32f0xx_hal_tim_ex.c ****       return HAL_ERROR;
 2455              		.loc 1 887 14
 2456 00e4 0123     		movs	r3, #1
 2457 00e6 E1E0     		b	.L152
 2458              	.L160:
 888:Drivers/STM32F0xx_HAL_Driver/Src/stm32f0xx_hal_tim_ex.c ****     }
 889:Drivers/STM32F0xx_HAL_Driver/Src/stm32f0xx_hal_tim_ex.c ****     else
 890:Drivers/STM32F0xx_HAL_Driver/Src/stm32f0xx_hal_tim_ex.c ****     {
 891:Drivers/STM32F0xx_HAL_Driver/Src/stm32f0xx_hal_tim_ex.c ****       TIM_CHANNEL_N_STATE_SET(htim, Channel, HAL_TIM_CHANNEL_STATE_BUSY);
 2459              		.loc 1 891 7
 2460 00e8 BB68     		ldr	r3, [r7, #8]
 2461 00ea 002B     		cmp	r3, #0
 2462 00ec 04D1     		bne	.L161
 2463              		.loc 1 891 7 is_stmt 0 discriminator 1
 2464 00ee FB68     		ldr	r3, [r7, #12]
 2465 00f0 4222     		movs	r2, #66
 2466 00f2 0221     		movs	r1, #2
 2467 00f4 9954     		strb	r1, [r3, r2]
 2468 00f6 16E0     		b	.L162
 2469              	.L161:
 2470              		.loc 1 891 7 discriminator 2
 2471 00f8 BB68     		ldr	r3, [r7, #8]
 2472 00fa 042B     		cmp	r3, #4
 2473 00fc 04D1     		bne	.L163
 2474              		.loc 1 891 7 discriminator 3
 2475 00fe FB68     		ldr	r3, [r7, #12]
 2476 0100 4322     		movs	r2, #67
 2477 0102 0221     		movs	r1, #2
 2478 0104 9954     		strb	r1, [r3, r2]
 2479 0106 0EE0     		b	.L162
 2480              	.L163:
 2481              		.loc 1 891 7 discriminator 4
 2482 0108 BB68     		ldr	r3, [r7, #8]
 2483 010a 082B     		cmp	r3, #8
 2484 010c 04D1     		bne	.L165
 2485              		.loc 1 891 7 discriminator 6
 2486 010e FB68     		ldr	r3, [r7, #12]
 2487 0110 4422     		movs	r2, #68
 2488 0112 0221     		movs	r1, #2
 2489 0114 9954     		strb	r1, [r3, r2]
 2490 0116 06E0     		b	.L162
 2491              	.L165:
 2492              		.loc 1 891 7 discriminator 7
 2493 0118 FB68     		ldr	r3, [r7, #12]
 2494 011a 4522     		movs	r2, #69
ARM GAS  /var/folders/d0/cymppscj10lcmm48h781wrc80000gn/T//cc0qcKWW.s 			page 60


 2495 011c 0221     		movs	r1, #2
 2496 011e 9954     		strb	r1, [r3, r2]
 2497 0120 01E0     		b	.L162
 2498              	.L159:
 892:Drivers/STM32F0xx_HAL_Driver/Src/stm32f0xx_hal_tim_ex.c ****     }
 893:Drivers/STM32F0xx_HAL_Driver/Src/stm32f0xx_hal_tim_ex.c ****   }
 894:Drivers/STM32F0xx_HAL_Driver/Src/stm32f0xx_hal_tim_ex.c ****   else
 895:Drivers/STM32F0xx_HAL_Driver/Src/stm32f0xx_hal_tim_ex.c ****   {
 896:Drivers/STM32F0xx_HAL_Driver/Src/stm32f0xx_hal_tim_ex.c ****     return HAL_ERROR;
 2499              		.loc 1 896 12 is_stmt 1
 2500 0122 0123     		movs	r3, #1
 2501 0124 C2E0     		b	.L152
 2502              	.L162:
 897:Drivers/STM32F0xx_HAL_Driver/Src/stm32f0xx_hal_tim_ex.c ****   }
 898:Drivers/STM32F0xx_HAL_Driver/Src/stm32f0xx_hal_tim_ex.c **** 
 899:Drivers/STM32F0xx_HAL_Driver/Src/stm32f0xx_hal_tim_ex.c ****   switch (Channel)
 2503              		.loc 1 899 3
 2504 0126 BB68     		ldr	r3, [r7, #8]
 2505 0128 082B     		cmp	r3, #8
 2506 012a 54D0     		beq	.L167
 2507 012c BB68     		ldr	r3, [r7, #8]
 2508 012e 082B     		cmp	r3, #8
 2509 0130 00D9     		bls	.LCB2204
 2510 0132 75E0     		b	.L168	@long jump
 2511              	.LCB2204:
 2512 0134 BB68     		ldr	r3, [r7, #8]
 2513 0136 002B     		cmp	r3, #0
 2514 0138 03D0     		beq	.L169
 2515 013a BB68     		ldr	r3, [r7, #8]
 2516 013c 042B     		cmp	r3, #4
 2517 013e 25D0     		beq	.L170
 2518 0140 6EE0     		b	.L168
 2519              	.L169:
 900:Drivers/STM32F0xx_HAL_Driver/Src/stm32f0xx_hal_tim_ex.c ****   {
 901:Drivers/STM32F0xx_HAL_Driver/Src/stm32f0xx_hal_tim_ex.c ****     case TIM_CHANNEL_1:
 902:Drivers/STM32F0xx_HAL_Driver/Src/stm32f0xx_hal_tim_ex.c ****     {
 903:Drivers/STM32F0xx_HAL_Driver/Src/stm32f0xx_hal_tim_ex.c ****       /* Set the DMA compare callbacks */
 904:Drivers/STM32F0xx_HAL_Driver/Src/stm32f0xx_hal_tim_ex.c ****       htim->hdma[TIM_DMA_ID_CC1]->XferCpltCallback = TIM_DMADelayPulseNCplt;
 2520              		.loc 1 904 17
 2521 0142 FB68     		ldr	r3, [r7, #12]
 2522 0144 5B6A     		ldr	r3, [r3, #36]
 2523              		.loc 1 904 52
 2524 0146 5B4A     		ldr	r2, .L179
 2525 0148 9A62     		str	r2, [r3, #40]
 905:Drivers/STM32F0xx_HAL_Driver/Src/stm32f0xx_hal_tim_ex.c ****       htim->hdma[TIM_DMA_ID_CC1]->XferHalfCpltCallback = TIM_DMADelayPulseHalfCplt;
 2526              		.loc 1 905 17
 2527 014a FB68     		ldr	r3, [r7, #12]
 2528 014c 5B6A     		ldr	r3, [r3, #36]
 2529              		.loc 1 905 56
 2530 014e 5A4A     		ldr	r2, .L179+4
 2531 0150 DA62     		str	r2, [r3, #44]
 906:Drivers/STM32F0xx_HAL_Driver/Src/stm32f0xx_hal_tim_ex.c **** 
 907:Drivers/STM32F0xx_HAL_Driver/Src/stm32f0xx_hal_tim_ex.c ****       /* Set the DMA error callback */
 908:Drivers/STM32F0xx_HAL_Driver/Src/stm32f0xx_hal_tim_ex.c ****       htim->hdma[TIM_DMA_ID_CC1]->XferErrorCallback = TIM_DMAErrorCCxN ;
 2532              		.loc 1 908 17
 2533 0152 FB68     		ldr	r3, [r7, #12]
 2534 0154 5B6A     		ldr	r3, [r3, #36]
ARM GAS  /var/folders/d0/cymppscj10lcmm48h781wrc80000gn/T//cc0qcKWW.s 			page 61


 2535              		.loc 1 908 53
 2536 0156 594A     		ldr	r2, .L179+8
 2537 0158 1A63     		str	r2, [r3, #48]
 909:Drivers/STM32F0xx_HAL_Driver/Src/stm32f0xx_hal_tim_ex.c **** 
 910:Drivers/STM32F0xx_HAL_Driver/Src/stm32f0xx_hal_tim_ex.c ****       /* Enable the DMA channel */
 911:Drivers/STM32F0xx_HAL_Driver/Src/stm32f0xx_hal_tim_ex.c ****       if (HAL_DMA_Start_IT(htim->hdma[TIM_DMA_ID_CC1], (uint32_t)pData, (uint32_t)&htim->Instance->
 2538              		.loc 1 911 11
 2539 015a FB68     		ldr	r3, [r7, #12]
 2540 015c 586A     		ldr	r0, [r3, #36]
 2541 015e 7968     		ldr	r1, [r7, #4]
 2542              		.loc 1 911 88
 2543 0160 FB68     		ldr	r3, [r7, #12]
 2544 0162 1B68     		ldr	r3, [r3]
 2545              		.loc 1 911 83
 2546 0164 3433     		adds	r3, r3, #52
 2547              		.loc 1 911 11
 2548 0166 1A00     		movs	r2, r3
 2549 0168 BB1C     		adds	r3, r7, #2
 2550 016a 1B88     		ldrh	r3, [r3]
 2551 016c FFF7FEFF 		bl	HAL_DMA_Start_IT
 2552 0170 031E     		subs	r3, r0, #0
 2553              		.loc 1 911 10
 2554 0172 01D0     		beq	.L171
 912:Drivers/STM32F0xx_HAL_Driver/Src/stm32f0xx_hal_tim_ex.c ****                            Length) != HAL_OK)
 913:Drivers/STM32F0xx_HAL_Driver/Src/stm32f0xx_hal_tim_ex.c ****       {
 914:Drivers/STM32F0xx_HAL_Driver/Src/stm32f0xx_hal_tim_ex.c ****         /* Return error status */
 915:Drivers/STM32F0xx_HAL_Driver/Src/stm32f0xx_hal_tim_ex.c ****         return HAL_ERROR;
 2555              		.loc 1 915 16
 2556 0174 0123     		movs	r3, #1
 2557 0176 99E0     		b	.L152
 2558              	.L171:
 916:Drivers/STM32F0xx_HAL_Driver/Src/stm32f0xx_hal_tim_ex.c ****       }
 917:Drivers/STM32F0xx_HAL_Driver/Src/stm32f0xx_hal_tim_ex.c ****       /* Enable the TIM Output Compare DMA request */
 918:Drivers/STM32F0xx_HAL_Driver/Src/stm32f0xx_hal_tim_ex.c ****       __HAL_TIM_ENABLE_DMA(htim, TIM_DMA_CC1);
 2559              		.loc 1 918 7
 2560 0178 FB68     		ldr	r3, [r7, #12]
 2561 017a 1B68     		ldr	r3, [r3]
 2562 017c DA68     		ldr	r2, [r3, #12]
 2563 017e FB68     		ldr	r3, [r7, #12]
 2564 0180 1B68     		ldr	r3, [r3]
 2565 0182 8021     		movs	r1, #128
 2566 0184 8900     		lsls	r1, r1, #2
 2567 0186 0A43     		orrs	r2, r1
 2568 0188 DA60     		str	r2, [r3, #12]
 919:Drivers/STM32F0xx_HAL_Driver/Src/stm32f0xx_hal_tim_ex.c ****       break;
 2569              		.loc 1 919 7
 2570 018a 4EE0     		b	.L172
 2571              	.L170:
 920:Drivers/STM32F0xx_HAL_Driver/Src/stm32f0xx_hal_tim_ex.c ****     }
 921:Drivers/STM32F0xx_HAL_Driver/Src/stm32f0xx_hal_tim_ex.c **** 
 922:Drivers/STM32F0xx_HAL_Driver/Src/stm32f0xx_hal_tim_ex.c ****     case TIM_CHANNEL_2:
 923:Drivers/STM32F0xx_HAL_Driver/Src/stm32f0xx_hal_tim_ex.c ****     {
 924:Drivers/STM32F0xx_HAL_Driver/Src/stm32f0xx_hal_tim_ex.c ****       /* Set the DMA compare callbacks */
 925:Drivers/STM32F0xx_HAL_Driver/Src/stm32f0xx_hal_tim_ex.c ****       htim->hdma[TIM_DMA_ID_CC2]->XferCpltCallback = TIM_DMADelayPulseNCplt;
 2572              		.loc 1 925 17
 2573 018c FB68     		ldr	r3, [r7, #12]
 2574 018e 9B6A     		ldr	r3, [r3, #40]
ARM GAS  /var/folders/d0/cymppscj10lcmm48h781wrc80000gn/T//cc0qcKWW.s 			page 62


 2575              		.loc 1 925 52
 2576 0190 484A     		ldr	r2, .L179
 2577 0192 9A62     		str	r2, [r3, #40]
 926:Drivers/STM32F0xx_HAL_Driver/Src/stm32f0xx_hal_tim_ex.c ****       htim->hdma[TIM_DMA_ID_CC2]->XferHalfCpltCallback = TIM_DMADelayPulseHalfCplt;
 2578              		.loc 1 926 17
 2579 0194 FB68     		ldr	r3, [r7, #12]
 2580 0196 9B6A     		ldr	r3, [r3, #40]
 2581              		.loc 1 926 56
 2582 0198 474A     		ldr	r2, .L179+4
 2583 019a DA62     		str	r2, [r3, #44]
 927:Drivers/STM32F0xx_HAL_Driver/Src/stm32f0xx_hal_tim_ex.c **** 
 928:Drivers/STM32F0xx_HAL_Driver/Src/stm32f0xx_hal_tim_ex.c ****       /* Set the DMA error callback */
 929:Drivers/STM32F0xx_HAL_Driver/Src/stm32f0xx_hal_tim_ex.c ****       htim->hdma[TIM_DMA_ID_CC2]->XferErrorCallback = TIM_DMAErrorCCxN ;
 2584              		.loc 1 929 17
 2585 019c FB68     		ldr	r3, [r7, #12]
 2586 019e 9B6A     		ldr	r3, [r3, #40]
 2587              		.loc 1 929 53
 2588 01a0 464A     		ldr	r2, .L179+8
 2589 01a2 1A63     		str	r2, [r3, #48]
 930:Drivers/STM32F0xx_HAL_Driver/Src/stm32f0xx_hal_tim_ex.c **** 
 931:Drivers/STM32F0xx_HAL_Driver/Src/stm32f0xx_hal_tim_ex.c ****       /* Enable the DMA channel */
 932:Drivers/STM32F0xx_HAL_Driver/Src/stm32f0xx_hal_tim_ex.c ****       if (HAL_DMA_Start_IT(htim->hdma[TIM_DMA_ID_CC2], (uint32_t)pData, (uint32_t)&htim->Instance->
 2590              		.loc 1 932 11
 2591 01a4 FB68     		ldr	r3, [r7, #12]
 2592 01a6 986A     		ldr	r0, [r3, #40]
 2593 01a8 7968     		ldr	r1, [r7, #4]
 2594              		.loc 1 932 88
 2595 01aa FB68     		ldr	r3, [r7, #12]
 2596 01ac 1B68     		ldr	r3, [r3]
 2597              		.loc 1 932 83
 2598 01ae 3833     		adds	r3, r3, #56
 2599              		.loc 1 932 11
 2600 01b0 1A00     		movs	r2, r3
 2601 01b2 BB1C     		adds	r3, r7, #2
 2602 01b4 1B88     		ldrh	r3, [r3]
 2603 01b6 FFF7FEFF 		bl	HAL_DMA_Start_IT
 2604 01ba 031E     		subs	r3, r0, #0
 2605              		.loc 1 932 10
 2606 01bc 01D0     		beq	.L173
 933:Drivers/STM32F0xx_HAL_Driver/Src/stm32f0xx_hal_tim_ex.c ****                            Length) != HAL_OK)
 934:Drivers/STM32F0xx_HAL_Driver/Src/stm32f0xx_hal_tim_ex.c ****       {
 935:Drivers/STM32F0xx_HAL_Driver/Src/stm32f0xx_hal_tim_ex.c ****         /* Return error status */
 936:Drivers/STM32F0xx_HAL_Driver/Src/stm32f0xx_hal_tim_ex.c ****         return HAL_ERROR;
 2607              		.loc 1 936 16
 2608 01be 0123     		movs	r3, #1
 2609 01c0 74E0     		b	.L152
 2610              	.L173:
 937:Drivers/STM32F0xx_HAL_Driver/Src/stm32f0xx_hal_tim_ex.c ****       }
 938:Drivers/STM32F0xx_HAL_Driver/Src/stm32f0xx_hal_tim_ex.c ****       /* Enable the TIM Output Compare DMA request */
 939:Drivers/STM32F0xx_HAL_Driver/Src/stm32f0xx_hal_tim_ex.c ****       __HAL_TIM_ENABLE_DMA(htim, TIM_DMA_CC2);
 2611              		.loc 1 939 7
 2612 01c2 FB68     		ldr	r3, [r7, #12]
 2613 01c4 1B68     		ldr	r3, [r3]
 2614 01c6 DA68     		ldr	r2, [r3, #12]
 2615 01c8 FB68     		ldr	r3, [r7, #12]
 2616 01ca 1B68     		ldr	r3, [r3]
 2617 01cc 8021     		movs	r1, #128
ARM GAS  /var/folders/d0/cymppscj10lcmm48h781wrc80000gn/T//cc0qcKWW.s 			page 63


 2618 01ce C900     		lsls	r1, r1, #3
 2619 01d0 0A43     		orrs	r2, r1
 2620 01d2 DA60     		str	r2, [r3, #12]
 940:Drivers/STM32F0xx_HAL_Driver/Src/stm32f0xx_hal_tim_ex.c ****       break;
 2621              		.loc 1 940 7
 2622 01d4 29E0     		b	.L172
 2623              	.L167:
 941:Drivers/STM32F0xx_HAL_Driver/Src/stm32f0xx_hal_tim_ex.c ****     }
 942:Drivers/STM32F0xx_HAL_Driver/Src/stm32f0xx_hal_tim_ex.c **** 
 943:Drivers/STM32F0xx_HAL_Driver/Src/stm32f0xx_hal_tim_ex.c ****     case TIM_CHANNEL_3:
 944:Drivers/STM32F0xx_HAL_Driver/Src/stm32f0xx_hal_tim_ex.c ****     {
 945:Drivers/STM32F0xx_HAL_Driver/Src/stm32f0xx_hal_tim_ex.c ****       /* Set the DMA compare callbacks */
 946:Drivers/STM32F0xx_HAL_Driver/Src/stm32f0xx_hal_tim_ex.c ****       htim->hdma[TIM_DMA_ID_CC3]->XferCpltCallback = TIM_DMADelayPulseNCplt;
 2624              		.loc 1 946 17
 2625 01d6 FB68     		ldr	r3, [r7, #12]
 2626 01d8 DB6A     		ldr	r3, [r3, #44]
 2627              		.loc 1 946 52
 2628 01da 364A     		ldr	r2, .L179
 2629 01dc 9A62     		str	r2, [r3, #40]
 947:Drivers/STM32F0xx_HAL_Driver/Src/stm32f0xx_hal_tim_ex.c ****       htim->hdma[TIM_DMA_ID_CC3]->XferHalfCpltCallback = TIM_DMADelayPulseHalfCplt;
 2630              		.loc 1 947 17
 2631 01de FB68     		ldr	r3, [r7, #12]
 2632 01e0 DB6A     		ldr	r3, [r3, #44]
 2633              		.loc 1 947 56
 2634 01e2 354A     		ldr	r2, .L179+4
 2635 01e4 DA62     		str	r2, [r3, #44]
 948:Drivers/STM32F0xx_HAL_Driver/Src/stm32f0xx_hal_tim_ex.c **** 
 949:Drivers/STM32F0xx_HAL_Driver/Src/stm32f0xx_hal_tim_ex.c ****       /* Set the DMA error callback */
 950:Drivers/STM32F0xx_HAL_Driver/Src/stm32f0xx_hal_tim_ex.c ****       htim->hdma[TIM_DMA_ID_CC3]->XferErrorCallback = TIM_DMAErrorCCxN ;
 2636              		.loc 1 950 17
 2637 01e6 FB68     		ldr	r3, [r7, #12]
 2638 01e8 DB6A     		ldr	r3, [r3, #44]
 2639              		.loc 1 950 53
 2640 01ea 344A     		ldr	r2, .L179+8
 2641 01ec 1A63     		str	r2, [r3, #48]
 951:Drivers/STM32F0xx_HAL_Driver/Src/stm32f0xx_hal_tim_ex.c **** 
 952:Drivers/STM32F0xx_HAL_Driver/Src/stm32f0xx_hal_tim_ex.c ****       /* Enable the DMA channel */
 953:Drivers/STM32F0xx_HAL_Driver/Src/stm32f0xx_hal_tim_ex.c ****       if (HAL_DMA_Start_IT(htim->hdma[TIM_DMA_ID_CC3], (uint32_t)pData, (uint32_t)&htim->Instance->
 2642              		.loc 1 953 11
 2643 01ee FB68     		ldr	r3, [r7, #12]
 2644 01f0 D86A     		ldr	r0, [r3, #44]
 2645 01f2 7968     		ldr	r1, [r7, #4]
 2646              		.loc 1 953 88
 2647 01f4 FB68     		ldr	r3, [r7, #12]
 2648 01f6 1B68     		ldr	r3, [r3]
 2649              		.loc 1 953 83
 2650 01f8 3C33     		adds	r3, r3, #60
 2651              		.loc 1 953 11
 2652 01fa 1A00     		movs	r2, r3
 2653 01fc BB1C     		adds	r3, r7, #2
 2654 01fe 1B88     		ldrh	r3, [r3]
 2655 0200 FFF7FEFF 		bl	HAL_DMA_Start_IT
 2656 0204 031E     		subs	r3, r0, #0
 2657              		.loc 1 953 10
 2658 0206 01D0     		beq	.L174
 954:Drivers/STM32F0xx_HAL_Driver/Src/stm32f0xx_hal_tim_ex.c ****                            Length) != HAL_OK)
 955:Drivers/STM32F0xx_HAL_Driver/Src/stm32f0xx_hal_tim_ex.c ****       {
ARM GAS  /var/folders/d0/cymppscj10lcmm48h781wrc80000gn/T//cc0qcKWW.s 			page 64


 956:Drivers/STM32F0xx_HAL_Driver/Src/stm32f0xx_hal_tim_ex.c ****         /* Return error status */
 957:Drivers/STM32F0xx_HAL_Driver/Src/stm32f0xx_hal_tim_ex.c ****         return HAL_ERROR;
 2659              		.loc 1 957 16
 2660 0208 0123     		movs	r3, #1
 2661 020a 4FE0     		b	.L152
 2662              	.L174:
 958:Drivers/STM32F0xx_HAL_Driver/Src/stm32f0xx_hal_tim_ex.c ****       }
 959:Drivers/STM32F0xx_HAL_Driver/Src/stm32f0xx_hal_tim_ex.c ****       /* Enable the TIM Output Compare DMA request */
 960:Drivers/STM32F0xx_HAL_Driver/Src/stm32f0xx_hal_tim_ex.c ****       __HAL_TIM_ENABLE_DMA(htim, TIM_DMA_CC3);
 2663              		.loc 1 960 7
 2664 020c FB68     		ldr	r3, [r7, #12]
 2665 020e 1B68     		ldr	r3, [r3]
 2666 0210 DA68     		ldr	r2, [r3, #12]
 2667 0212 FB68     		ldr	r3, [r7, #12]
 2668 0214 1B68     		ldr	r3, [r3]
 2669 0216 8021     		movs	r1, #128
 2670 0218 0901     		lsls	r1, r1, #4
 2671 021a 0A43     		orrs	r2, r1
 2672 021c DA60     		str	r2, [r3, #12]
 961:Drivers/STM32F0xx_HAL_Driver/Src/stm32f0xx_hal_tim_ex.c ****       break;
 2673              		.loc 1 961 7
 2674 021e 04E0     		b	.L172
 2675              	.L168:
 962:Drivers/STM32F0xx_HAL_Driver/Src/stm32f0xx_hal_tim_ex.c ****     }
 963:Drivers/STM32F0xx_HAL_Driver/Src/stm32f0xx_hal_tim_ex.c **** 
 964:Drivers/STM32F0xx_HAL_Driver/Src/stm32f0xx_hal_tim_ex.c ****     default:
 965:Drivers/STM32F0xx_HAL_Driver/Src/stm32f0xx_hal_tim_ex.c ****       status = HAL_ERROR;
 2676              		.loc 1 965 14
 2677 0220 1723     		movs	r3, #23
 2678 0222 FB18     		adds	r3, r7, r3
 2679 0224 0122     		movs	r2, #1
 2680 0226 1A70     		strb	r2, [r3]
 966:Drivers/STM32F0xx_HAL_Driver/Src/stm32f0xx_hal_tim_ex.c ****       break;
 2681              		.loc 1 966 7
 2682 0228 C046     		nop
 2683              	.L172:
 967:Drivers/STM32F0xx_HAL_Driver/Src/stm32f0xx_hal_tim_ex.c ****   }
 968:Drivers/STM32F0xx_HAL_Driver/Src/stm32f0xx_hal_tim_ex.c **** 
 969:Drivers/STM32F0xx_HAL_Driver/Src/stm32f0xx_hal_tim_ex.c ****   if (status == HAL_OK)
 2684              		.loc 1 969 6
 2685 022a 1723     		movs	r3, #23
 2686 022c FB18     		adds	r3, r7, r3
 2687 022e 1B78     		ldrb	r3, [r3]
 2688 0230 002B     		cmp	r3, #0
 2689 0232 38D1     		bne	.L175
 970:Drivers/STM32F0xx_HAL_Driver/Src/stm32f0xx_hal_tim_ex.c ****   {
 971:Drivers/STM32F0xx_HAL_Driver/Src/stm32f0xx_hal_tim_ex.c ****     /* Enable the Capture compare channel N */
 972:Drivers/STM32F0xx_HAL_Driver/Src/stm32f0xx_hal_tim_ex.c ****     TIM_CCxNChannelCmd(htim->Instance, Channel, TIM_CCxN_ENABLE);
 2690              		.loc 1 972 5
 2691 0234 FB68     		ldr	r3, [r7, #12]
 2692 0236 1B68     		ldr	r3, [r3]
 2693 0238 B968     		ldr	r1, [r7, #8]
 2694 023a 0422     		movs	r2, #4
 2695 023c 1800     		movs	r0, r3
 2696 023e FFF7FEFF 		bl	TIM_CCxNChannelCmd
 973:Drivers/STM32F0xx_HAL_Driver/Src/stm32f0xx_hal_tim_ex.c **** 
 974:Drivers/STM32F0xx_HAL_Driver/Src/stm32f0xx_hal_tim_ex.c ****     /* Enable the Main Output */
ARM GAS  /var/folders/d0/cymppscj10lcmm48h781wrc80000gn/T//cc0qcKWW.s 			page 65


 975:Drivers/STM32F0xx_HAL_Driver/Src/stm32f0xx_hal_tim_ex.c ****     __HAL_TIM_MOE_ENABLE(htim);
 2697              		.loc 1 975 5
 2698 0242 FB68     		ldr	r3, [r7, #12]
 2699 0244 1B68     		ldr	r3, [r3]
 2700 0246 5A6C     		ldr	r2, [r3, #68]
 2701 0248 FB68     		ldr	r3, [r7, #12]
 2702 024a 1B68     		ldr	r3, [r3]
 2703 024c 8021     		movs	r1, #128
 2704 024e 0902     		lsls	r1, r1, #8
 2705 0250 0A43     		orrs	r2, r1
 2706 0252 5A64     		str	r2, [r3, #68]
 976:Drivers/STM32F0xx_HAL_Driver/Src/stm32f0xx_hal_tim_ex.c **** 
 977:Drivers/STM32F0xx_HAL_Driver/Src/stm32f0xx_hal_tim_ex.c ****     /* Enable the Peripheral, except in trigger mode where enable is automatically done with trigge
 978:Drivers/STM32F0xx_HAL_Driver/Src/stm32f0xx_hal_tim_ex.c ****     if (IS_TIM_SLAVE_INSTANCE(htim->Instance))
 2707              		.loc 1 978 9
 2708 0254 FB68     		ldr	r3, [r7, #12]
 2709 0256 1B68     		ldr	r3, [r3]
 2710              		.loc 1 978 8
 2711 0258 194A     		ldr	r2, .L179+12
 2712 025a 9342     		cmp	r3, r2
 2713 025c 09D0     		beq	.L176
 2714              		.loc 1 978 9 discriminator 1
 2715 025e FB68     		ldr	r3, [r7, #12]
 2716 0260 1B68     		ldr	r3, [r3]
 2717 0262 184A     		ldr	r2, .L179+16
 2718 0264 9342     		cmp	r3, r2
 2719 0266 04D0     		beq	.L176
 2720              		.loc 1 978 9 is_stmt 0 discriminator 2
 2721 0268 FB68     		ldr	r3, [r7, #12]
 2722 026a 1B68     		ldr	r3, [r3]
 2723 026c 164A     		ldr	r2, .L179+20
 2724 026e 9342     		cmp	r3, r2
 2725 0270 11D1     		bne	.L177
 2726              	.L176:
 979:Drivers/STM32F0xx_HAL_Driver/Src/stm32f0xx_hal_tim_ex.c ****     {
 980:Drivers/STM32F0xx_HAL_Driver/Src/stm32f0xx_hal_tim_ex.c ****       tmpsmcr = htim->Instance->SMCR & TIM_SMCR_SMS;
 2727              		.loc 1 980 21 is_stmt 1
 2728 0272 FB68     		ldr	r3, [r7, #12]
 2729 0274 1B68     		ldr	r3, [r3]
 2730              		.loc 1 980 31
 2731 0276 9B68     		ldr	r3, [r3, #8]
 2732              		.loc 1 980 15
 2733 0278 0722     		movs	r2, #7
 2734 027a 1340     		ands	r3, r2
 2735 027c 3B61     		str	r3, [r7, #16]
 981:Drivers/STM32F0xx_HAL_Driver/Src/stm32f0xx_hal_tim_ex.c ****       if (!IS_TIM_SLAVEMODE_TRIGGER_ENABLED(tmpsmcr))
 2736              		.loc 1 981 10
 2737 027e 3B69     		ldr	r3, [r7, #16]
 2738 0280 062B     		cmp	r3, #6
 2739 0282 10D0     		beq	.L175
 982:Drivers/STM32F0xx_HAL_Driver/Src/stm32f0xx_hal_tim_ex.c ****       {
 983:Drivers/STM32F0xx_HAL_Driver/Src/stm32f0xx_hal_tim_ex.c ****         __HAL_TIM_ENABLE(htim);
 2740              		.loc 1 983 9
 2741 0284 FB68     		ldr	r3, [r7, #12]
 2742 0286 1B68     		ldr	r3, [r3]
 2743 0288 1A68     		ldr	r2, [r3]
 2744 028a FB68     		ldr	r3, [r7, #12]
ARM GAS  /var/folders/d0/cymppscj10lcmm48h781wrc80000gn/T//cc0qcKWW.s 			page 66


 2745 028c 1B68     		ldr	r3, [r3]
 2746 028e 0121     		movs	r1, #1
 2747 0290 0A43     		orrs	r2, r1
 2748 0292 1A60     		str	r2, [r3]
 981:Drivers/STM32F0xx_HAL_Driver/Src/stm32f0xx_hal_tim_ex.c ****       if (!IS_TIM_SLAVEMODE_TRIGGER_ENABLED(tmpsmcr))
 2749              		.loc 1 981 10
 2750 0294 07E0     		b	.L175
 2751              	.L177:
 984:Drivers/STM32F0xx_HAL_Driver/Src/stm32f0xx_hal_tim_ex.c ****       }
 985:Drivers/STM32F0xx_HAL_Driver/Src/stm32f0xx_hal_tim_ex.c ****     }
 986:Drivers/STM32F0xx_HAL_Driver/Src/stm32f0xx_hal_tim_ex.c ****     else
 987:Drivers/STM32F0xx_HAL_Driver/Src/stm32f0xx_hal_tim_ex.c ****     {
 988:Drivers/STM32F0xx_HAL_Driver/Src/stm32f0xx_hal_tim_ex.c ****       __HAL_TIM_ENABLE(htim);
 2752              		.loc 1 988 7
 2753 0296 FB68     		ldr	r3, [r7, #12]
 2754 0298 1B68     		ldr	r3, [r3]
 2755 029a 1A68     		ldr	r2, [r3]
 2756 029c FB68     		ldr	r3, [r7, #12]
 2757 029e 1B68     		ldr	r3, [r3]
 2758 02a0 0121     		movs	r1, #1
 2759 02a2 0A43     		orrs	r2, r1
 2760 02a4 1A60     		str	r2, [r3]
 2761              	.L175:
 989:Drivers/STM32F0xx_HAL_Driver/Src/stm32f0xx_hal_tim_ex.c ****     }
 990:Drivers/STM32F0xx_HAL_Driver/Src/stm32f0xx_hal_tim_ex.c ****   }
 991:Drivers/STM32F0xx_HAL_Driver/Src/stm32f0xx_hal_tim_ex.c **** 
 992:Drivers/STM32F0xx_HAL_Driver/Src/stm32f0xx_hal_tim_ex.c ****   /* Return function status */
 993:Drivers/STM32F0xx_HAL_Driver/Src/stm32f0xx_hal_tim_ex.c ****   return status;
 2762              		.loc 1 993 10
 2763 02a6 1723     		movs	r3, #23
 2764 02a8 FB18     		adds	r3, r7, r3
 2765 02aa 1B78     		ldrb	r3, [r3]
 2766              	.L152:
 994:Drivers/STM32F0xx_HAL_Driver/Src/stm32f0xx_hal_tim_ex.c **** }
 2767              		.loc 1 994 1
 2768 02ac 1800     		movs	r0, r3
 2769 02ae BD46     		mov	sp, r7
 2770 02b0 06B0     		add	sp, sp, #24
 2771              		@ sp needed
 2772 02b2 80BD     		pop	{r7, pc}
 2773              	.L180:
 2774              		.align	2
 2775              	.L179:
 2776 02b4 00000000 		.word	TIM_DMADelayPulseNCplt
 2777 02b8 00000000 		.word	TIM_DMADelayPulseHalfCplt
 2778 02bc 00000000 		.word	TIM_DMAErrorCCxN
 2779 02c0 002C0140 		.word	1073818624
 2780 02c4 00040040 		.word	1073742848
 2781 02c8 00400140 		.word	1073823744
 2782              		.cfi_endproc
 2783              	.LFE54:
 2785              		.section	.text.HAL_TIMEx_OCN_Stop_DMA,"ax",%progbits
 2786              		.align	1
 2787              		.global	HAL_TIMEx_OCN_Stop_DMA
 2788              		.syntax unified
 2789              		.code	16
 2790              		.thumb_func
ARM GAS  /var/folders/d0/cymppscj10lcmm48h781wrc80000gn/T//cc0qcKWW.s 			page 67


 2792              	HAL_TIMEx_OCN_Stop_DMA:
 2793              	.LFB55:
 995:Drivers/STM32F0xx_HAL_Driver/Src/stm32f0xx_hal_tim_ex.c **** 
 996:Drivers/STM32F0xx_HAL_Driver/Src/stm32f0xx_hal_tim_ex.c **** /**
 997:Drivers/STM32F0xx_HAL_Driver/Src/stm32f0xx_hal_tim_ex.c ****   * @brief  Stops the TIM Output Compare signal generation in DMA mode
 998:Drivers/STM32F0xx_HAL_Driver/Src/stm32f0xx_hal_tim_ex.c ****   *         on the complementary output.
 999:Drivers/STM32F0xx_HAL_Driver/Src/stm32f0xx_hal_tim_ex.c ****   * @param  htim TIM Output Compare handle
1000:Drivers/STM32F0xx_HAL_Driver/Src/stm32f0xx_hal_tim_ex.c ****   * @param  Channel TIM Channel to be disabled
1001:Drivers/STM32F0xx_HAL_Driver/Src/stm32f0xx_hal_tim_ex.c ****   *          This parameter can be one of the following values:
1002:Drivers/STM32F0xx_HAL_Driver/Src/stm32f0xx_hal_tim_ex.c ****   *            @arg TIM_CHANNEL_1: TIM Channel 1 selected
1003:Drivers/STM32F0xx_HAL_Driver/Src/stm32f0xx_hal_tim_ex.c ****   *            @arg TIM_CHANNEL_2: TIM Channel 2 selected
1004:Drivers/STM32F0xx_HAL_Driver/Src/stm32f0xx_hal_tim_ex.c ****   *            @arg TIM_CHANNEL_3: TIM Channel 3 selected
1005:Drivers/STM32F0xx_HAL_Driver/Src/stm32f0xx_hal_tim_ex.c ****   * @retval HAL status
1006:Drivers/STM32F0xx_HAL_Driver/Src/stm32f0xx_hal_tim_ex.c ****   */
1007:Drivers/STM32F0xx_HAL_Driver/Src/stm32f0xx_hal_tim_ex.c **** HAL_StatusTypeDef HAL_TIMEx_OCN_Stop_DMA(TIM_HandleTypeDef *htim, uint32_t Channel)
1008:Drivers/STM32F0xx_HAL_Driver/Src/stm32f0xx_hal_tim_ex.c **** {
 2794              		.loc 1 1008 1
 2795              		.cfi_startproc
 2796              		@ args = 0, pretend = 0, frame = 16
 2797              		@ frame_needed = 1, uses_anonymous_args = 0
 2798 0000 80B5     		push	{r7, lr}
 2799              	.LCFI45:
 2800              		.cfi_def_cfa_offset 8
 2801              		.cfi_offset 7, -8
 2802              		.cfi_offset 14, -4
 2803 0002 84B0     		sub	sp, sp, #16
 2804              	.LCFI46:
 2805              		.cfi_def_cfa_offset 24
 2806 0004 00AF     		add	r7, sp, #0
 2807              	.LCFI47:
 2808              		.cfi_def_cfa_register 7
 2809 0006 7860     		str	r0, [r7, #4]
 2810 0008 3960     		str	r1, [r7]
1009:Drivers/STM32F0xx_HAL_Driver/Src/stm32f0xx_hal_tim_ex.c ****   HAL_StatusTypeDef status = HAL_OK;
 2811              		.loc 1 1009 21
 2812 000a 0F23     		movs	r3, #15
 2813 000c FB18     		adds	r3, r7, r3
 2814 000e 0022     		movs	r2, #0
 2815 0010 1A70     		strb	r2, [r3]
1010:Drivers/STM32F0xx_HAL_Driver/Src/stm32f0xx_hal_tim_ex.c **** 
1011:Drivers/STM32F0xx_HAL_Driver/Src/stm32f0xx_hal_tim_ex.c ****   /* Check the parameters */
1012:Drivers/STM32F0xx_HAL_Driver/Src/stm32f0xx_hal_tim_ex.c ****   assert_param(IS_TIM_CCXN_INSTANCE(htim->Instance, Channel));
1013:Drivers/STM32F0xx_HAL_Driver/Src/stm32f0xx_hal_tim_ex.c **** 
1014:Drivers/STM32F0xx_HAL_Driver/Src/stm32f0xx_hal_tim_ex.c ****   switch (Channel)
 2816              		.loc 1 1014 3
 2817 0012 3B68     		ldr	r3, [r7]
 2818 0014 082B     		cmp	r3, #8
 2819 0016 25D0     		beq	.L182
 2820 0018 3B68     		ldr	r3, [r7]
 2821 001a 082B     		cmp	r3, #8
 2822 001c 30D8     		bhi	.L183
 2823 001e 3B68     		ldr	r3, [r7]
 2824 0020 002B     		cmp	r3, #0
 2825 0022 03D0     		beq	.L184
 2826 0024 3B68     		ldr	r3, [r7]
 2827 0026 042B     		cmp	r3, #4
 2828 0028 0ED0     		beq	.L185
ARM GAS  /var/folders/d0/cymppscj10lcmm48h781wrc80000gn/T//cc0qcKWW.s 			page 68


 2829 002a 29E0     		b	.L183
 2830              	.L184:
1015:Drivers/STM32F0xx_HAL_Driver/Src/stm32f0xx_hal_tim_ex.c ****   {
1016:Drivers/STM32F0xx_HAL_Driver/Src/stm32f0xx_hal_tim_ex.c ****     case TIM_CHANNEL_1:
1017:Drivers/STM32F0xx_HAL_Driver/Src/stm32f0xx_hal_tim_ex.c ****     {
1018:Drivers/STM32F0xx_HAL_Driver/Src/stm32f0xx_hal_tim_ex.c ****       /* Disable the TIM Output Compare DMA request */
1019:Drivers/STM32F0xx_HAL_Driver/Src/stm32f0xx_hal_tim_ex.c ****       __HAL_TIM_DISABLE_DMA(htim, TIM_DMA_CC1);
 2831              		.loc 1 1019 7
 2832 002c 7B68     		ldr	r3, [r7, #4]
 2833 002e 1B68     		ldr	r3, [r3]
 2834 0030 DA68     		ldr	r2, [r3, #12]
 2835 0032 7B68     		ldr	r3, [r7, #4]
 2836 0034 1B68     		ldr	r3, [r3]
 2837 0036 4049     		ldr	r1, .L196
 2838 0038 0A40     		ands	r2, r1
 2839 003a DA60     		str	r2, [r3, #12]
1020:Drivers/STM32F0xx_HAL_Driver/Src/stm32f0xx_hal_tim_ex.c ****       (void)HAL_DMA_Abort_IT(htim->hdma[TIM_DMA_ID_CC1]);
 2840              		.loc 1 1020 13
 2841 003c 7B68     		ldr	r3, [r7, #4]
 2842 003e 5B6A     		ldr	r3, [r3, #36]
 2843 0040 1800     		movs	r0, r3
 2844 0042 FFF7FEFF 		bl	HAL_DMA_Abort_IT
1021:Drivers/STM32F0xx_HAL_Driver/Src/stm32f0xx_hal_tim_ex.c ****       break;
 2845              		.loc 1 1021 7
 2846 0046 20E0     		b	.L186
 2847              	.L185:
1022:Drivers/STM32F0xx_HAL_Driver/Src/stm32f0xx_hal_tim_ex.c ****     }
1023:Drivers/STM32F0xx_HAL_Driver/Src/stm32f0xx_hal_tim_ex.c **** 
1024:Drivers/STM32F0xx_HAL_Driver/Src/stm32f0xx_hal_tim_ex.c ****     case TIM_CHANNEL_2:
1025:Drivers/STM32F0xx_HAL_Driver/Src/stm32f0xx_hal_tim_ex.c ****     {
1026:Drivers/STM32F0xx_HAL_Driver/Src/stm32f0xx_hal_tim_ex.c ****       /* Disable the TIM Output Compare DMA request */
1027:Drivers/STM32F0xx_HAL_Driver/Src/stm32f0xx_hal_tim_ex.c ****       __HAL_TIM_DISABLE_DMA(htim, TIM_DMA_CC2);
 2848              		.loc 1 1027 7
 2849 0048 7B68     		ldr	r3, [r7, #4]
 2850 004a 1B68     		ldr	r3, [r3]
 2851 004c DA68     		ldr	r2, [r3, #12]
 2852 004e 7B68     		ldr	r3, [r7, #4]
 2853 0050 1B68     		ldr	r3, [r3]
 2854 0052 3A49     		ldr	r1, .L196+4
 2855 0054 0A40     		ands	r2, r1
 2856 0056 DA60     		str	r2, [r3, #12]
1028:Drivers/STM32F0xx_HAL_Driver/Src/stm32f0xx_hal_tim_ex.c ****       (void)HAL_DMA_Abort_IT(htim->hdma[TIM_DMA_ID_CC2]);
 2857              		.loc 1 1028 13
 2858 0058 7B68     		ldr	r3, [r7, #4]
 2859 005a 9B6A     		ldr	r3, [r3, #40]
 2860 005c 1800     		movs	r0, r3
 2861 005e FFF7FEFF 		bl	HAL_DMA_Abort_IT
1029:Drivers/STM32F0xx_HAL_Driver/Src/stm32f0xx_hal_tim_ex.c ****       break;
 2862              		.loc 1 1029 7
 2863 0062 12E0     		b	.L186
 2864              	.L182:
1030:Drivers/STM32F0xx_HAL_Driver/Src/stm32f0xx_hal_tim_ex.c ****     }
1031:Drivers/STM32F0xx_HAL_Driver/Src/stm32f0xx_hal_tim_ex.c **** 
1032:Drivers/STM32F0xx_HAL_Driver/Src/stm32f0xx_hal_tim_ex.c ****     case TIM_CHANNEL_3:
1033:Drivers/STM32F0xx_HAL_Driver/Src/stm32f0xx_hal_tim_ex.c ****     {
1034:Drivers/STM32F0xx_HAL_Driver/Src/stm32f0xx_hal_tim_ex.c ****       /* Disable the TIM Output Compare DMA request */
1035:Drivers/STM32F0xx_HAL_Driver/Src/stm32f0xx_hal_tim_ex.c ****       __HAL_TIM_DISABLE_DMA(htim, TIM_DMA_CC3);
ARM GAS  /var/folders/d0/cymppscj10lcmm48h781wrc80000gn/T//cc0qcKWW.s 			page 69


 2865              		.loc 1 1035 7
 2866 0064 7B68     		ldr	r3, [r7, #4]
 2867 0066 1B68     		ldr	r3, [r3]
 2868 0068 DA68     		ldr	r2, [r3, #12]
 2869 006a 7B68     		ldr	r3, [r7, #4]
 2870 006c 1B68     		ldr	r3, [r3]
 2871 006e 3449     		ldr	r1, .L196+8
 2872 0070 0A40     		ands	r2, r1
 2873 0072 DA60     		str	r2, [r3, #12]
1036:Drivers/STM32F0xx_HAL_Driver/Src/stm32f0xx_hal_tim_ex.c ****       (void)HAL_DMA_Abort_IT(htim->hdma[TIM_DMA_ID_CC3]);
 2874              		.loc 1 1036 13
 2875 0074 7B68     		ldr	r3, [r7, #4]
 2876 0076 DB6A     		ldr	r3, [r3, #44]
 2877 0078 1800     		movs	r0, r3
 2878 007a FFF7FEFF 		bl	HAL_DMA_Abort_IT
1037:Drivers/STM32F0xx_HAL_Driver/Src/stm32f0xx_hal_tim_ex.c ****       break;
 2879              		.loc 1 1037 7
 2880 007e 04E0     		b	.L186
 2881              	.L183:
1038:Drivers/STM32F0xx_HAL_Driver/Src/stm32f0xx_hal_tim_ex.c ****     }
1039:Drivers/STM32F0xx_HAL_Driver/Src/stm32f0xx_hal_tim_ex.c **** 
1040:Drivers/STM32F0xx_HAL_Driver/Src/stm32f0xx_hal_tim_ex.c ****     default:
1041:Drivers/STM32F0xx_HAL_Driver/Src/stm32f0xx_hal_tim_ex.c ****       status = HAL_ERROR;
 2882              		.loc 1 1041 14
 2883 0080 0F23     		movs	r3, #15
 2884 0082 FB18     		adds	r3, r7, r3
 2885 0084 0122     		movs	r2, #1
 2886 0086 1A70     		strb	r2, [r3]
1042:Drivers/STM32F0xx_HAL_Driver/Src/stm32f0xx_hal_tim_ex.c ****       break;
 2887              		.loc 1 1042 7
 2888 0088 C046     		nop
 2889              	.L186:
1043:Drivers/STM32F0xx_HAL_Driver/Src/stm32f0xx_hal_tim_ex.c ****   }
1044:Drivers/STM32F0xx_HAL_Driver/Src/stm32f0xx_hal_tim_ex.c **** 
1045:Drivers/STM32F0xx_HAL_Driver/Src/stm32f0xx_hal_tim_ex.c ****   if (status == HAL_OK)
 2890              		.loc 1 1045 6
 2891 008a 0F23     		movs	r3, #15
 2892 008c FB18     		adds	r3, r7, r3
 2893 008e 1B78     		ldrb	r3, [r3]
 2894 0090 002B     		cmp	r3, #0
 2895 0092 4AD1     		bne	.L187
1046:Drivers/STM32F0xx_HAL_Driver/Src/stm32f0xx_hal_tim_ex.c ****   {
1047:Drivers/STM32F0xx_HAL_Driver/Src/stm32f0xx_hal_tim_ex.c ****     /* Disable the Capture compare channel N */
1048:Drivers/STM32F0xx_HAL_Driver/Src/stm32f0xx_hal_tim_ex.c ****     TIM_CCxNChannelCmd(htim->Instance, Channel, TIM_CCxN_DISABLE);
 2896              		.loc 1 1048 5
 2897 0094 7B68     		ldr	r3, [r7, #4]
 2898 0096 1B68     		ldr	r3, [r3]
 2899 0098 3968     		ldr	r1, [r7]
 2900 009a 0022     		movs	r2, #0
 2901 009c 1800     		movs	r0, r3
 2902 009e FFF7FEFF 		bl	TIM_CCxNChannelCmd
1049:Drivers/STM32F0xx_HAL_Driver/Src/stm32f0xx_hal_tim_ex.c **** 
1050:Drivers/STM32F0xx_HAL_Driver/Src/stm32f0xx_hal_tim_ex.c ****     /* Disable the Main Output */
1051:Drivers/STM32F0xx_HAL_Driver/Src/stm32f0xx_hal_tim_ex.c ****     __HAL_TIM_MOE_DISABLE(htim);
 2903              		.loc 1 1051 5
 2904 00a2 7B68     		ldr	r3, [r7, #4]
 2905 00a4 1B68     		ldr	r3, [r3]
ARM GAS  /var/folders/d0/cymppscj10lcmm48h781wrc80000gn/T//cc0qcKWW.s 			page 70


 2906 00a6 1B6A     		ldr	r3, [r3, #32]
 2907 00a8 264A     		ldr	r2, .L196+12
 2908 00aa 1340     		ands	r3, r2
 2909 00ac 0DD1     		bne	.L188
 2910              		.loc 1 1051 5 is_stmt 0 discriminator 1
 2911 00ae 7B68     		ldr	r3, [r7, #4]
 2912 00b0 1B68     		ldr	r3, [r3]
 2913 00b2 1B6A     		ldr	r3, [r3, #32]
 2914 00b4 244A     		ldr	r2, .L196+16
 2915 00b6 1340     		ands	r3, r2
 2916 00b8 07D1     		bne	.L188
 2917              		.loc 1 1051 5 discriminator 2
 2918 00ba 7B68     		ldr	r3, [r7, #4]
 2919 00bc 1B68     		ldr	r3, [r3]
 2920 00be 5A6C     		ldr	r2, [r3, #68]
 2921 00c0 7B68     		ldr	r3, [r7, #4]
 2922 00c2 1B68     		ldr	r3, [r3]
 2923 00c4 2149     		ldr	r1, .L196+20
 2924 00c6 0A40     		ands	r2, r1
 2925 00c8 5A64     		str	r2, [r3, #68]
 2926              	.L188:
1052:Drivers/STM32F0xx_HAL_Driver/Src/stm32f0xx_hal_tim_ex.c **** 
1053:Drivers/STM32F0xx_HAL_Driver/Src/stm32f0xx_hal_tim_ex.c ****     /* Disable the Peripheral */
1054:Drivers/STM32F0xx_HAL_Driver/Src/stm32f0xx_hal_tim_ex.c ****     __HAL_TIM_DISABLE(htim);
 2927              		.loc 1 1054 5 is_stmt 1
 2928 00ca 7B68     		ldr	r3, [r7, #4]
 2929 00cc 1B68     		ldr	r3, [r3]
 2930 00ce 1B6A     		ldr	r3, [r3, #32]
 2931 00d0 1C4A     		ldr	r2, .L196+12
 2932 00d2 1340     		ands	r3, r2
 2933 00d4 0DD1     		bne	.L189
 2934              		.loc 1 1054 5 is_stmt 0 discriminator 1
 2935 00d6 7B68     		ldr	r3, [r7, #4]
 2936 00d8 1B68     		ldr	r3, [r3]
 2937 00da 1B6A     		ldr	r3, [r3, #32]
 2938 00dc 1A4A     		ldr	r2, .L196+16
 2939 00de 1340     		ands	r3, r2
 2940 00e0 07D1     		bne	.L189
 2941              		.loc 1 1054 5 discriminator 2
 2942 00e2 7B68     		ldr	r3, [r7, #4]
 2943 00e4 1B68     		ldr	r3, [r3]
 2944 00e6 1A68     		ldr	r2, [r3]
 2945 00e8 7B68     		ldr	r3, [r7, #4]
 2946 00ea 1B68     		ldr	r3, [r3]
 2947 00ec 0121     		movs	r1, #1
 2948 00ee 8A43     		bics	r2, r1
 2949 00f0 1A60     		str	r2, [r3]
 2950              	.L189:
1055:Drivers/STM32F0xx_HAL_Driver/Src/stm32f0xx_hal_tim_ex.c **** 
1056:Drivers/STM32F0xx_HAL_Driver/Src/stm32f0xx_hal_tim_ex.c ****     /* Set the TIM complementary channel state */
1057:Drivers/STM32F0xx_HAL_Driver/Src/stm32f0xx_hal_tim_ex.c ****     TIM_CHANNEL_N_STATE_SET(htim, Channel, HAL_TIM_CHANNEL_STATE_READY);
 2951              		.loc 1 1057 5 is_stmt 1
 2952 00f2 3B68     		ldr	r3, [r7]
 2953 00f4 002B     		cmp	r3, #0
 2954 00f6 04D1     		bne	.L190
 2955              		.loc 1 1057 5 is_stmt 0 discriminator 1
 2956 00f8 7B68     		ldr	r3, [r7, #4]
ARM GAS  /var/folders/d0/cymppscj10lcmm48h781wrc80000gn/T//cc0qcKWW.s 			page 71


 2957 00fa 4222     		movs	r2, #66
 2958 00fc 0121     		movs	r1, #1
 2959 00fe 9954     		strb	r1, [r3, r2]
 2960 0100 13E0     		b	.L187
 2961              	.L190:
 2962              		.loc 1 1057 5 discriminator 2
 2963 0102 3B68     		ldr	r3, [r7]
 2964 0104 042B     		cmp	r3, #4
 2965 0106 04D1     		bne	.L191
 2966              		.loc 1 1057 5 discriminator 3
 2967 0108 7B68     		ldr	r3, [r7, #4]
 2968 010a 4322     		movs	r2, #67
 2969 010c 0121     		movs	r1, #1
 2970 010e 9954     		strb	r1, [r3, r2]
 2971 0110 0BE0     		b	.L187
 2972              	.L191:
 2973              		.loc 1 1057 5 discriminator 4
 2974 0112 3B68     		ldr	r3, [r7]
 2975 0114 082B     		cmp	r3, #8
 2976 0116 04D1     		bne	.L193
 2977              		.loc 1 1057 5 discriminator 6
 2978 0118 7B68     		ldr	r3, [r7, #4]
 2979 011a 4422     		movs	r2, #68
 2980 011c 0121     		movs	r1, #1
 2981 011e 9954     		strb	r1, [r3, r2]
 2982 0120 03E0     		b	.L187
 2983              	.L193:
 2984              		.loc 1 1057 5 discriminator 7
 2985 0122 7B68     		ldr	r3, [r7, #4]
 2986 0124 4522     		movs	r2, #69
 2987 0126 0121     		movs	r1, #1
 2988 0128 9954     		strb	r1, [r3, r2]
 2989              	.L187:
1058:Drivers/STM32F0xx_HAL_Driver/Src/stm32f0xx_hal_tim_ex.c ****   }
1059:Drivers/STM32F0xx_HAL_Driver/Src/stm32f0xx_hal_tim_ex.c **** 
1060:Drivers/STM32F0xx_HAL_Driver/Src/stm32f0xx_hal_tim_ex.c ****   /* Return function status */
1061:Drivers/STM32F0xx_HAL_Driver/Src/stm32f0xx_hal_tim_ex.c ****   return status;
 2990              		.loc 1 1061 10 is_stmt 1
 2991 012a 0F23     		movs	r3, #15
 2992 012c FB18     		adds	r3, r7, r3
 2993 012e 1B78     		ldrb	r3, [r3]
1062:Drivers/STM32F0xx_HAL_Driver/Src/stm32f0xx_hal_tim_ex.c **** }
 2994              		.loc 1 1062 1
 2995 0130 1800     		movs	r0, r3
 2996 0132 BD46     		mov	sp, r7
 2997 0134 04B0     		add	sp, sp, #16
 2998              		@ sp needed
 2999 0136 80BD     		pop	{r7, pc}
 3000              	.L197:
 3001              		.align	2
 3002              	.L196:
 3003 0138 FFFDFFFF 		.word	-513
 3004 013c FFFBFFFF 		.word	-1025
 3005 0140 FFF7FFFF 		.word	-2049
 3006 0144 11110000 		.word	4369
 3007 0148 44040000 		.word	1092
 3008 014c FF7FFFFF 		.word	-32769
ARM GAS  /var/folders/d0/cymppscj10lcmm48h781wrc80000gn/T//cc0qcKWW.s 			page 72


 3009              		.cfi_endproc
 3010              	.LFE55:
 3012              		.section	.text.HAL_TIMEx_PWMN_Start,"ax",%progbits
 3013              		.align	1
 3014              		.global	HAL_TIMEx_PWMN_Start
 3015              		.syntax unified
 3016              		.code	16
 3017              		.thumb_func
 3019              	HAL_TIMEx_PWMN_Start:
 3020              	.LFB56:
1063:Drivers/STM32F0xx_HAL_Driver/Src/stm32f0xx_hal_tim_ex.c **** 
1064:Drivers/STM32F0xx_HAL_Driver/Src/stm32f0xx_hal_tim_ex.c **** /**
1065:Drivers/STM32F0xx_HAL_Driver/Src/stm32f0xx_hal_tim_ex.c ****   * @}
1066:Drivers/STM32F0xx_HAL_Driver/Src/stm32f0xx_hal_tim_ex.c ****   */
1067:Drivers/STM32F0xx_HAL_Driver/Src/stm32f0xx_hal_tim_ex.c **** 
1068:Drivers/STM32F0xx_HAL_Driver/Src/stm32f0xx_hal_tim_ex.c **** /** @defgroup TIMEx_Exported_Functions_Group3 Extended Timer Complementary PWM functions
1069:Drivers/STM32F0xx_HAL_Driver/Src/stm32f0xx_hal_tim_ex.c ****   * @brief    Timer Complementary PWM functions
1070:Drivers/STM32F0xx_HAL_Driver/Src/stm32f0xx_hal_tim_ex.c ****   *
1071:Drivers/STM32F0xx_HAL_Driver/Src/stm32f0xx_hal_tim_ex.c **** @verbatim
1072:Drivers/STM32F0xx_HAL_Driver/Src/stm32f0xx_hal_tim_ex.c ****   ==============================================================================
1073:Drivers/STM32F0xx_HAL_Driver/Src/stm32f0xx_hal_tim_ex.c ****                  ##### Timer Complementary PWM functions #####
1074:Drivers/STM32F0xx_HAL_Driver/Src/stm32f0xx_hal_tim_ex.c ****   ==============================================================================
1075:Drivers/STM32F0xx_HAL_Driver/Src/stm32f0xx_hal_tim_ex.c ****   [..]
1076:Drivers/STM32F0xx_HAL_Driver/Src/stm32f0xx_hal_tim_ex.c ****     This section provides functions allowing to:
1077:Drivers/STM32F0xx_HAL_Driver/Src/stm32f0xx_hal_tim_ex.c ****     (+) Start the Complementary PWM.
1078:Drivers/STM32F0xx_HAL_Driver/Src/stm32f0xx_hal_tim_ex.c ****     (+) Stop the Complementary PWM.
1079:Drivers/STM32F0xx_HAL_Driver/Src/stm32f0xx_hal_tim_ex.c ****     (+) Start the Complementary PWM and enable interrupts.
1080:Drivers/STM32F0xx_HAL_Driver/Src/stm32f0xx_hal_tim_ex.c ****     (+) Stop the Complementary PWM and disable interrupts.
1081:Drivers/STM32F0xx_HAL_Driver/Src/stm32f0xx_hal_tim_ex.c ****     (+) Start the Complementary PWM and enable DMA transfers.
1082:Drivers/STM32F0xx_HAL_Driver/Src/stm32f0xx_hal_tim_ex.c ****     (+) Stop the Complementary PWM and disable DMA transfers.
1083:Drivers/STM32F0xx_HAL_Driver/Src/stm32f0xx_hal_tim_ex.c ****     (+) Start the Complementary Input Capture measurement.
1084:Drivers/STM32F0xx_HAL_Driver/Src/stm32f0xx_hal_tim_ex.c ****     (+) Stop the Complementary Input Capture.
1085:Drivers/STM32F0xx_HAL_Driver/Src/stm32f0xx_hal_tim_ex.c ****     (+) Start the Complementary Input Capture and enable interrupts.
1086:Drivers/STM32F0xx_HAL_Driver/Src/stm32f0xx_hal_tim_ex.c ****     (+) Stop the Complementary Input Capture and disable interrupts.
1087:Drivers/STM32F0xx_HAL_Driver/Src/stm32f0xx_hal_tim_ex.c ****     (+) Start the Complementary Input Capture and enable DMA transfers.
1088:Drivers/STM32F0xx_HAL_Driver/Src/stm32f0xx_hal_tim_ex.c ****     (+) Stop the Complementary Input Capture and disable DMA transfers.
1089:Drivers/STM32F0xx_HAL_Driver/Src/stm32f0xx_hal_tim_ex.c ****     (+) Start the Complementary One Pulse generation.
1090:Drivers/STM32F0xx_HAL_Driver/Src/stm32f0xx_hal_tim_ex.c ****     (+) Stop the Complementary One Pulse.
1091:Drivers/STM32F0xx_HAL_Driver/Src/stm32f0xx_hal_tim_ex.c ****     (+) Start the Complementary One Pulse and enable interrupts.
1092:Drivers/STM32F0xx_HAL_Driver/Src/stm32f0xx_hal_tim_ex.c ****     (+) Stop the Complementary One Pulse and disable interrupts.
1093:Drivers/STM32F0xx_HAL_Driver/Src/stm32f0xx_hal_tim_ex.c **** 
1094:Drivers/STM32F0xx_HAL_Driver/Src/stm32f0xx_hal_tim_ex.c **** @endverbatim
1095:Drivers/STM32F0xx_HAL_Driver/Src/stm32f0xx_hal_tim_ex.c ****   * @{
1096:Drivers/STM32F0xx_HAL_Driver/Src/stm32f0xx_hal_tim_ex.c ****   */
1097:Drivers/STM32F0xx_HAL_Driver/Src/stm32f0xx_hal_tim_ex.c **** 
1098:Drivers/STM32F0xx_HAL_Driver/Src/stm32f0xx_hal_tim_ex.c **** /**
1099:Drivers/STM32F0xx_HAL_Driver/Src/stm32f0xx_hal_tim_ex.c ****   * @brief  Starts the PWM signal generation on the complementary output.
1100:Drivers/STM32F0xx_HAL_Driver/Src/stm32f0xx_hal_tim_ex.c ****   * @param  htim TIM handle
1101:Drivers/STM32F0xx_HAL_Driver/Src/stm32f0xx_hal_tim_ex.c ****   * @param  Channel TIM Channel to be enabled
1102:Drivers/STM32F0xx_HAL_Driver/Src/stm32f0xx_hal_tim_ex.c ****   *          This parameter can be one of the following values:
1103:Drivers/STM32F0xx_HAL_Driver/Src/stm32f0xx_hal_tim_ex.c ****   *            @arg TIM_CHANNEL_1: TIM Channel 1 selected
1104:Drivers/STM32F0xx_HAL_Driver/Src/stm32f0xx_hal_tim_ex.c ****   *            @arg TIM_CHANNEL_2: TIM Channel 2 selected
1105:Drivers/STM32F0xx_HAL_Driver/Src/stm32f0xx_hal_tim_ex.c ****   *            @arg TIM_CHANNEL_3: TIM Channel 3 selected
1106:Drivers/STM32F0xx_HAL_Driver/Src/stm32f0xx_hal_tim_ex.c ****   * @retval HAL status
1107:Drivers/STM32F0xx_HAL_Driver/Src/stm32f0xx_hal_tim_ex.c ****   */
1108:Drivers/STM32F0xx_HAL_Driver/Src/stm32f0xx_hal_tim_ex.c **** HAL_StatusTypeDef HAL_TIMEx_PWMN_Start(TIM_HandleTypeDef *htim, uint32_t Channel)
1109:Drivers/STM32F0xx_HAL_Driver/Src/stm32f0xx_hal_tim_ex.c **** {
ARM GAS  /var/folders/d0/cymppscj10lcmm48h781wrc80000gn/T//cc0qcKWW.s 			page 73


 3021              		.loc 1 1109 1
 3022              		.cfi_startproc
 3023              		@ args = 0, pretend = 0, frame = 16
 3024              		@ frame_needed = 1, uses_anonymous_args = 0
 3025 0000 80B5     		push	{r7, lr}
 3026              	.LCFI48:
 3027              		.cfi_def_cfa_offset 8
 3028              		.cfi_offset 7, -8
 3029              		.cfi_offset 14, -4
 3030 0002 84B0     		sub	sp, sp, #16
 3031              	.LCFI49:
 3032              		.cfi_def_cfa_offset 24
 3033 0004 00AF     		add	r7, sp, #0
 3034              	.LCFI50:
 3035              		.cfi_def_cfa_register 7
 3036 0006 7860     		str	r0, [r7, #4]
 3037 0008 3960     		str	r1, [r7]
1110:Drivers/STM32F0xx_HAL_Driver/Src/stm32f0xx_hal_tim_ex.c ****   uint32_t tmpsmcr;
1111:Drivers/STM32F0xx_HAL_Driver/Src/stm32f0xx_hal_tim_ex.c **** 
1112:Drivers/STM32F0xx_HAL_Driver/Src/stm32f0xx_hal_tim_ex.c ****   /* Check the parameters */
1113:Drivers/STM32F0xx_HAL_Driver/Src/stm32f0xx_hal_tim_ex.c ****   assert_param(IS_TIM_CCXN_INSTANCE(htim->Instance, Channel));
1114:Drivers/STM32F0xx_HAL_Driver/Src/stm32f0xx_hal_tim_ex.c **** 
1115:Drivers/STM32F0xx_HAL_Driver/Src/stm32f0xx_hal_tim_ex.c ****   /* Check the TIM complementary channel state */
1116:Drivers/STM32F0xx_HAL_Driver/Src/stm32f0xx_hal_tim_ex.c ****   if (TIM_CHANNEL_N_STATE_GET(htim, Channel) != HAL_TIM_CHANNEL_STATE_READY)
 3038              		.loc 1 1116 46
 3039 000a 3B68     		ldr	r3, [r7]
 3040 000c 002B     		cmp	r3, #0
 3041 000e 08D1     		bne	.L199
 3042              		.loc 1 1116 7 discriminator 1
 3043 0010 7B68     		ldr	r3, [r7, #4]
 3044 0012 4222     		movs	r2, #66
 3045 0014 9B5C     		ldrb	r3, [r3, r2]
 3046 0016 DBB2     		uxtb	r3, r3
 3047              		.loc 1 1116 46 discriminator 1
 3048 0018 013B     		subs	r3, r3, #1
 3049 001a 5A1E     		subs	r2, r3, #1
 3050 001c 9341     		sbcs	r3, r3, r2
 3051 001e DBB2     		uxtb	r3, r3
 3052 0020 1FE0     		b	.L200
 3053              	.L199:
 3054              		.loc 1 1116 46 is_stmt 0 discriminator 2
 3055 0022 3B68     		ldr	r3, [r7]
 3056 0024 042B     		cmp	r3, #4
 3057 0026 08D1     		bne	.L201
 3058              		.loc 1 1116 7 is_stmt 1 discriminator 4
 3059 0028 7B68     		ldr	r3, [r7, #4]
 3060 002a 4322     		movs	r2, #67
 3061 002c 9B5C     		ldrb	r3, [r3, r2]
 3062 002e DBB2     		uxtb	r3, r3
 3063              		.loc 1 1116 46 discriminator 4
 3064 0030 013B     		subs	r3, r3, #1
 3065 0032 5A1E     		subs	r2, r3, #1
 3066 0034 9341     		sbcs	r3, r3, r2
 3067 0036 DBB2     		uxtb	r3, r3
 3068 0038 13E0     		b	.L200
 3069              	.L201:
 3070              		.loc 1 1116 46 is_stmt 0 discriminator 5
ARM GAS  /var/folders/d0/cymppscj10lcmm48h781wrc80000gn/T//cc0qcKWW.s 			page 74


 3071 003a 3B68     		ldr	r3, [r7]
 3072 003c 082B     		cmp	r3, #8
 3073 003e 08D1     		bne	.L203
 3074              		.loc 1 1116 7 is_stmt 1 discriminator 7
 3075 0040 7B68     		ldr	r3, [r7, #4]
 3076 0042 4422     		movs	r2, #68
 3077 0044 9B5C     		ldrb	r3, [r3, r2]
 3078 0046 DBB2     		uxtb	r3, r3
 3079              		.loc 1 1116 46 discriminator 7
 3080 0048 013B     		subs	r3, r3, #1
 3081 004a 5A1E     		subs	r2, r3, #1
 3082 004c 9341     		sbcs	r3, r3, r2
 3083 004e DBB2     		uxtb	r3, r3
 3084 0050 07E0     		b	.L200
 3085              	.L203:
 3086              		.loc 1 1116 7 discriminator 8
 3087 0052 7B68     		ldr	r3, [r7, #4]
 3088 0054 4522     		movs	r2, #69
 3089 0056 9B5C     		ldrb	r3, [r3, r2]
 3090 0058 DBB2     		uxtb	r3, r3
 3091              		.loc 1 1116 46 discriminator 8
 3092 005a 013B     		subs	r3, r3, #1
 3093 005c 5A1E     		subs	r2, r3, #1
 3094 005e 9341     		sbcs	r3, r3, r2
 3095 0060 DBB2     		uxtb	r3, r3
 3096              	.L200:
 3097              		.loc 1 1116 6 discriminator 12
 3098 0062 002B     		cmp	r3, #0
 3099 0064 01D0     		beq	.L205
1117:Drivers/STM32F0xx_HAL_Driver/Src/stm32f0xx_hal_tim_ex.c ****   {
1118:Drivers/STM32F0xx_HAL_Driver/Src/stm32f0xx_hal_tim_ex.c ****     return HAL_ERROR;
 3100              		.loc 1 1118 12
 3101 0066 0123     		movs	r3, #1
 3102 0068 55E0     		b	.L206
 3103              	.L205:
1119:Drivers/STM32F0xx_HAL_Driver/Src/stm32f0xx_hal_tim_ex.c ****   }
1120:Drivers/STM32F0xx_HAL_Driver/Src/stm32f0xx_hal_tim_ex.c **** 
1121:Drivers/STM32F0xx_HAL_Driver/Src/stm32f0xx_hal_tim_ex.c ****   /* Set the TIM complementary channel state */
1122:Drivers/STM32F0xx_HAL_Driver/Src/stm32f0xx_hal_tim_ex.c ****   TIM_CHANNEL_N_STATE_SET(htim, Channel, HAL_TIM_CHANNEL_STATE_BUSY);
 3104              		.loc 1 1122 3
 3105 006a 3B68     		ldr	r3, [r7]
 3106 006c 002B     		cmp	r3, #0
 3107 006e 04D1     		bne	.L207
 3108              		.loc 1 1122 3 is_stmt 0 discriminator 1
 3109 0070 7B68     		ldr	r3, [r7, #4]
 3110 0072 4222     		movs	r2, #66
 3111 0074 0221     		movs	r1, #2
 3112 0076 9954     		strb	r1, [r3, r2]
 3113 0078 13E0     		b	.L208
 3114              	.L207:
 3115              		.loc 1 1122 3 discriminator 2
 3116 007a 3B68     		ldr	r3, [r7]
 3117 007c 042B     		cmp	r3, #4
 3118 007e 04D1     		bne	.L209
 3119              		.loc 1 1122 3 discriminator 3
 3120 0080 7B68     		ldr	r3, [r7, #4]
 3121 0082 4322     		movs	r2, #67
ARM GAS  /var/folders/d0/cymppscj10lcmm48h781wrc80000gn/T//cc0qcKWW.s 			page 75


 3122 0084 0221     		movs	r1, #2
 3123 0086 9954     		strb	r1, [r3, r2]
 3124 0088 0BE0     		b	.L208
 3125              	.L209:
 3126              		.loc 1 1122 3 discriminator 4
 3127 008a 3B68     		ldr	r3, [r7]
 3128 008c 082B     		cmp	r3, #8
 3129 008e 04D1     		bne	.L211
 3130              		.loc 1 1122 3 discriminator 6
 3131 0090 7B68     		ldr	r3, [r7, #4]
 3132 0092 4422     		movs	r2, #68
 3133 0094 0221     		movs	r1, #2
 3134 0096 9954     		strb	r1, [r3, r2]
 3135 0098 03E0     		b	.L208
 3136              	.L211:
 3137              		.loc 1 1122 3 discriminator 7
 3138 009a 7B68     		ldr	r3, [r7, #4]
 3139 009c 4522     		movs	r2, #69
 3140 009e 0221     		movs	r1, #2
 3141 00a0 9954     		strb	r1, [r3, r2]
 3142              	.L208:
1123:Drivers/STM32F0xx_HAL_Driver/Src/stm32f0xx_hal_tim_ex.c **** 
1124:Drivers/STM32F0xx_HAL_Driver/Src/stm32f0xx_hal_tim_ex.c ****   /* Enable the complementary PWM output  */
1125:Drivers/STM32F0xx_HAL_Driver/Src/stm32f0xx_hal_tim_ex.c ****   TIM_CCxNChannelCmd(htim->Instance, Channel, TIM_CCxN_ENABLE);
 3143              		.loc 1 1125 3 is_stmt 1
 3144 00a2 7B68     		ldr	r3, [r7, #4]
 3145 00a4 1B68     		ldr	r3, [r3]
 3146 00a6 3968     		ldr	r1, [r7]
 3147 00a8 0422     		movs	r2, #4
 3148 00aa 1800     		movs	r0, r3
 3149 00ac FFF7FEFF 		bl	TIM_CCxNChannelCmd
1126:Drivers/STM32F0xx_HAL_Driver/Src/stm32f0xx_hal_tim_ex.c **** 
1127:Drivers/STM32F0xx_HAL_Driver/Src/stm32f0xx_hal_tim_ex.c ****   /* Enable the Main Output */
1128:Drivers/STM32F0xx_HAL_Driver/Src/stm32f0xx_hal_tim_ex.c ****   __HAL_TIM_MOE_ENABLE(htim);
 3150              		.loc 1 1128 3
 3151 00b0 7B68     		ldr	r3, [r7, #4]
 3152 00b2 1B68     		ldr	r3, [r3]
 3153 00b4 5A6C     		ldr	r2, [r3, #68]
 3154 00b6 7B68     		ldr	r3, [r7, #4]
 3155 00b8 1B68     		ldr	r3, [r3]
 3156 00ba 8021     		movs	r1, #128
 3157 00bc 0902     		lsls	r1, r1, #8
 3158 00be 0A43     		orrs	r2, r1
 3159 00c0 5A64     		str	r2, [r3, #68]
1129:Drivers/STM32F0xx_HAL_Driver/Src/stm32f0xx_hal_tim_ex.c **** 
1130:Drivers/STM32F0xx_HAL_Driver/Src/stm32f0xx_hal_tim_ex.c ****   /* Enable the Peripheral, except in trigger mode where enable is automatically done with trigger 
1131:Drivers/STM32F0xx_HAL_Driver/Src/stm32f0xx_hal_tim_ex.c ****   if (IS_TIM_SLAVE_INSTANCE(htim->Instance))
 3160              		.loc 1 1131 7
 3161 00c2 7B68     		ldr	r3, [r7, #4]
 3162 00c4 1B68     		ldr	r3, [r3]
 3163              		.loc 1 1131 6
 3164 00c6 164A     		ldr	r2, .L217
 3165 00c8 9342     		cmp	r3, r2
 3166 00ca 09D0     		beq	.L213
 3167              		.loc 1 1131 7 discriminator 1
 3168 00cc 7B68     		ldr	r3, [r7, #4]
 3169 00ce 1B68     		ldr	r3, [r3]
ARM GAS  /var/folders/d0/cymppscj10lcmm48h781wrc80000gn/T//cc0qcKWW.s 			page 76


 3170 00d0 144A     		ldr	r2, .L217+4
 3171 00d2 9342     		cmp	r3, r2
 3172 00d4 04D0     		beq	.L213
 3173              		.loc 1 1131 7 is_stmt 0 discriminator 2
 3174 00d6 7B68     		ldr	r3, [r7, #4]
 3175 00d8 1B68     		ldr	r3, [r3]
 3176 00da 134A     		ldr	r2, .L217+8
 3177 00dc 9342     		cmp	r3, r2
 3178 00de 11D1     		bne	.L214
 3179              	.L213:
1132:Drivers/STM32F0xx_HAL_Driver/Src/stm32f0xx_hal_tim_ex.c ****   {
1133:Drivers/STM32F0xx_HAL_Driver/Src/stm32f0xx_hal_tim_ex.c ****     tmpsmcr = htim->Instance->SMCR & TIM_SMCR_SMS;
 3180              		.loc 1 1133 19 is_stmt 1
 3181 00e0 7B68     		ldr	r3, [r7, #4]
 3182 00e2 1B68     		ldr	r3, [r3]
 3183              		.loc 1 1133 29
 3184 00e4 9B68     		ldr	r3, [r3, #8]
 3185              		.loc 1 1133 13
 3186 00e6 0722     		movs	r2, #7
 3187 00e8 1340     		ands	r3, r2
 3188 00ea FB60     		str	r3, [r7, #12]
1134:Drivers/STM32F0xx_HAL_Driver/Src/stm32f0xx_hal_tim_ex.c ****     if (!IS_TIM_SLAVEMODE_TRIGGER_ENABLED(tmpsmcr))
 3189              		.loc 1 1134 8
 3190 00ec FB68     		ldr	r3, [r7, #12]
 3191 00ee 062B     		cmp	r3, #6
 3192 00f0 10D0     		beq	.L216
1135:Drivers/STM32F0xx_HAL_Driver/Src/stm32f0xx_hal_tim_ex.c ****     {
1136:Drivers/STM32F0xx_HAL_Driver/Src/stm32f0xx_hal_tim_ex.c ****       __HAL_TIM_ENABLE(htim);
 3193              		.loc 1 1136 7
 3194 00f2 7B68     		ldr	r3, [r7, #4]
 3195 00f4 1B68     		ldr	r3, [r3]
 3196 00f6 1A68     		ldr	r2, [r3]
 3197 00f8 7B68     		ldr	r3, [r7, #4]
 3198 00fa 1B68     		ldr	r3, [r3]
 3199 00fc 0121     		movs	r1, #1
 3200 00fe 0A43     		orrs	r2, r1
 3201 0100 1A60     		str	r2, [r3]
1134:Drivers/STM32F0xx_HAL_Driver/Src/stm32f0xx_hal_tim_ex.c ****     if (!IS_TIM_SLAVEMODE_TRIGGER_ENABLED(tmpsmcr))
 3202              		.loc 1 1134 8
 3203 0102 07E0     		b	.L216
 3204              	.L214:
1137:Drivers/STM32F0xx_HAL_Driver/Src/stm32f0xx_hal_tim_ex.c ****     }
1138:Drivers/STM32F0xx_HAL_Driver/Src/stm32f0xx_hal_tim_ex.c ****   }
1139:Drivers/STM32F0xx_HAL_Driver/Src/stm32f0xx_hal_tim_ex.c ****   else
1140:Drivers/STM32F0xx_HAL_Driver/Src/stm32f0xx_hal_tim_ex.c ****   {
1141:Drivers/STM32F0xx_HAL_Driver/Src/stm32f0xx_hal_tim_ex.c ****     __HAL_TIM_ENABLE(htim);
 3205              		.loc 1 1141 5
 3206 0104 7B68     		ldr	r3, [r7, #4]
 3207 0106 1B68     		ldr	r3, [r3]
 3208 0108 1A68     		ldr	r2, [r3]
 3209 010a 7B68     		ldr	r3, [r7, #4]
 3210 010c 1B68     		ldr	r3, [r3]
 3211 010e 0121     		movs	r1, #1
 3212 0110 0A43     		orrs	r2, r1
 3213 0112 1A60     		str	r2, [r3]
 3214              	.L216:
1142:Drivers/STM32F0xx_HAL_Driver/Src/stm32f0xx_hal_tim_ex.c ****   }
ARM GAS  /var/folders/d0/cymppscj10lcmm48h781wrc80000gn/T//cc0qcKWW.s 			page 77


1143:Drivers/STM32F0xx_HAL_Driver/Src/stm32f0xx_hal_tim_ex.c **** 
1144:Drivers/STM32F0xx_HAL_Driver/Src/stm32f0xx_hal_tim_ex.c ****   /* Return function status */
1145:Drivers/STM32F0xx_HAL_Driver/Src/stm32f0xx_hal_tim_ex.c ****   return HAL_OK;
 3215              		.loc 1 1145 10
 3216 0114 0023     		movs	r3, #0
 3217              	.L206:
1146:Drivers/STM32F0xx_HAL_Driver/Src/stm32f0xx_hal_tim_ex.c **** }
 3218              		.loc 1 1146 1
 3219 0116 1800     		movs	r0, r3
 3220 0118 BD46     		mov	sp, r7
 3221 011a 04B0     		add	sp, sp, #16
 3222              		@ sp needed
 3223 011c 80BD     		pop	{r7, pc}
 3224              	.L218:
 3225 011e C046     		.align	2
 3226              	.L217:
 3227 0120 002C0140 		.word	1073818624
 3228 0124 00040040 		.word	1073742848
 3229 0128 00400140 		.word	1073823744
 3230              		.cfi_endproc
 3231              	.LFE56:
 3233              		.section	.text.HAL_TIMEx_PWMN_Stop,"ax",%progbits
 3234              		.align	1
 3235              		.global	HAL_TIMEx_PWMN_Stop
 3236              		.syntax unified
 3237              		.code	16
 3238              		.thumb_func
 3240              	HAL_TIMEx_PWMN_Stop:
 3241              	.LFB57:
1147:Drivers/STM32F0xx_HAL_Driver/Src/stm32f0xx_hal_tim_ex.c **** 
1148:Drivers/STM32F0xx_HAL_Driver/Src/stm32f0xx_hal_tim_ex.c **** /**
1149:Drivers/STM32F0xx_HAL_Driver/Src/stm32f0xx_hal_tim_ex.c ****   * @brief  Stops the PWM signal generation on the complementary output.
1150:Drivers/STM32F0xx_HAL_Driver/Src/stm32f0xx_hal_tim_ex.c ****   * @param  htim TIM handle
1151:Drivers/STM32F0xx_HAL_Driver/Src/stm32f0xx_hal_tim_ex.c ****   * @param  Channel TIM Channel to be disabled
1152:Drivers/STM32F0xx_HAL_Driver/Src/stm32f0xx_hal_tim_ex.c ****   *          This parameter can be one of the following values:
1153:Drivers/STM32F0xx_HAL_Driver/Src/stm32f0xx_hal_tim_ex.c ****   *            @arg TIM_CHANNEL_1: TIM Channel 1 selected
1154:Drivers/STM32F0xx_HAL_Driver/Src/stm32f0xx_hal_tim_ex.c ****   *            @arg TIM_CHANNEL_2: TIM Channel 2 selected
1155:Drivers/STM32F0xx_HAL_Driver/Src/stm32f0xx_hal_tim_ex.c ****   *            @arg TIM_CHANNEL_3: TIM Channel 3 selected
1156:Drivers/STM32F0xx_HAL_Driver/Src/stm32f0xx_hal_tim_ex.c ****   * @retval HAL status
1157:Drivers/STM32F0xx_HAL_Driver/Src/stm32f0xx_hal_tim_ex.c ****   */
1158:Drivers/STM32F0xx_HAL_Driver/Src/stm32f0xx_hal_tim_ex.c **** HAL_StatusTypeDef HAL_TIMEx_PWMN_Stop(TIM_HandleTypeDef *htim, uint32_t Channel)
1159:Drivers/STM32F0xx_HAL_Driver/Src/stm32f0xx_hal_tim_ex.c **** {
 3242              		.loc 1 1159 1
 3243              		.cfi_startproc
 3244              		@ args = 0, pretend = 0, frame = 8
 3245              		@ frame_needed = 1, uses_anonymous_args = 0
 3246 0000 80B5     		push	{r7, lr}
 3247              	.LCFI51:
 3248              		.cfi_def_cfa_offset 8
 3249              		.cfi_offset 7, -8
 3250              		.cfi_offset 14, -4
 3251 0002 82B0     		sub	sp, sp, #8
 3252              	.LCFI52:
 3253              		.cfi_def_cfa_offset 16
 3254 0004 00AF     		add	r7, sp, #0
 3255              	.LCFI53:
 3256              		.cfi_def_cfa_register 7
ARM GAS  /var/folders/d0/cymppscj10lcmm48h781wrc80000gn/T//cc0qcKWW.s 			page 78


 3257 0006 7860     		str	r0, [r7, #4]
 3258 0008 3960     		str	r1, [r7]
1160:Drivers/STM32F0xx_HAL_Driver/Src/stm32f0xx_hal_tim_ex.c ****   /* Check the parameters */
1161:Drivers/STM32F0xx_HAL_Driver/Src/stm32f0xx_hal_tim_ex.c ****   assert_param(IS_TIM_CCXN_INSTANCE(htim->Instance, Channel));
1162:Drivers/STM32F0xx_HAL_Driver/Src/stm32f0xx_hal_tim_ex.c **** 
1163:Drivers/STM32F0xx_HAL_Driver/Src/stm32f0xx_hal_tim_ex.c ****   /* Disable the complementary PWM output  */
1164:Drivers/STM32F0xx_HAL_Driver/Src/stm32f0xx_hal_tim_ex.c ****   TIM_CCxNChannelCmd(htim->Instance, Channel, TIM_CCxN_DISABLE);
 3259              		.loc 1 1164 3
 3260 000a 7B68     		ldr	r3, [r7, #4]
 3261 000c 1B68     		ldr	r3, [r3]
 3262 000e 3968     		ldr	r1, [r7]
 3263 0010 0022     		movs	r2, #0
 3264 0012 1800     		movs	r0, r3
 3265 0014 FFF7FEFF 		bl	TIM_CCxNChannelCmd
1165:Drivers/STM32F0xx_HAL_Driver/Src/stm32f0xx_hal_tim_ex.c **** 
1166:Drivers/STM32F0xx_HAL_Driver/Src/stm32f0xx_hal_tim_ex.c ****   /* Disable the Main Output */
1167:Drivers/STM32F0xx_HAL_Driver/Src/stm32f0xx_hal_tim_ex.c ****   __HAL_TIM_MOE_DISABLE(htim);
 3266              		.loc 1 1167 3
 3267 0018 7B68     		ldr	r3, [r7, #4]
 3268 001a 1B68     		ldr	r3, [r3]
 3269 001c 1B6A     		ldr	r3, [r3, #32]
 3270 001e 234A     		ldr	r2, .L229
 3271 0020 1340     		ands	r3, r2
 3272 0022 0DD1     		bne	.L220
 3273              		.loc 1 1167 3 is_stmt 0 discriminator 1
 3274 0024 7B68     		ldr	r3, [r7, #4]
 3275 0026 1B68     		ldr	r3, [r3]
 3276 0028 1B6A     		ldr	r3, [r3, #32]
 3277 002a 214A     		ldr	r2, .L229+4
 3278 002c 1340     		ands	r3, r2
 3279 002e 07D1     		bne	.L220
 3280              		.loc 1 1167 3 discriminator 2
 3281 0030 7B68     		ldr	r3, [r7, #4]
 3282 0032 1B68     		ldr	r3, [r3]
 3283 0034 5A6C     		ldr	r2, [r3, #68]
 3284 0036 7B68     		ldr	r3, [r7, #4]
 3285 0038 1B68     		ldr	r3, [r3]
 3286 003a 1E49     		ldr	r1, .L229+8
 3287 003c 0A40     		ands	r2, r1
 3288 003e 5A64     		str	r2, [r3, #68]
 3289              	.L220:
1168:Drivers/STM32F0xx_HAL_Driver/Src/stm32f0xx_hal_tim_ex.c **** 
1169:Drivers/STM32F0xx_HAL_Driver/Src/stm32f0xx_hal_tim_ex.c ****   /* Disable the Peripheral */
1170:Drivers/STM32F0xx_HAL_Driver/Src/stm32f0xx_hal_tim_ex.c ****   __HAL_TIM_DISABLE(htim);
 3290              		.loc 1 1170 3 is_stmt 1
 3291 0040 7B68     		ldr	r3, [r7, #4]
 3292 0042 1B68     		ldr	r3, [r3]
 3293 0044 1B6A     		ldr	r3, [r3, #32]
 3294 0046 194A     		ldr	r2, .L229
 3295 0048 1340     		ands	r3, r2
 3296 004a 0DD1     		bne	.L221
 3297              		.loc 1 1170 3 is_stmt 0 discriminator 1
 3298 004c 7B68     		ldr	r3, [r7, #4]
 3299 004e 1B68     		ldr	r3, [r3]
 3300 0050 1B6A     		ldr	r3, [r3, #32]
 3301 0052 174A     		ldr	r2, .L229+4
 3302 0054 1340     		ands	r3, r2
ARM GAS  /var/folders/d0/cymppscj10lcmm48h781wrc80000gn/T//cc0qcKWW.s 			page 79


 3303 0056 07D1     		bne	.L221
 3304              		.loc 1 1170 3 discriminator 2
 3305 0058 7B68     		ldr	r3, [r7, #4]
 3306 005a 1B68     		ldr	r3, [r3]
 3307 005c 1A68     		ldr	r2, [r3]
 3308 005e 7B68     		ldr	r3, [r7, #4]
 3309 0060 1B68     		ldr	r3, [r3]
 3310 0062 0121     		movs	r1, #1
 3311 0064 8A43     		bics	r2, r1
 3312 0066 1A60     		str	r2, [r3]
 3313              	.L221:
1171:Drivers/STM32F0xx_HAL_Driver/Src/stm32f0xx_hal_tim_ex.c **** 
1172:Drivers/STM32F0xx_HAL_Driver/Src/stm32f0xx_hal_tim_ex.c ****   /* Set the TIM complementary channel state */
1173:Drivers/STM32F0xx_HAL_Driver/Src/stm32f0xx_hal_tim_ex.c ****   TIM_CHANNEL_N_STATE_SET(htim, Channel, HAL_TIM_CHANNEL_STATE_READY);
 3314              		.loc 1 1173 3 is_stmt 1
 3315 0068 3B68     		ldr	r3, [r7]
 3316 006a 002B     		cmp	r3, #0
 3317 006c 04D1     		bne	.L222
 3318              		.loc 1 1173 3 is_stmt 0 discriminator 1
 3319 006e 7B68     		ldr	r3, [r7, #4]
 3320 0070 4222     		movs	r2, #66
 3321 0072 0121     		movs	r1, #1
 3322 0074 9954     		strb	r1, [r3, r2]
 3323 0076 13E0     		b	.L223
 3324              	.L222:
 3325              		.loc 1 1173 3 discriminator 2
 3326 0078 3B68     		ldr	r3, [r7]
 3327 007a 042B     		cmp	r3, #4
 3328 007c 04D1     		bne	.L224
 3329              		.loc 1 1173 3 discriminator 3
 3330 007e 7B68     		ldr	r3, [r7, #4]
 3331 0080 4322     		movs	r2, #67
 3332 0082 0121     		movs	r1, #1
 3333 0084 9954     		strb	r1, [r3, r2]
 3334 0086 0BE0     		b	.L223
 3335              	.L224:
 3336              		.loc 1 1173 3 discriminator 4
 3337 0088 3B68     		ldr	r3, [r7]
 3338 008a 082B     		cmp	r3, #8
 3339 008c 04D1     		bne	.L226
 3340              		.loc 1 1173 3 discriminator 6
 3341 008e 7B68     		ldr	r3, [r7, #4]
 3342 0090 4422     		movs	r2, #68
 3343 0092 0121     		movs	r1, #1
 3344 0094 9954     		strb	r1, [r3, r2]
 3345 0096 03E0     		b	.L223
 3346              	.L226:
 3347              		.loc 1 1173 3 discriminator 7
 3348 0098 7B68     		ldr	r3, [r7, #4]
 3349 009a 4522     		movs	r2, #69
 3350 009c 0121     		movs	r1, #1
 3351 009e 9954     		strb	r1, [r3, r2]
 3352              	.L223:
1174:Drivers/STM32F0xx_HAL_Driver/Src/stm32f0xx_hal_tim_ex.c **** 
1175:Drivers/STM32F0xx_HAL_Driver/Src/stm32f0xx_hal_tim_ex.c ****   /* Return function status */
1176:Drivers/STM32F0xx_HAL_Driver/Src/stm32f0xx_hal_tim_ex.c ****   return HAL_OK;
 3353              		.loc 1 1176 10 is_stmt 1
ARM GAS  /var/folders/d0/cymppscj10lcmm48h781wrc80000gn/T//cc0qcKWW.s 			page 80


 3354 00a0 0023     		movs	r3, #0
1177:Drivers/STM32F0xx_HAL_Driver/Src/stm32f0xx_hal_tim_ex.c **** }
 3355              		.loc 1 1177 1
 3356 00a2 1800     		movs	r0, r3
 3357 00a4 BD46     		mov	sp, r7
 3358 00a6 02B0     		add	sp, sp, #8
 3359              		@ sp needed
 3360 00a8 80BD     		pop	{r7, pc}
 3361              	.L230:
 3362 00aa C046     		.align	2
 3363              	.L229:
 3364 00ac 11110000 		.word	4369
 3365 00b0 44040000 		.word	1092
 3366 00b4 FF7FFFFF 		.word	-32769
 3367              		.cfi_endproc
 3368              	.LFE57:
 3370              		.section	.text.HAL_TIMEx_PWMN_Start_IT,"ax",%progbits
 3371              		.align	1
 3372              		.global	HAL_TIMEx_PWMN_Start_IT
 3373              		.syntax unified
 3374              		.code	16
 3375              		.thumb_func
 3377              	HAL_TIMEx_PWMN_Start_IT:
 3378              	.LFB58:
1178:Drivers/STM32F0xx_HAL_Driver/Src/stm32f0xx_hal_tim_ex.c **** 
1179:Drivers/STM32F0xx_HAL_Driver/Src/stm32f0xx_hal_tim_ex.c **** /**
1180:Drivers/STM32F0xx_HAL_Driver/Src/stm32f0xx_hal_tim_ex.c ****   * @brief  Starts the PWM signal generation in interrupt mode on the
1181:Drivers/STM32F0xx_HAL_Driver/Src/stm32f0xx_hal_tim_ex.c ****   *         complementary output.
1182:Drivers/STM32F0xx_HAL_Driver/Src/stm32f0xx_hal_tim_ex.c ****   * @param  htim TIM handle
1183:Drivers/STM32F0xx_HAL_Driver/Src/stm32f0xx_hal_tim_ex.c ****   * @param  Channel TIM Channel to be disabled
1184:Drivers/STM32F0xx_HAL_Driver/Src/stm32f0xx_hal_tim_ex.c ****   *          This parameter can be one of the following values:
1185:Drivers/STM32F0xx_HAL_Driver/Src/stm32f0xx_hal_tim_ex.c ****   *            @arg TIM_CHANNEL_1: TIM Channel 1 selected
1186:Drivers/STM32F0xx_HAL_Driver/Src/stm32f0xx_hal_tim_ex.c ****   *            @arg TIM_CHANNEL_2: TIM Channel 2 selected
1187:Drivers/STM32F0xx_HAL_Driver/Src/stm32f0xx_hal_tim_ex.c ****   *            @arg TIM_CHANNEL_3: TIM Channel 3 selected
1188:Drivers/STM32F0xx_HAL_Driver/Src/stm32f0xx_hal_tim_ex.c ****   * @retval HAL status
1189:Drivers/STM32F0xx_HAL_Driver/Src/stm32f0xx_hal_tim_ex.c ****   */
1190:Drivers/STM32F0xx_HAL_Driver/Src/stm32f0xx_hal_tim_ex.c **** HAL_StatusTypeDef HAL_TIMEx_PWMN_Start_IT(TIM_HandleTypeDef *htim, uint32_t Channel)
1191:Drivers/STM32F0xx_HAL_Driver/Src/stm32f0xx_hal_tim_ex.c **** {
 3379              		.loc 1 1191 1
 3380              		.cfi_startproc
 3381              		@ args = 0, pretend = 0, frame = 16
 3382              		@ frame_needed = 1, uses_anonymous_args = 0
 3383 0000 80B5     		push	{r7, lr}
 3384              	.LCFI54:
 3385              		.cfi_def_cfa_offset 8
 3386              		.cfi_offset 7, -8
 3387              		.cfi_offset 14, -4
 3388 0002 84B0     		sub	sp, sp, #16
 3389              	.LCFI55:
 3390              		.cfi_def_cfa_offset 24
 3391 0004 00AF     		add	r7, sp, #0
 3392              	.LCFI56:
 3393              		.cfi_def_cfa_register 7
 3394 0006 7860     		str	r0, [r7, #4]
 3395 0008 3960     		str	r1, [r7]
1192:Drivers/STM32F0xx_HAL_Driver/Src/stm32f0xx_hal_tim_ex.c ****   HAL_StatusTypeDef status = HAL_OK;
 3396              		.loc 1 1192 21
ARM GAS  /var/folders/d0/cymppscj10lcmm48h781wrc80000gn/T//cc0qcKWW.s 			page 81


 3397 000a 0F23     		movs	r3, #15
 3398 000c FB18     		adds	r3, r7, r3
 3399 000e 0022     		movs	r2, #0
 3400 0010 1A70     		strb	r2, [r3]
1193:Drivers/STM32F0xx_HAL_Driver/Src/stm32f0xx_hal_tim_ex.c ****   uint32_t tmpsmcr;
1194:Drivers/STM32F0xx_HAL_Driver/Src/stm32f0xx_hal_tim_ex.c **** 
1195:Drivers/STM32F0xx_HAL_Driver/Src/stm32f0xx_hal_tim_ex.c ****   /* Check the parameters */
1196:Drivers/STM32F0xx_HAL_Driver/Src/stm32f0xx_hal_tim_ex.c ****   assert_param(IS_TIM_CCXN_INSTANCE(htim->Instance, Channel));
1197:Drivers/STM32F0xx_HAL_Driver/Src/stm32f0xx_hal_tim_ex.c **** 
1198:Drivers/STM32F0xx_HAL_Driver/Src/stm32f0xx_hal_tim_ex.c ****   /* Check the TIM complementary channel state */
1199:Drivers/STM32F0xx_HAL_Driver/Src/stm32f0xx_hal_tim_ex.c ****   if (TIM_CHANNEL_N_STATE_GET(htim, Channel) != HAL_TIM_CHANNEL_STATE_READY)
 3401              		.loc 1 1199 46
 3402 0012 3B68     		ldr	r3, [r7]
 3403 0014 002B     		cmp	r3, #0
 3404 0016 08D1     		bne	.L232
 3405              		.loc 1 1199 7 discriminator 1
 3406 0018 7B68     		ldr	r3, [r7, #4]
 3407 001a 4222     		movs	r2, #66
 3408 001c 9B5C     		ldrb	r3, [r3, r2]
 3409 001e DBB2     		uxtb	r3, r3
 3410              		.loc 1 1199 46 discriminator 1
 3411 0020 013B     		subs	r3, r3, #1
 3412 0022 5A1E     		subs	r2, r3, #1
 3413 0024 9341     		sbcs	r3, r3, r2
 3414 0026 DBB2     		uxtb	r3, r3
 3415 0028 1FE0     		b	.L233
 3416              	.L232:
 3417              		.loc 1 1199 46 is_stmt 0 discriminator 2
 3418 002a 3B68     		ldr	r3, [r7]
 3419 002c 042B     		cmp	r3, #4
 3420 002e 08D1     		bne	.L234
 3421              		.loc 1 1199 7 is_stmt 1 discriminator 4
 3422 0030 7B68     		ldr	r3, [r7, #4]
 3423 0032 4322     		movs	r2, #67
 3424 0034 9B5C     		ldrb	r3, [r3, r2]
 3425 0036 DBB2     		uxtb	r3, r3
 3426              		.loc 1 1199 46 discriminator 4
 3427 0038 013B     		subs	r3, r3, #1
 3428 003a 5A1E     		subs	r2, r3, #1
 3429 003c 9341     		sbcs	r3, r3, r2
 3430 003e DBB2     		uxtb	r3, r3
 3431 0040 13E0     		b	.L233
 3432              	.L234:
 3433              		.loc 1 1199 46 is_stmt 0 discriminator 5
 3434 0042 3B68     		ldr	r3, [r7]
 3435 0044 082B     		cmp	r3, #8
 3436 0046 08D1     		bne	.L236
 3437              		.loc 1 1199 7 is_stmt 1 discriminator 7
 3438 0048 7B68     		ldr	r3, [r7, #4]
 3439 004a 4422     		movs	r2, #68
 3440 004c 9B5C     		ldrb	r3, [r3, r2]
 3441 004e DBB2     		uxtb	r3, r3
 3442              		.loc 1 1199 46 discriminator 7
 3443 0050 013B     		subs	r3, r3, #1
 3444 0052 5A1E     		subs	r2, r3, #1
 3445 0054 9341     		sbcs	r3, r3, r2
 3446 0056 DBB2     		uxtb	r3, r3
ARM GAS  /var/folders/d0/cymppscj10lcmm48h781wrc80000gn/T//cc0qcKWW.s 			page 82


 3447 0058 07E0     		b	.L233
 3448              	.L236:
 3449              		.loc 1 1199 7 discriminator 8
 3450 005a 7B68     		ldr	r3, [r7, #4]
 3451 005c 4522     		movs	r2, #69
 3452 005e 9B5C     		ldrb	r3, [r3, r2]
 3453 0060 DBB2     		uxtb	r3, r3
 3454              		.loc 1 1199 46 discriminator 8
 3455 0062 013B     		subs	r3, r3, #1
 3456 0064 5A1E     		subs	r2, r3, #1
 3457 0066 9341     		sbcs	r3, r3, r2
 3458 0068 DBB2     		uxtb	r3, r3
 3459              	.L233:
 3460              		.loc 1 1199 6 discriminator 12
 3461 006a 002B     		cmp	r3, #0
 3462 006c 01D0     		beq	.L238
1200:Drivers/STM32F0xx_HAL_Driver/Src/stm32f0xx_hal_tim_ex.c ****   {
1201:Drivers/STM32F0xx_HAL_Driver/Src/stm32f0xx_hal_tim_ex.c ****     return HAL_ERROR;
 3463              		.loc 1 1201 12
 3464 006e 0123     		movs	r3, #1
 3465 0070 91E0     		b	.L239
 3466              	.L238:
1202:Drivers/STM32F0xx_HAL_Driver/Src/stm32f0xx_hal_tim_ex.c ****   }
1203:Drivers/STM32F0xx_HAL_Driver/Src/stm32f0xx_hal_tim_ex.c **** 
1204:Drivers/STM32F0xx_HAL_Driver/Src/stm32f0xx_hal_tim_ex.c ****   /* Set the TIM complementary channel state */
1205:Drivers/STM32F0xx_HAL_Driver/Src/stm32f0xx_hal_tim_ex.c ****   TIM_CHANNEL_N_STATE_SET(htim, Channel, HAL_TIM_CHANNEL_STATE_BUSY);
 3467              		.loc 1 1205 3
 3468 0072 3B68     		ldr	r3, [r7]
 3469 0074 002B     		cmp	r3, #0
 3470 0076 04D1     		bne	.L240
 3471              		.loc 1 1205 3 is_stmt 0 discriminator 1
 3472 0078 7B68     		ldr	r3, [r7, #4]
 3473 007a 4222     		movs	r2, #66
 3474 007c 0221     		movs	r1, #2
 3475 007e 9954     		strb	r1, [r3, r2]
 3476 0080 13E0     		b	.L241
 3477              	.L240:
 3478              		.loc 1 1205 3 discriminator 2
 3479 0082 3B68     		ldr	r3, [r7]
 3480 0084 042B     		cmp	r3, #4
 3481 0086 04D1     		bne	.L242
 3482              		.loc 1 1205 3 discriminator 3
 3483 0088 7B68     		ldr	r3, [r7, #4]
 3484 008a 4322     		movs	r2, #67
 3485 008c 0221     		movs	r1, #2
 3486 008e 9954     		strb	r1, [r3, r2]
 3487 0090 0BE0     		b	.L241
 3488              	.L242:
 3489              		.loc 1 1205 3 discriminator 4
 3490 0092 3B68     		ldr	r3, [r7]
 3491 0094 082B     		cmp	r3, #8
 3492 0096 04D1     		bne	.L244
 3493              		.loc 1 1205 3 discriminator 6
 3494 0098 7B68     		ldr	r3, [r7, #4]
 3495 009a 4422     		movs	r2, #68
 3496 009c 0221     		movs	r1, #2
 3497 009e 9954     		strb	r1, [r3, r2]
ARM GAS  /var/folders/d0/cymppscj10lcmm48h781wrc80000gn/T//cc0qcKWW.s 			page 83


 3498 00a0 03E0     		b	.L241
 3499              	.L244:
 3500              		.loc 1 1205 3 discriminator 7
 3501 00a2 7B68     		ldr	r3, [r7, #4]
 3502 00a4 4522     		movs	r2, #69
 3503 00a6 0221     		movs	r1, #2
 3504 00a8 9954     		strb	r1, [r3, r2]
 3505              	.L241:
1206:Drivers/STM32F0xx_HAL_Driver/Src/stm32f0xx_hal_tim_ex.c **** 
1207:Drivers/STM32F0xx_HAL_Driver/Src/stm32f0xx_hal_tim_ex.c ****   switch (Channel)
 3506              		.loc 1 1207 3 is_stmt 1
 3507 00aa 3B68     		ldr	r3, [r7]
 3508 00ac 082B     		cmp	r3, #8
 3509 00ae 1BD0     		beq	.L246
 3510 00b0 3B68     		ldr	r3, [r7]
 3511 00b2 082B     		cmp	r3, #8
 3512 00b4 21D8     		bhi	.L247
 3513 00b6 3B68     		ldr	r3, [r7]
 3514 00b8 002B     		cmp	r3, #0
 3515 00ba 03D0     		beq	.L248
 3516 00bc 3B68     		ldr	r3, [r7]
 3517 00be 042B     		cmp	r3, #4
 3518 00c0 09D0     		beq	.L249
 3519 00c2 1AE0     		b	.L247
 3520              	.L248:
1208:Drivers/STM32F0xx_HAL_Driver/Src/stm32f0xx_hal_tim_ex.c ****   {
1209:Drivers/STM32F0xx_HAL_Driver/Src/stm32f0xx_hal_tim_ex.c ****     case TIM_CHANNEL_1:
1210:Drivers/STM32F0xx_HAL_Driver/Src/stm32f0xx_hal_tim_ex.c ****     {
1211:Drivers/STM32F0xx_HAL_Driver/Src/stm32f0xx_hal_tim_ex.c ****       /* Enable the TIM Capture/Compare 1 interrupt */
1212:Drivers/STM32F0xx_HAL_Driver/Src/stm32f0xx_hal_tim_ex.c ****       __HAL_TIM_ENABLE_IT(htim, TIM_IT_CC1);
 3521              		.loc 1 1212 7
 3522 00c4 7B68     		ldr	r3, [r7, #4]
 3523 00c6 1B68     		ldr	r3, [r3]
 3524 00c8 DA68     		ldr	r2, [r3, #12]
 3525 00ca 7B68     		ldr	r3, [r7, #4]
 3526 00cc 1B68     		ldr	r3, [r3]
 3527 00ce 0221     		movs	r1, #2
 3528 00d0 0A43     		orrs	r2, r1
 3529 00d2 DA60     		str	r2, [r3, #12]
1213:Drivers/STM32F0xx_HAL_Driver/Src/stm32f0xx_hal_tim_ex.c ****       break;
 3530              		.loc 1 1213 7
 3531 00d4 16E0     		b	.L250
 3532              	.L249:
1214:Drivers/STM32F0xx_HAL_Driver/Src/stm32f0xx_hal_tim_ex.c ****     }
1215:Drivers/STM32F0xx_HAL_Driver/Src/stm32f0xx_hal_tim_ex.c **** 
1216:Drivers/STM32F0xx_HAL_Driver/Src/stm32f0xx_hal_tim_ex.c ****     case TIM_CHANNEL_2:
1217:Drivers/STM32F0xx_HAL_Driver/Src/stm32f0xx_hal_tim_ex.c ****     {
1218:Drivers/STM32F0xx_HAL_Driver/Src/stm32f0xx_hal_tim_ex.c ****       /* Enable the TIM Capture/Compare 2 interrupt */
1219:Drivers/STM32F0xx_HAL_Driver/Src/stm32f0xx_hal_tim_ex.c ****       __HAL_TIM_ENABLE_IT(htim, TIM_IT_CC2);
 3533              		.loc 1 1219 7
 3534 00d6 7B68     		ldr	r3, [r7, #4]
 3535 00d8 1B68     		ldr	r3, [r3]
 3536 00da DA68     		ldr	r2, [r3, #12]
 3537 00dc 7B68     		ldr	r3, [r7, #4]
 3538 00de 1B68     		ldr	r3, [r3]
 3539 00e0 0421     		movs	r1, #4
 3540 00e2 0A43     		orrs	r2, r1
ARM GAS  /var/folders/d0/cymppscj10lcmm48h781wrc80000gn/T//cc0qcKWW.s 			page 84


 3541 00e4 DA60     		str	r2, [r3, #12]
1220:Drivers/STM32F0xx_HAL_Driver/Src/stm32f0xx_hal_tim_ex.c ****       break;
 3542              		.loc 1 1220 7
 3543 00e6 0DE0     		b	.L250
 3544              	.L246:
1221:Drivers/STM32F0xx_HAL_Driver/Src/stm32f0xx_hal_tim_ex.c ****     }
1222:Drivers/STM32F0xx_HAL_Driver/Src/stm32f0xx_hal_tim_ex.c **** 
1223:Drivers/STM32F0xx_HAL_Driver/Src/stm32f0xx_hal_tim_ex.c ****     case TIM_CHANNEL_3:
1224:Drivers/STM32F0xx_HAL_Driver/Src/stm32f0xx_hal_tim_ex.c ****     {
1225:Drivers/STM32F0xx_HAL_Driver/Src/stm32f0xx_hal_tim_ex.c ****       /* Enable the TIM Capture/Compare 3 interrupt */
1226:Drivers/STM32F0xx_HAL_Driver/Src/stm32f0xx_hal_tim_ex.c ****       __HAL_TIM_ENABLE_IT(htim, TIM_IT_CC3);
 3545              		.loc 1 1226 7
 3546 00e8 7B68     		ldr	r3, [r7, #4]
 3547 00ea 1B68     		ldr	r3, [r3]
 3548 00ec DA68     		ldr	r2, [r3, #12]
 3549 00ee 7B68     		ldr	r3, [r7, #4]
 3550 00f0 1B68     		ldr	r3, [r3]
 3551 00f2 0821     		movs	r1, #8
 3552 00f4 0A43     		orrs	r2, r1
 3553 00f6 DA60     		str	r2, [r3, #12]
1227:Drivers/STM32F0xx_HAL_Driver/Src/stm32f0xx_hal_tim_ex.c ****       break;
 3554              		.loc 1 1227 7
 3555 00f8 04E0     		b	.L250
 3556              	.L247:
1228:Drivers/STM32F0xx_HAL_Driver/Src/stm32f0xx_hal_tim_ex.c ****     }
1229:Drivers/STM32F0xx_HAL_Driver/Src/stm32f0xx_hal_tim_ex.c **** 
1230:Drivers/STM32F0xx_HAL_Driver/Src/stm32f0xx_hal_tim_ex.c ****     default:
1231:Drivers/STM32F0xx_HAL_Driver/Src/stm32f0xx_hal_tim_ex.c ****       status = HAL_ERROR;
 3557              		.loc 1 1231 14
 3558 00fa 0F23     		movs	r3, #15
 3559 00fc FB18     		adds	r3, r7, r3
 3560 00fe 0122     		movs	r2, #1
 3561 0100 1A70     		strb	r2, [r3]
1232:Drivers/STM32F0xx_HAL_Driver/Src/stm32f0xx_hal_tim_ex.c ****       break;
 3562              		.loc 1 1232 7
 3563 0102 C046     		nop
 3564              	.L250:
1233:Drivers/STM32F0xx_HAL_Driver/Src/stm32f0xx_hal_tim_ex.c ****   }
1234:Drivers/STM32F0xx_HAL_Driver/Src/stm32f0xx_hal_tim_ex.c **** 
1235:Drivers/STM32F0xx_HAL_Driver/Src/stm32f0xx_hal_tim_ex.c ****   if (status == HAL_OK)
 3565              		.loc 1 1235 6
 3566 0104 0F23     		movs	r3, #15
 3567 0106 FB18     		adds	r3, r7, r3
 3568 0108 1B78     		ldrb	r3, [r3]
 3569 010a 002B     		cmp	r3, #0
 3570 010c 40D1     		bne	.L251
1236:Drivers/STM32F0xx_HAL_Driver/Src/stm32f0xx_hal_tim_ex.c ****   {
1237:Drivers/STM32F0xx_HAL_Driver/Src/stm32f0xx_hal_tim_ex.c ****     /* Enable the TIM Break interrupt */
1238:Drivers/STM32F0xx_HAL_Driver/Src/stm32f0xx_hal_tim_ex.c ****     __HAL_TIM_ENABLE_IT(htim, TIM_IT_BREAK);
 3571              		.loc 1 1238 5
 3572 010e 7B68     		ldr	r3, [r7, #4]
 3573 0110 1B68     		ldr	r3, [r3]
 3574 0112 DA68     		ldr	r2, [r3, #12]
 3575 0114 7B68     		ldr	r3, [r7, #4]
 3576 0116 1B68     		ldr	r3, [r3]
 3577 0118 8021     		movs	r1, #128
 3578 011a 0A43     		orrs	r2, r1
ARM GAS  /var/folders/d0/cymppscj10lcmm48h781wrc80000gn/T//cc0qcKWW.s 			page 85


 3579 011c DA60     		str	r2, [r3, #12]
1239:Drivers/STM32F0xx_HAL_Driver/Src/stm32f0xx_hal_tim_ex.c **** 
1240:Drivers/STM32F0xx_HAL_Driver/Src/stm32f0xx_hal_tim_ex.c ****     /* Enable the complementary PWM output  */
1241:Drivers/STM32F0xx_HAL_Driver/Src/stm32f0xx_hal_tim_ex.c ****     TIM_CCxNChannelCmd(htim->Instance, Channel, TIM_CCxN_ENABLE);
 3580              		.loc 1 1241 5
 3581 011e 7B68     		ldr	r3, [r7, #4]
 3582 0120 1B68     		ldr	r3, [r3]
 3583 0122 3968     		ldr	r1, [r7]
 3584 0124 0422     		movs	r2, #4
 3585 0126 1800     		movs	r0, r3
 3586 0128 FFF7FEFF 		bl	TIM_CCxNChannelCmd
1242:Drivers/STM32F0xx_HAL_Driver/Src/stm32f0xx_hal_tim_ex.c **** 
1243:Drivers/STM32F0xx_HAL_Driver/Src/stm32f0xx_hal_tim_ex.c ****     /* Enable the Main Output */
1244:Drivers/STM32F0xx_HAL_Driver/Src/stm32f0xx_hal_tim_ex.c ****     __HAL_TIM_MOE_ENABLE(htim);
 3587              		.loc 1 1244 5
 3588 012c 7B68     		ldr	r3, [r7, #4]
 3589 012e 1B68     		ldr	r3, [r3]
 3590 0130 5A6C     		ldr	r2, [r3, #68]
 3591 0132 7B68     		ldr	r3, [r7, #4]
 3592 0134 1B68     		ldr	r3, [r3]
 3593 0136 8021     		movs	r1, #128
 3594 0138 0902     		lsls	r1, r1, #8
 3595 013a 0A43     		orrs	r2, r1
 3596 013c 5A64     		str	r2, [r3, #68]
1245:Drivers/STM32F0xx_HAL_Driver/Src/stm32f0xx_hal_tim_ex.c **** 
1246:Drivers/STM32F0xx_HAL_Driver/Src/stm32f0xx_hal_tim_ex.c ****     /* Enable the Peripheral, except in trigger mode where enable is automatically done with trigge
1247:Drivers/STM32F0xx_HAL_Driver/Src/stm32f0xx_hal_tim_ex.c ****     if (IS_TIM_SLAVE_INSTANCE(htim->Instance))
 3597              		.loc 1 1247 9
 3598 013e 7B68     		ldr	r3, [r7, #4]
 3599 0140 1B68     		ldr	r3, [r3]
 3600              		.loc 1 1247 8
 3601 0142 174A     		ldr	r2, .L255
 3602 0144 9342     		cmp	r3, r2
 3603 0146 09D0     		beq	.L252
 3604              		.loc 1 1247 9 discriminator 1
 3605 0148 7B68     		ldr	r3, [r7, #4]
 3606 014a 1B68     		ldr	r3, [r3]
 3607 014c 154A     		ldr	r2, .L255+4
 3608 014e 9342     		cmp	r3, r2
 3609 0150 04D0     		beq	.L252
 3610              		.loc 1 1247 9 is_stmt 0 discriminator 2
 3611 0152 7B68     		ldr	r3, [r7, #4]
 3612 0154 1B68     		ldr	r3, [r3]
 3613 0156 144A     		ldr	r2, .L255+8
 3614 0158 9342     		cmp	r3, r2
 3615 015a 11D1     		bne	.L253
 3616              	.L252:
1248:Drivers/STM32F0xx_HAL_Driver/Src/stm32f0xx_hal_tim_ex.c ****     {
1249:Drivers/STM32F0xx_HAL_Driver/Src/stm32f0xx_hal_tim_ex.c ****       tmpsmcr = htim->Instance->SMCR & TIM_SMCR_SMS;
 3617              		.loc 1 1249 21 is_stmt 1
 3618 015c 7B68     		ldr	r3, [r7, #4]
 3619 015e 1B68     		ldr	r3, [r3]
 3620              		.loc 1 1249 31
 3621 0160 9B68     		ldr	r3, [r3, #8]
 3622              		.loc 1 1249 15
 3623 0162 0722     		movs	r2, #7
 3624 0164 1340     		ands	r3, r2
ARM GAS  /var/folders/d0/cymppscj10lcmm48h781wrc80000gn/T//cc0qcKWW.s 			page 86


 3625 0166 BB60     		str	r3, [r7, #8]
1250:Drivers/STM32F0xx_HAL_Driver/Src/stm32f0xx_hal_tim_ex.c ****       if (!IS_TIM_SLAVEMODE_TRIGGER_ENABLED(tmpsmcr))
 3626              		.loc 1 1250 10
 3627 0168 BB68     		ldr	r3, [r7, #8]
 3628 016a 062B     		cmp	r3, #6
 3629 016c 10D0     		beq	.L251
1251:Drivers/STM32F0xx_HAL_Driver/Src/stm32f0xx_hal_tim_ex.c ****       {
1252:Drivers/STM32F0xx_HAL_Driver/Src/stm32f0xx_hal_tim_ex.c ****         __HAL_TIM_ENABLE(htim);
 3630              		.loc 1 1252 9
 3631 016e 7B68     		ldr	r3, [r7, #4]
 3632 0170 1B68     		ldr	r3, [r3]
 3633 0172 1A68     		ldr	r2, [r3]
 3634 0174 7B68     		ldr	r3, [r7, #4]
 3635 0176 1B68     		ldr	r3, [r3]
 3636 0178 0121     		movs	r1, #1
 3637 017a 0A43     		orrs	r2, r1
 3638 017c 1A60     		str	r2, [r3]
1250:Drivers/STM32F0xx_HAL_Driver/Src/stm32f0xx_hal_tim_ex.c ****       if (!IS_TIM_SLAVEMODE_TRIGGER_ENABLED(tmpsmcr))
 3639              		.loc 1 1250 10
 3640 017e 07E0     		b	.L251
 3641              	.L253:
1253:Drivers/STM32F0xx_HAL_Driver/Src/stm32f0xx_hal_tim_ex.c ****       }
1254:Drivers/STM32F0xx_HAL_Driver/Src/stm32f0xx_hal_tim_ex.c ****     }
1255:Drivers/STM32F0xx_HAL_Driver/Src/stm32f0xx_hal_tim_ex.c ****     else
1256:Drivers/STM32F0xx_HAL_Driver/Src/stm32f0xx_hal_tim_ex.c ****     {
1257:Drivers/STM32F0xx_HAL_Driver/Src/stm32f0xx_hal_tim_ex.c ****       __HAL_TIM_ENABLE(htim);
 3642              		.loc 1 1257 7
 3643 0180 7B68     		ldr	r3, [r7, #4]
 3644 0182 1B68     		ldr	r3, [r3]
 3645 0184 1A68     		ldr	r2, [r3]
 3646 0186 7B68     		ldr	r3, [r7, #4]
 3647 0188 1B68     		ldr	r3, [r3]
 3648 018a 0121     		movs	r1, #1
 3649 018c 0A43     		orrs	r2, r1
 3650 018e 1A60     		str	r2, [r3]
 3651              	.L251:
1258:Drivers/STM32F0xx_HAL_Driver/Src/stm32f0xx_hal_tim_ex.c ****     }
1259:Drivers/STM32F0xx_HAL_Driver/Src/stm32f0xx_hal_tim_ex.c ****   }
1260:Drivers/STM32F0xx_HAL_Driver/Src/stm32f0xx_hal_tim_ex.c **** 
1261:Drivers/STM32F0xx_HAL_Driver/Src/stm32f0xx_hal_tim_ex.c ****   /* Return function status */
1262:Drivers/STM32F0xx_HAL_Driver/Src/stm32f0xx_hal_tim_ex.c ****   return status;
 3652              		.loc 1 1262 10
 3653 0190 0F23     		movs	r3, #15
 3654 0192 FB18     		adds	r3, r7, r3
 3655 0194 1B78     		ldrb	r3, [r3]
 3656              	.L239:
1263:Drivers/STM32F0xx_HAL_Driver/Src/stm32f0xx_hal_tim_ex.c **** }
 3657              		.loc 1 1263 1
 3658 0196 1800     		movs	r0, r3
 3659 0198 BD46     		mov	sp, r7
 3660 019a 04B0     		add	sp, sp, #16
 3661              		@ sp needed
 3662 019c 80BD     		pop	{r7, pc}
 3663              	.L256:
 3664 019e C046     		.align	2
 3665              	.L255:
 3666 01a0 002C0140 		.word	1073818624
ARM GAS  /var/folders/d0/cymppscj10lcmm48h781wrc80000gn/T//cc0qcKWW.s 			page 87


 3667 01a4 00040040 		.word	1073742848
 3668 01a8 00400140 		.word	1073823744
 3669              		.cfi_endproc
 3670              	.LFE58:
 3672              		.section	.text.HAL_TIMEx_PWMN_Stop_IT,"ax",%progbits
 3673              		.align	1
 3674              		.global	HAL_TIMEx_PWMN_Stop_IT
 3675              		.syntax unified
 3676              		.code	16
 3677              		.thumb_func
 3679              	HAL_TIMEx_PWMN_Stop_IT:
 3680              	.LFB59:
1264:Drivers/STM32F0xx_HAL_Driver/Src/stm32f0xx_hal_tim_ex.c **** 
1265:Drivers/STM32F0xx_HAL_Driver/Src/stm32f0xx_hal_tim_ex.c **** /**
1266:Drivers/STM32F0xx_HAL_Driver/Src/stm32f0xx_hal_tim_ex.c ****   * @brief  Stops the PWM signal generation in interrupt mode on the
1267:Drivers/STM32F0xx_HAL_Driver/Src/stm32f0xx_hal_tim_ex.c ****   *         complementary output.
1268:Drivers/STM32F0xx_HAL_Driver/Src/stm32f0xx_hal_tim_ex.c ****   * @param  htim TIM handle
1269:Drivers/STM32F0xx_HAL_Driver/Src/stm32f0xx_hal_tim_ex.c ****   * @param  Channel TIM Channel to be disabled
1270:Drivers/STM32F0xx_HAL_Driver/Src/stm32f0xx_hal_tim_ex.c ****   *          This parameter can be one of the following values:
1271:Drivers/STM32F0xx_HAL_Driver/Src/stm32f0xx_hal_tim_ex.c ****   *            @arg TIM_CHANNEL_1: TIM Channel 1 selected
1272:Drivers/STM32F0xx_HAL_Driver/Src/stm32f0xx_hal_tim_ex.c ****   *            @arg TIM_CHANNEL_2: TIM Channel 2 selected
1273:Drivers/STM32F0xx_HAL_Driver/Src/stm32f0xx_hal_tim_ex.c ****   *            @arg TIM_CHANNEL_3: TIM Channel 3 selected
1274:Drivers/STM32F0xx_HAL_Driver/Src/stm32f0xx_hal_tim_ex.c ****   * @retval HAL status
1275:Drivers/STM32F0xx_HAL_Driver/Src/stm32f0xx_hal_tim_ex.c ****   */
1276:Drivers/STM32F0xx_HAL_Driver/Src/stm32f0xx_hal_tim_ex.c **** HAL_StatusTypeDef HAL_TIMEx_PWMN_Stop_IT(TIM_HandleTypeDef *htim, uint32_t Channel)
1277:Drivers/STM32F0xx_HAL_Driver/Src/stm32f0xx_hal_tim_ex.c **** {
 3681              		.loc 1 1277 1
 3682              		.cfi_startproc
 3683              		@ args = 0, pretend = 0, frame = 16
 3684              		@ frame_needed = 1, uses_anonymous_args = 0
 3685 0000 80B5     		push	{r7, lr}
 3686              	.LCFI57:
 3687              		.cfi_def_cfa_offset 8
 3688              		.cfi_offset 7, -8
 3689              		.cfi_offset 14, -4
 3690 0002 84B0     		sub	sp, sp, #16
 3691              	.LCFI58:
 3692              		.cfi_def_cfa_offset 24
 3693 0004 00AF     		add	r7, sp, #0
 3694              	.LCFI59:
 3695              		.cfi_def_cfa_register 7
 3696 0006 7860     		str	r0, [r7, #4]
 3697 0008 3960     		str	r1, [r7]
1278:Drivers/STM32F0xx_HAL_Driver/Src/stm32f0xx_hal_tim_ex.c ****   HAL_StatusTypeDef status = HAL_OK;
 3698              		.loc 1 1278 21
 3699 000a 0F23     		movs	r3, #15
 3700 000c FB18     		adds	r3, r7, r3
 3701 000e 0022     		movs	r2, #0
 3702 0010 1A70     		strb	r2, [r3]
1279:Drivers/STM32F0xx_HAL_Driver/Src/stm32f0xx_hal_tim_ex.c ****   uint32_t tmpccer;
1280:Drivers/STM32F0xx_HAL_Driver/Src/stm32f0xx_hal_tim_ex.c **** 
1281:Drivers/STM32F0xx_HAL_Driver/Src/stm32f0xx_hal_tim_ex.c ****   /* Check the parameters */
1282:Drivers/STM32F0xx_HAL_Driver/Src/stm32f0xx_hal_tim_ex.c ****   assert_param(IS_TIM_CCXN_INSTANCE(htim->Instance, Channel));
1283:Drivers/STM32F0xx_HAL_Driver/Src/stm32f0xx_hal_tim_ex.c **** 
1284:Drivers/STM32F0xx_HAL_Driver/Src/stm32f0xx_hal_tim_ex.c ****   switch (Channel)
 3703              		.loc 1 1284 3
 3704 0012 3B68     		ldr	r3, [r7]
ARM GAS  /var/folders/d0/cymppscj10lcmm48h781wrc80000gn/T//cc0qcKWW.s 			page 88


 3705 0014 082B     		cmp	r3, #8
 3706 0016 1BD0     		beq	.L258
 3707 0018 3B68     		ldr	r3, [r7]
 3708 001a 082B     		cmp	r3, #8
 3709 001c 21D8     		bhi	.L259
 3710 001e 3B68     		ldr	r3, [r7]
 3711 0020 002B     		cmp	r3, #0
 3712 0022 03D0     		beq	.L260
 3713 0024 3B68     		ldr	r3, [r7]
 3714 0026 042B     		cmp	r3, #4
 3715 0028 09D0     		beq	.L261
 3716 002a 1AE0     		b	.L259
 3717              	.L260:
1285:Drivers/STM32F0xx_HAL_Driver/Src/stm32f0xx_hal_tim_ex.c ****   {
1286:Drivers/STM32F0xx_HAL_Driver/Src/stm32f0xx_hal_tim_ex.c ****     case TIM_CHANNEL_1:
1287:Drivers/STM32F0xx_HAL_Driver/Src/stm32f0xx_hal_tim_ex.c ****     {
1288:Drivers/STM32F0xx_HAL_Driver/Src/stm32f0xx_hal_tim_ex.c ****       /* Disable the TIM Capture/Compare 1 interrupt */
1289:Drivers/STM32F0xx_HAL_Driver/Src/stm32f0xx_hal_tim_ex.c ****       __HAL_TIM_DISABLE_IT(htim, TIM_IT_CC1);
 3718              		.loc 1 1289 7
 3719 002c 7B68     		ldr	r3, [r7, #4]
 3720 002e 1B68     		ldr	r3, [r3]
 3721 0030 DA68     		ldr	r2, [r3, #12]
 3722 0032 7B68     		ldr	r3, [r7, #4]
 3723 0034 1B68     		ldr	r3, [r3]
 3724 0036 0221     		movs	r1, #2
 3725 0038 8A43     		bics	r2, r1
 3726 003a DA60     		str	r2, [r3, #12]
1290:Drivers/STM32F0xx_HAL_Driver/Src/stm32f0xx_hal_tim_ex.c ****       break;
 3727              		.loc 1 1290 7
 3728 003c 16E0     		b	.L262
 3729              	.L261:
1291:Drivers/STM32F0xx_HAL_Driver/Src/stm32f0xx_hal_tim_ex.c ****     }
1292:Drivers/STM32F0xx_HAL_Driver/Src/stm32f0xx_hal_tim_ex.c **** 
1293:Drivers/STM32F0xx_HAL_Driver/Src/stm32f0xx_hal_tim_ex.c ****     case TIM_CHANNEL_2:
1294:Drivers/STM32F0xx_HAL_Driver/Src/stm32f0xx_hal_tim_ex.c ****     {
1295:Drivers/STM32F0xx_HAL_Driver/Src/stm32f0xx_hal_tim_ex.c ****       /* Disable the TIM Capture/Compare 2 interrupt */
1296:Drivers/STM32F0xx_HAL_Driver/Src/stm32f0xx_hal_tim_ex.c ****       __HAL_TIM_DISABLE_IT(htim, TIM_IT_CC2);
 3730              		.loc 1 1296 7
 3731 003e 7B68     		ldr	r3, [r7, #4]
 3732 0040 1B68     		ldr	r3, [r3]
 3733 0042 DA68     		ldr	r2, [r3, #12]
 3734 0044 7B68     		ldr	r3, [r7, #4]
 3735 0046 1B68     		ldr	r3, [r3]
 3736 0048 0421     		movs	r1, #4
 3737 004a 8A43     		bics	r2, r1
 3738 004c DA60     		str	r2, [r3, #12]
1297:Drivers/STM32F0xx_HAL_Driver/Src/stm32f0xx_hal_tim_ex.c ****       break;
 3739              		.loc 1 1297 7
 3740 004e 0DE0     		b	.L262
 3741              	.L258:
1298:Drivers/STM32F0xx_HAL_Driver/Src/stm32f0xx_hal_tim_ex.c ****     }
1299:Drivers/STM32F0xx_HAL_Driver/Src/stm32f0xx_hal_tim_ex.c **** 
1300:Drivers/STM32F0xx_HAL_Driver/Src/stm32f0xx_hal_tim_ex.c ****     case TIM_CHANNEL_3:
1301:Drivers/STM32F0xx_HAL_Driver/Src/stm32f0xx_hal_tim_ex.c ****     {
1302:Drivers/STM32F0xx_HAL_Driver/Src/stm32f0xx_hal_tim_ex.c ****       /* Disable the TIM Capture/Compare 3 interrupt */
1303:Drivers/STM32F0xx_HAL_Driver/Src/stm32f0xx_hal_tim_ex.c ****       __HAL_TIM_DISABLE_IT(htim, TIM_IT_CC3);
 3742              		.loc 1 1303 7
ARM GAS  /var/folders/d0/cymppscj10lcmm48h781wrc80000gn/T//cc0qcKWW.s 			page 89


 3743 0050 7B68     		ldr	r3, [r7, #4]
 3744 0052 1B68     		ldr	r3, [r3]
 3745 0054 DA68     		ldr	r2, [r3, #12]
 3746 0056 7B68     		ldr	r3, [r7, #4]
 3747 0058 1B68     		ldr	r3, [r3]
 3748 005a 0821     		movs	r1, #8
 3749 005c 8A43     		bics	r2, r1
 3750 005e DA60     		str	r2, [r3, #12]
1304:Drivers/STM32F0xx_HAL_Driver/Src/stm32f0xx_hal_tim_ex.c ****       break;
 3751              		.loc 1 1304 7
 3752 0060 04E0     		b	.L262
 3753              	.L259:
1305:Drivers/STM32F0xx_HAL_Driver/Src/stm32f0xx_hal_tim_ex.c ****     }
1306:Drivers/STM32F0xx_HAL_Driver/Src/stm32f0xx_hal_tim_ex.c **** 
1307:Drivers/STM32F0xx_HAL_Driver/Src/stm32f0xx_hal_tim_ex.c ****     default:
1308:Drivers/STM32F0xx_HAL_Driver/Src/stm32f0xx_hal_tim_ex.c ****       status = HAL_ERROR;
 3754              		.loc 1 1308 14
 3755 0062 0F23     		movs	r3, #15
 3756 0064 FB18     		adds	r3, r7, r3
 3757 0066 0122     		movs	r2, #1
 3758 0068 1A70     		strb	r2, [r3]
1309:Drivers/STM32F0xx_HAL_Driver/Src/stm32f0xx_hal_tim_ex.c ****       break;
 3759              		.loc 1 1309 7
 3760 006a C046     		nop
 3761              	.L262:
1310:Drivers/STM32F0xx_HAL_Driver/Src/stm32f0xx_hal_tim_ex.c ****   }
1311:Drivers/STM32F0xx_HAL_Driver/Src/stm32f0xx_hal_tim_ex.c **** 
1312:Drivers/STM32F0xx_HAL_Driver/Src/stm32f0xx_hal_tim_ex.c ****   if (status == HAL_OK)
 3762              		.loc 1 1312 6
 3763 006c 0F23     		movs	r3, #15
 3764 006e FB18     		adds	r3, r7, r3
 3765 0070 1B78     		ldrb	r3, [r3]
 3766 0072 002B     		cmp	r3, #0
 3767 0074 5AD1     		bne	.L263
1313:Drivers/STM32F0xx_HAL_Driver/Src/stm32f0xx_hal_tim_ex.c ****   {
1314:Drivers/STM32F0xx_HAL_Driver/Src/stm32f0xx_hal_tim_ex.c ****     /* Disable the complementary PWM output  */
1315:Drivers/STM32F0xx_HAL_Driver/Src/stm32f0xx_hal_tim_ex.c ****     TIM_CCxNChannelCmd(htim->Instance, Channel, TIM_CCxN_DISABLE);
 3768              		.loc 1 1315 5
 3769 0076 7B68     		ldr	r3, [r7, #4]
 3770 0078 1B68     		ldr	r3, [r3]
 3771 007a 3968     		ldr	r1, [r7]
 3772 007c 0022     		movs	r2, #0
 3773 007e 1800     		movs	r0, r3
 3774 0080 FFF7FEFF 		bl	TIM_CCxNChannelCmd
1316:Drivers/STM32F0xx_HAL_Driver/Src/stm32f0xx_hal_tim_ex.c **** 
1317:Drivers/STM32F0xx_HAL_Driver/Src/stm32f0xx_hal_tim_ex.c ****     /* Disable the TIM Break interrupt (only if no more channel is active) */
1318:Drivers/STM32F0xx_HAL_Driver/Src/stm32f0xx_hal_tim_ex.c ****     tmpccer = htim->Instance->CCER;
 3775              		.loc 1 1318 19
 3776 0084 7B68     		ldr	r3, [r7, #4]
 3777 0086 1B68     		ldr	r3, [r3]
 3778              		.loc 1 1318 13
 3779 0088 1B6A     		ldr	r3, [r3, #32]
 3780 008a BB60     		str	r3, [r7, #8]
1319:Drivers/STM32F0xx_HAL_Driver/Src/stm32f0xx_hal_tim_ex.c ****     if ((tmpccer & (TIM_CCER_CC1NE | TIM_CCER_CC2NE | TIM_CCER_CC3NE)) == (uint32_t)RESET)
 3781              		.loc 1 1319 18
 3782 008c BB68     		ldr	r3, [r7, #8]
 3783 008e 2B4A     		ldr	r2, .L273
ARM GAS  /var/folders/d0/cymppscj10lcmm48h781wrc80000gn/T//cc0qcKWW.s 			page 90


 3784 0090 1340     		ands	r3, r2
 3785              		.loc 1 1319 8
 3786 0092 07D1     		bne	.L264
1320:Drivers/STM32F0xx_HAL_Driver/Src/stm32f0xx_hal_tim_ex.c ****     {
1321:Drivers/STM32F0xx_HAL_Driver/Src/stm32f0xx_hal_tim_ex.c ****       __HAL_TIM_DISABLE_IT(htim, TIM_IT_BREAK);
 3787              		.loc 1 1321 7
 3788 0094 7B68     		ldr	r3, [r7, #4]
 3789 0096 1B68     		ldr	r3, [r3]
 3790 0098 DA68     		ldr	r2, [r3, #12]
 3791 009a 7B68     		ldr	r3, [r7, #4]
 3792 009c 1B68     		ldr	r3, [r3]
 3793 009e 8021     		movs	r1, #128
 3794 00a0 8A43     		bics	r2, r1
 3795 00a2 DA60     		str	r2, [r3, #12]
 3796              	.L264:
1322:Drivers/STM32F0xx_HAL_Driver/Src/stm32f0xx_hal_tim_ex.c ****     }
1323:Drivers/STM32F0xx_HAL_Driver/Src/stm32f0xx_hal_tim_ex.c **** 
1324:Drivers/STM32F0xx_HAL_Driver/Src/stm32f0xx_hal_tim_ex.c ****     /* Disable the Main Output */
1325:Drivers/STM32F0xx_HAL_Driver/Src/stm32f0xx_hal_tim_ex.c ****     __HAL_TIM_MOE_DISABLE(htim);
 3797              		.loc 1 1325 5
 3798 00a4 7B68     		ldr	r3, [r7, #4]
 3799 00a6 1B68     		ldr	r3, [r3]
 3800 00a8 1B6A     		ldr	r3, [r3, #32]
 3801 00aa 254A     		ldr	r2, .L273+4
 3802 00ac 1340     		ands	r3, r2
 3803 00ae 0DD1     		bne	.L265
 3804              		.loc 1 1325 5 is_stmt 0 discriminator 1
 3805 00b0 7B68     		ldr	r3, [r7, #4]
 3806 00b2 1B68     		ldr	r3, [r3]
 3807 00b4 1B6A     		ldr	r3, [r3, #32]
 3808 00b6 214A     		ldr	r2, .L273
 3809 00b8 1340     		ands	r3, r2
 3810 00ba 07D1     		bne	.L265
 3811              		.loc 1 1325 5 discriminator 2
 3812 00bc 7B68     		ldr	r3, [r7, #4]
 3813 00be 1B68     		ldr	r3, [r3]
 3814 00c0 5A6C     		ldr	r2, [r3, #68]
 3815 00c2 7B68     		ldr	r3, [r7, #4]
 3816 00c4 1B68     		ldr	r3, [r3]
 3817 00c6 1F49     		ldr	r1, .L273+8
 3818 00c8 0A40     		ands	r2, r1
 3819 00ca 5A64     		str	r2, [r3, #68]
 3820              	.L265:
1326:Drivers/STM32F0xx_HAL_Driver/Src/stm32f0xx_hal_tim_ex.c **** 
1327:Drivers/STM32F0xx_HAL_Driver/Src/stm32f0xx_hal_tim_ex.c ****     /* Disable the Peripheral */
1328:Drivers/STM32F0xx_HAL_Driver/Src/stm32f0xx_hal_tim_ex.c ****     __HAL_TIM_DISABLE(htim);
 3821              		.loc 1 1328 5 is_stmt 1
 3822 00cc 7B68     		ldr	r3, [r7, #4]
 3823 00ce 1B68     		ldr	r3, [r3]
 3824 00d0 1B6A     		ldr	r3, [r3, #32]
 3825 00d2 1B4A     		ldr	r2, .L273+4
 3826 00d4 1340     		ands	r3, r2
 3827 00d6 0DD1     		bne	.L266
 3828              		.loc 1 1328 5 is_stmt 0 discriminator 1
 3829 00d8 7B68     		ldr	r3, [r7, #4]
 3830 00da 1B68     		ldr	r3, [r3]
 3831 00dc 1B6A     		ldr	r3, [r3, #32]
ARM GAS  /var/folders/d0/cymppscj10lcmm48h781wrc80000gn/T//cc0qcKWW.s 			page 91


 3832 00de 174A     		ldr	r2, .L273
 3833 00e0 1340     		ands	r3, r2
 3834 00e2 07D1     		bne	.L266
 3835              		.loc 1 1328 5 discriminator 2
 3836 00e4 7B68     		ldr	r3, [r7, #4]
 3837 00e6 1B68     		ldr	r3, [r3]
 3838 00e8 1A68     		ldr	r2, [r3]
 3839 00ea 7B68     		ldr	r3, [r7, #4]
 3840 00ec 1B68     		ldr	r3, [r3]
 3841 00ee 0121     		movs	r1, #1
 3842 00f0 8A43     		bics	r2, r1
 3843 00f2 1A60     		str	r2, [r3]
 3844              	.L266:
1329:Drivers/STM32F0xx_HAL_Driver/Src/stm32f0xx_hal_tim_ex.c **** 
1330:Drivers/STM32F0xx_HAL_Driver/Src/stm32f0xx_hal_tim_ex.c ****     /* Set the TIM complementary channel state */
1331:Drivers/STM32F0xx_HAL_Driver/Src/stm32f0xx_hal_tim_ex.c ****     TIM_CHANNEL_N_STATE_SET(htim, Channel, HAL_TIM_CHANNEL_STATE_READY);
 3845              		.loc 1 1331 5 is_stmt 1
 3846 00f4 3B68     		ldr	r3, [r7]
 3847 00f6 002B     		cmp	r3, #0
 3848 00f8 04D1     		bne	.L267
 3849              		.loc 1 1331 5 is_stmt 0 discriminator 1
 3850 00fa 7B68     		ldr	r3, [r7, #4]
 3851 00fc 4222     		movs	r2, #66
 3852 00fe 0121     		movs	r1, #1
 3853 0100 9954     		strb	r1, [r3, r2]
 3854 0102 13E0     		b	.L263
 3855              	.L267:
 3856              		.loc 1 1331 5 discriminator 2
 3857 0104 3B68     		ldr	r3, [r7]
 3858 0106 042B     		cmp	r3, #4
 3859 0108 04D1     		bne	.L268
 3860              		.loc 1 1331 5 discriminator 3
 3861 010a 7B68     		ldr	r3, [r7, #4]
 3862 010c 4322     		movs	r2, #67
 3863 010e 0121     		movs	r1, #1
 3864 0110 9954     		strb	r1, [r3, r2]
 3865 0112 0BE0     		b	.L263
 3866              	.L268:
 3867              		.loc 1 1331 5 discriminator 4
 3868 0114 3B68     		ldr	r3, [r7]
 3869 0116 082B     		cmp	r3, #8
 3870 0118 04D1     		bne	.L270
 3871              		.loc 1 1331 5 discriminator 6
 3872 011a 7B68     		ldr	r3, [r7, #4]
 3873 011c 4422     		movs	r2, #68
 3874 011e 0121     		movs	r1, #1
 3875 0120 9954     		strb	r1, [r3, r2]
 3876 0122 03E0     		b	.L263
 3877              	.L270:
 3878              		.loc 1 1331 5 discriminator 7
 3879 0124 7B68     		ldr	r3, [r7, #4]
 3880 0126 4522     		movs	r2, #69
 3881 0128 0121     		movs	r1, #1
 3882 012a 9954     		strb	r1, [r3, r2]
 3883              	.L263:
1332:Drivers/STM32F0xx_HAL_Driver/Src/stm32f0xx_hal_tim_ex.c ****   }
1333:Drivers/STM32F0xx_HAL_Driver/Src/stm32f0xx_hal_tim_ex.c **** 
ARM GAS  /var/folders/d0/cymppscj10lcmm48h781wrc80000gn/T//cc0qcKWW.s 			page 92


1334:Drivers/STM32F0xx_HAL_Driver/Src/stm32f0xx_hal_tim_ex.c ****   /* Return function status */
1335:Drivers/STM32F0xx_HAL_Driver/Src/stm32f0xx_hal_tim_ex.c ****   return status;
 3884              		.loc 1 1335 10 is_stmt 1
 3885 012c 0F23     		movs	r3, #15
 3886 012e FB18     		adds	r3, r7, r3
 3887 0130 1B78     		ldrb	r3, [r3]
1336:Drivers/STM32F0xx_HAL_Driver/Src/stm32f0xx_hal_tim_ex.c **** }
 3888              		.loc 1 1336 1
 3889 0132 1800     		movs	r0, r3
 3890 0134 BD46     		mov	sp, r7
 3891 0136 04B0     		add	sp, sp, #16
 3892              		@ sp needed
 3893 0138 80BD     		pop	{r7, pc}
 3894              	.L274:
 3895 013a C046     		.align	2
 3896              	.L273:
 3897 013c 44040000 		.word	1092
 3898 0140 11110000 		.word	4369
 3899 0144 FF7FFFFF 		.word	-32769
 3900              		.cfi_endproc
 3901              	.LFE59:
 3903              		.section	.text.HAL_TIMEx_PWMN_Start_DMA,"ax",%progbits
 3904              		.align	1
 3905              		.global	HAL_TIMEx_PWMN_Start_DMA
 3906              		.syntax unified
 3907              		.code	16
 3908              		.thumb_func
 3910              	HAL_TIMEx_PWMN_Start_DMA:
 3911              	.LFB60:
1337:Drivers/STM32F0xx_HAL_Driver/Src/stm32f0xx_hal_tim_ex.c **** 
1338:Drivers/STM32F0xx_HAL_Driver/Src/stm32f0xx_hal_tim_ex.c **** /**
1339:Drivers/STM32F0xx_HAL_Driver/Src/stm32f0xx_hal_tim_ex.c ****   * @brief  Starts the TIM PWM signal generation in DMA mode on the
1340:Drivers/STM32F0xx_HAL_Driver/Src/stm32f0xx_hal_tim_ex.c ****   *         complementary output
1341:Drivers/STM32F0xx_HAL_Driver/Src/stm32f0xx_hal_tim_ex.c ****   * @param  htim TIM handle
1342:Drivers/STM32F0xx_HAL_Driver/Src/stm32f0xx_hal_tim_ex.c ****   * @param  Channel TIM Channel to be enabled
1343:Drivers/STM32F0xx_HAL_Driver/Src/stm32f0xx_hal_tim_ex.c ****   *          This parameter can be one of the following values:
1344:Drivers/STM32F0xx_HAL_Driver/Src/stm32f0xx_hal_tim_ex.c ****   *            @arg TIM_CHANNEL_1: TIM Channel 1 selected
1345:Drivers/STM32F0xx_HAL_Driver/Src/stm32f0xx_hal_tim_ex.c ****   *            @arg TIM_CHANNEL_2: TIM Channel 2 selected
1346:Drivers/STM32F0xx_HAL_Driver/Src/stm32f0xx_hal_tim_ex.c ****   *            @arg TIM_CHANNEL_3: TIM Channel 3 selected
1347:Drivers/STM32F0xx_HAL_Driver/Src/stm32f0xx_hal_tim_ex.c ****   * @param  pData The source Buffer address.
1348:Drivers/STM32F0xx_HAL_Driver/Src/stm32f0xx_hal_tim_ex.c ****   * @param  Length The length of data to be transferred from memory to TIM peripheral
1349:Drivers/STM32F0xx_HAL_Driver/Src/stm32f0xx_hal_tim_ex.c ****   * @retval HAL status
1350:Drivers/STM32F0xx_HAL_Driver/Src/stm32f0xx_hal_tim_ex.c ****   */
1351:Drivers/STM32F0xx_HAL_Driver/Src/stm32f0xx_hal_tim_ex.c **** HAL_StatusTypeDef HAL_TIMEx_PWMN_Start_DMA(TIM_HandleTypeDef *htim, uint32_t Channel, uint32_t *pDa
1352:Drivers/STM32F0xx_HAL_Driver/Src/stm32f0xx_hal_tim_ex.c **** {
 3912              		.loc 1 1352 1
 3913              		.cfi_startproc
 3914              		@ args = 0, pretend = 0, frame = 24
 3915              		@ frame_needed = 1, uses_anonymous_args = 0
 3916 0000 80B5     		push	{r7, lr}
 3917              	.LCFI60:
 3918              		.cfi_def_cfa_offset 8
 3919              		.cfi_offset 7, -8
 3920              		.cfi_offset 14, -4
 3921 0002 86B0     		sub	sp, sp, #24
 3922              	.LCFI61:
 3923              		.cfi_def_cfa_offset 32
ARM GAS  /var/folders/d0/cymppscj10lcmm48h781wrc80000gn/T//cc0qcKWW.s 			page 93


 3924 0004 00AF     		add	r7, sp, #0
 3925              	.LCFI62:
 3926              		.cfi_def_cfa_register 7
 3927 0006 F860     		str	r0, [r7, #12]
 3928 0008 B960     		str	r1, [r7, #8]
 3929 000a 7A60     		str	r2, [r7, #4]
 3930 000c 1A00     		movs	r2, r3
 3931 000e BB1C     		adds	r3, r7, #2
 3932 0010 1A80     		strh	r2, [r3]
1353:Drivers/STM32F0xx_HAL_Driver/Src/stm32f0xx_hal_tim_ex.c ****   HAL_StatusTypeDef status = HAL_OK;
 3933              		.loc 1 1353 21
 3934 0012 1723     		movs	r3, #23
 3935 0014 FB18     		adds	r3, r7, r3
 3936 0016 0022     		movs	r2, #0
 3937 0018 1A70     		strb	r2, [r3]
1354:Drivers/STM32F0xx_HAL_Driver/Src/stm32f0xx_hal_tim_ex.c ****   uint32_t tmpsmcr;
1355:Drivers/STM32F0xx_HAL_Driver/Src/stm32f0xx_hal_tim_ex.c **** 
1356:Drivers/STM32F0xx_HAL_Driver/Src/stm32f0xx_hal_tim_ex.c ****   /* Check the parameters */
1357:Drivers/STM32F0xx_HAL_Driver/Src/stm32f0xx_hal_tim_ex.c ****   assert_param(IS_TIM_CCXN_INSTANCE(htim->Instance, Channel));
1358:Drivers/STM32F0xx_HAL_Driver/Src/stm32f0xx_hal_tim_ex.c **** 
1359:Drivers/STM32F0xx_HAL_Driver/Src/stm32f0xx_hal_tim_ex.c ****   /* Set the TIM complementary channel state */
1360:Drivers/STM32F0xx_HAL_Driver/Src/stm32f0xx_hal_tim_ex.c ****   if (TIM_CHANNEL_N_STATE_GET(htim, Channel) == HAL_TIM_CHANNEL_STATE_BUSY)
 3938              		.loc 1 1360 46
 3939 001a BB68     		ldr	r3, [r7, #8]
 3940 001c 002B     		cmp	r3, #0
 3941 001e 08D1     		bne	.L276
 3942              		.loc 1 1360 7 discriminator 1
 3943 0020 FB68     		ldr	r3, [r7, #12]
 3944 0022 4222     		movs	r2, #66
 3945 0024 9B5C     		ldrb	r3, [r3, r2]
 3946 0026 DBB2     		uxtb	r3, r3
 3947              		.loc 1 1360 46 discriminator 1
 3948 0028 023B     		subs	r3, r3, #2
 3949 002a 5A42     		rsbs	r2, r3, #0
 3950 002c 5341     		adcs	r3, r3, r2
 3951 002e DBB2     		uxtb	r3, r3
 3952 0030 1FE0     		b	.L277
 3953              	.L276:
 3954              		.loc 1 1360 46 is_stmt 0 discriminator 2
 3955 0032 BB68     		ldr	r3, [r7, #8]
 3956 0034 042B     		cmp	r3, #4
 3957 0036 08D1     		bne	.L278
 3958              		.loc 1 1360 7 is_stmt 1 discriminator 4
 3959 0038 FB68     		ldr	r3, [r7, #12]
 3960 003a 4322     		movs	r2, #67
 3961 003c 9B5C     		ldrb	r3, [r3, r2]
 3962 003e DBB2     		uxtb	r3, r3
 3963              		.loc 1 1360 46 discriminator 4
 3964 0040 023B     		subs	r3, r3, #2
 3965 0042 5A42     		rsbs	r2, r3, #0
 3966 0044 5341     		adcs	r3, r3, r2
 3967 0046 DBB2     		uxtb	r3, r3
 3968 0048 13E0     		b	.L277
 3969              	.L278:
 3970              		.loc 1 1360 46 is_stmt 0 discriminator 5
 3971 004a BB68     		ldr	r3, [r7, #8]
 3972 004c 082B     		cmp	r3, #8
ARM GAS  /var/folders/d0/cymppscj10lcmm48h781wrc80000gn/T//cc0qcKWW.s 			page 94


 3973 004e 08D1     		bne	.L280
 3974              		.loc 1 1360 7 is_stmt 1 discriminator 7
 3975 0050 FB68     		ldr	r3, [r7, #12]
 3976 0052 4422     		movs	r2, #68
 3977 0054 9B5C     		ldrb	r3, [r3, r2]
 3978 0056 DBB2     		uxtb	r3, r3
 3979              		.loc 1 1360 46 discriminator 7
 3980 0058 023B     		subs	r3, r3, #2
 3981 005a 5A42     		rsbs	r2, r3, #0
 3982 005c 5341     		adcs	r3, r3, r2
 3983 005e DBB2     		uxtb	r3, r3
 3984 0060 07E0     		b	.L277
 3985              	.L280:
 3986              		.loc 1 1360 7 discriminator 8
 3987 0062 FB68     		ldr	r3, [r7, #12]
 3988 0064 4522     		movs	r2, #69
 3989 0066 9B5C     		ldrb	r3, [r3, r2]
 3990 0068 DBB2     		uxtb	r3, r3
 3991              		.loc 1 1360 46 discriminator 8
 3992 006a 023B     		subs	r3, r3, #2
 3993 006c 5A42     		rsbs	r2, r3, #0
 3994 006e 5341     		adcs	r3, r3, r2
 3995 0070 DBB2     		uxtb	r3, r3
 3996              	.L277:
 3997              		.loc 1 1360 6 discriminator 12
 3998 0072 002B     		cmp	r3, #0
 3999 0074 01D0     		beq	.L282
1361:Drivers/STM32F0xx_HAL_Driver/Src/stm32f0xx_hal_tim_ex.c ****   {
1362:Drivers/STM32F0xx_HAL_Driver/Src/stm32f0xx_hal_tim_ex.c ****     return HAL_BUSY;
 4000              		.loc 1 1362 12
 4001 0076 0223     		movs	r3, #2
 4002 0078 18E1     		b	.L283
 4003              	.L282:
1363:Drivers/STM32F0xx_HAL_Driver/Src/stm32f0xx_hal_tim_ex.c ****   }
1364:Drivers/STM32F0xx_HAL_Driver/Src/stm32f0xx_hal_tim_ex.c ****   else if (TIM_CHANNEL_N_STATE_GET(htim, Channel) == HAL_TIM_CHANNEL_STATE_READY)
 4004              		.loc 1 1364 51
 4005 007a BB68     		ldr	r3, [r7, #8]
 4006 007c 002B     		cmp	r3, #0
 4007 007e 08D1     		bne	.L284
 4008              		.loc 1 1364 12 discriminator 1
 4009 0080 FB68     		ldr	r3, [r7, #12]
 4010 0082 4222     		movs	r2, #66
 4011 0084 9B5C     		ldrb	r3, [r3, r2]
 4012 0086 DBB2     		uxtb	r3, r3
 4013              		.loc 1 1364 51 discriminator 1
 4014 0088 013B     		subs	r3, r3, #1
 4015 008a 5A42     		rsbs	r2, r3, #0
 4016 008c 5341     		adcs	r3, r3, r2
 4017 008e DBB2     		uxtb	r3, r3
 4018 0090 1FE0     		b	.L285
 4019              	.L284:
 4020              		.loc 1 1364 51 is_stmt 0 discriminator 2
 4021 0092 BB68     		ldr	r3, [r7, #8]
 4022 0094 042B     		cmp	r3, #4
 4023 0096 08D1     		bne	.L286
 4024              		.loc 1 1364 12 is_stmt 1 discriminator 4
 4025 0098 FB68     		ldr	r3, [r7, #12]
ARM GAS  /var/folders/d0/cymppscj10lcmm48h781wrc80000gn/T//cc0qcKWW.s 			page 95


 4026 009a 4322     		movs	r2, #67
 4027 009c 9B5C     		ldrb	r3, [r3, r2]
 4028 009e DBB2     		uxtb	r3, r3
 4029              		.loc 1 1364 51 discriminator 4
 4030 00a0 013B     		subs	r3, r3, #1
 4031 00a2 5A42     		rsbs	r2, r3, #0
 4032 00a4 5341     		adcs	r3, r3, r2
 4033 00a6 DBB2     		uxtb	r3, r3
 4034 00a8 13E0     		b	.L285
 4035              	.L286:
 4036              		.loc 1 1364 51 is_stmt 0 discriminator 5
 4037 00aa BB68     		ldr	r3, [r7, #8]
 4038 00ac 082B     		cmp	r3, #8
 4039 00ae 08D1     		bne	.L288
 4040              		.loc 1 1364 12 is_stmt 1 discriminator 7
 4041 00b0 FB68     		ldr	r3, [r7, #12]
 4042 00b2 4422     		movs	r2, #68
 4043 00b4 9B5C     		ldrb	r3, [r3, r2]
 4044 00b6 DBB2     		uxtb	r3, r3
 4045              		.loc 1 1364 51 discriminator 7
 4046 00b8 013B     		subs	r3, r3, #1
 4047 00ba 5A42     		rsbs	r2, r3, #0
 4048 00bc 5341     		adcs	r3, r3, r2
 4049 00be DBB2     		uxtb	r3, r3
 4050 00c0 07E0     		b	.L285
 4051              	.L288:
 4052              		.loc 1 1364 12 discriminator 8
 4053 00c2 FB68     		ldr	r3, [r7, #12]
 4054 00c4 4522     		movs	r2, #69
 4055 00c6 9B5C     		ldrb	r3, [r3, r2]
 4056 00c8 DBB2     		uxtb	r3, r3
 4057              		.loc 1 1364 51 discriminator 8
 4058 00ca 013B     		subs	r3, r3, #1
 4059 00cc 5A42     		rsbs	r2, r3, #0
 4060 00ce 5341     		adcs	r3, r3, r2
 4061 00d0 DBB2     		uxtb	r3, r3
 4062              	.L285:
 4063              		.loc 1 1364 11 discriminator 12
 4064 00d2 002B     		cmp	r3, #0
 4065 00d4 25D0     		beq	.L290
1365:Drivers/STM32F0xx_HAL_Driver/Src/stm32f0xx_hal_tim_ex.c ****   {
1366:Drivers/STM32F0xx_HAL_Driver/Src/stm32f0xx_hal_tim_ex.c ****     if ((pData == NULL) && (Length > 0U))
 4066              		.loc 1 1366 8
 4067 00d6 7B68     		ldr	r3, [r7, #4]
 4068 00d8 002B     		cmp	r3, #0
 4069 00da 05D1     		bne	.L291
 4070              		.loc 1 1366 25 discriminator 1
 4071 00dc BB1C     		adds	r3, r7, #2
 4072 00de 1B88     		ldrh	r3, [r3]
 4073 00e0 002B     		cmp	r3, #0
 4074 00e2 01D0     		beq	.L291
1367:Drivers/STM32F0xx_HAL_Driver/Src/stm32f0xx_hal_tim_ex.c ****     {
1368:Drivers/STM32F0xx_HAL_Driver/Src/stm32f0xx_hal_tim_ex.c ****       return HAL_ERROR;
 4075              		.loc 1 1368 14
 4076 00e4 0123     		movs	r3, #1
 4077 00e6 E1E0     		b	.L283
 4078              	.L291:
ARM GAS  /var/folders/d0/cymppscj10lcmm48h781wrc80000gn/T//cc0qcKWW.s 			page 96


1369:Drivers/STM32F0xx_HAL_Driver/Src/stm32f0xx_hal_tim_ex.c ****     }
1370:Drivers/STM32F0xx_HAL_Driver/Src/stm32f0xx_hal_tim_ex.c ****     else
1371:Drivers/STM32F0xx_HAL_Driver/Src/stm32f0xx_hal_tim_ex.c ****     {
1372:Drivers/STM32F0xx_HAL_Driver/Src/stm32f0xx_hal_tim_ex.c ****       TIM_CHANNEL_N_STATE_SET(htim, Channel, HAL_TIM_CHANNEL_STATE_BUSY);
 4079              		.loc 1 1372 7
 4080 00e8 BB68     		ldr	r3, [r7, #8]
 4081 00ea 002B     		cmp	r3, #0
 4082 00ec 04D1     		bne	.L292
 4083              		.loc 1 1372 7 is_stmt 0 discriminator 1
 4084 00ee FB68     		ldr	r3, [r7, #12]
 4085 00f0 4222     		movs	r2, #66
 4086 00f2 0221     		movs	r1, #2
 4087 00f4 9954     		strb	r1, [r3, r2]
 4088 00f6 16E0     		b	.L293
 4089              	.L292:
 4090              		.loc 1 1372 7 discriminator 2
 4091 00f8 BB68     		ldr	r3, [r7, #8]
 4092 00fa 042B     		cmp	r3, #4
 4093 00fc 04D1     		bne	.L294
 4094              		.loc 1 1372 7 discriminator 3
 4095 00fe FB68     		ldr	r3, [r7, #12]
 4096 0100 4322     		movs	r2, #67
 4097 0102 0221     		movs	r1, #2
 4098 0104 9954     		strb	r1, [r3, r2]
 4099 0106 0EE0     		b	.L293
 4100              	.L294:
 4101              		.loc 1 1372 7 discriminator 4
 4102 0108 BB68     		ldr	r3, [r7, #8]
 4103 010a 082B     		cmp	r3, #8
 4104 010c 04D1     		bne	.L296
 4105              		.loc 1 1372 7 discriminator 6
 4106 010e FB68     		ldr	r3, [r7, #12]
 4107 0110 4422     		movs	r2, #68
 4108 0112 0221     		movs	r1, #2
 4109 0114 9954     		strb	r1, [r3, r2]
 4110 0116 06E0     		b	.L293
 4111              	.L296:
 4112              		.loc 1 1372 7 discriminator 7
 4113 0118 FB68     		ldr	r3, [r7, #12]
 4114 011a 4522     		movs	r2, #69
 4115 011c 0221     		movs	r1, #2
 4116 011e 9954     		strb	r1, [r3, r2]
 4117 0120 01E0     		b	.L293
 4118              	.L290:
1373:Drivers/STM32F0xx_HAL_Driver/Src/stm32f0xx_hal_tim_ex.c ****     }
1374:Drivers/STM32F0xx_HAL_Driver/Src/stm32f0xx_hal_tim_ex.c ****   }
1375:Drivers/STM32F0xx_HAL_Driver/Src/stm32f0xx_hal_tim_ex.c ****   else
1376:Drivers/STM32F0xx_HAL_Driver/Src/stm32f0xx_hal_tim_ex.c ****   {
1377:Drivers/STM32F0xx_HAL_Driver/Src/stm32f0xx_hal_tim_ex.c ****     return HAL_ERROR;
 4119              		.loc 1 1377 12 is_stmt 1
 4120 0122 0123     		movs	r3, #1
 4121 0124 C2E0     		b	.L283
 4122              	.L293:
1378:Drivers/STM32F0xx_HAL_Driver/Src/stm32f0xx_hal_tim_ex.c ****   }
1379:Drivers/STM32F0xx_HAL_Driver/Src/stm32f0xx_hal_tim_ex.c **** 
1380:Drivers/STM32F0xx_HAL_Driver/Src/stm32f0xx_hal_tim_ex.c ****   switch (Channel)
 4123              		.loc 1 1380 3
ARM GAS  /var/folders/d0/cymppscj10lcmm48h781wrc80000gn/T//cc0qcKWW.s 			page 97


 4124 0126 BB68     		ldr	r3, [r7, #8]
 4125 0128 082B     		cmp	r3, #8
 4126 012a 54D0     		beq	.L298
 4127 012c BB68     		ldr	r3, [r7, #8]
 4128 012e 082B     		cmp	r3, #8
 4129 0130 00D9     		bls	.LCB3682
 4130 0132 75E0     		b	.L299	@long jump
 4131              	.LCB3682:
 4132 0134 BB68     		ldr	r3, [r7, #8]
 4133 0136 002B     		cmp	r3, #0
 4134 0138 03D0     		beq	.L300
 4135 013a BB68     		ldr	r3, [r7, #8]
 4136 013c 042B     		cmp	r3, #4
 4137 013e 25D0     		beq	.L301
 4138 0140 6EE0     		b	.L299
 4139              	.L300:
1381:Drivers/STM32F0xx_HAL_Driver/Src/stm32f0xx_hal_tim_ex.c ****   {
1382:Drivers/STM32F0xx_HAL_Driver/Src/stm32f0xx_hal_tim_ex.c ****     case TIM_CHANNEL_1:
1383:Drivers/STM32F0xx_HAL_Driver/Src/stm32f0xx_hal_tim_ex.c ****     {
1384:Drivers/STM32F0xx_HAL_Driver/Src/stm32f0xx_hal_tim_ex.c ****       /* Set the DMA compare callbacks */
1385:Drivers/STM32F0xx_HAL_Driver/Src/stm32f0xx_hal_tim_ex.c ****       htim->hdma[TIM_DMA_ID_CC1]->XferCpltCallback = TIM_DMADelayPulseNCplt;
 4140              		.loc 1 1385 17
 4141 0142 FB68     		ldr	r3, [r7, #12]
 4142 0144 5B6A     		ldr	r3, [r3, #36]
 4143              		.loc 1 1385 52
 4144 0146 5B4A     		ldr	r2, .L310
 4145 0148 9A62     		str	r2, [r3, #40]
1386:Drivers/STM32F0xx_HAL_Driver/Src/stm32f0xx_hal_tim_ex.c ****       htim->hdma[TIM_DMA_ID_CC1]->XferHalfCpltCallback = TIM_DMADelayPulseHalfCplt;
 4146              		.loc 1 1386 17
 4147 014a FB68     		ldr	r3, [r7, #12]
 4148 014c 5B6A     		ldr	r3, [r3, #36]
 4149              		.loc 1 1386 56
 4150 014e 5A4A     		ldr	r2, .L310+4
 4151 0150 DA62     		str	r2, [r3, #44]
1387:Drivers/STM32F0xx_HAL_Driver/Src/stm32f0xx_hal_tim_ex.c **** 
1388:Drivers/STM32F0xx_HAL_Driver/Src/stm32f0xx_hal_tim_ex.c ****       /* Set the DMA error callback */
1389:Drivers/STM32F0xx_HAL_Driver/Src/stm32f0xx_hal_tim_ex.c ****       htim->hdma[TIM_DMA_ID_CC1]->XferErrorCallback = TIM_DMAErrorCCxN ;
 4152              		.loc 1 1389 17
 4153 0152 FB68     		ldr	r3, [r7, #12]
 4154 0154 5B6A     		ldr	r3, [r3, #36]
 4155              		.loc 1 1389 53
 4156 0156 594A     		ldr	r2, .L310+8
 4157 0158 1A63     		str	r2, [r3, #48]
1390:Drivers/STM32F0xx_HAL_Driver/Src/stm32f0xx_hal_tim_ex.c **** 
1391:Drivers/STM32F0xx_HAL_Driver/Src/stm32f0xx_hal_tim_ex.c ****       /* Enable the DMA channel */
1392:Drivers/STM32F0xx_HAL_Driver/Src/stm32f0xx_hal_tim_ex.c ****       if (HAL_DMA_Start_IT(htim->hdma[TIM_DMA_ID_CC1], (uint32_t)pData, (uint32_t)&htim->Instance->
 4158              		.loc 1 1392 11
 4159 015a FB68     		ldr	r3, [r7, #12]
 4160 015c 586A     		ldr	r0, [r3, #36]
 4161 015e 7968     		ldr	r1, [r7, #4]
 4162              		.loc 1 1392 88
 4163 0160 FB68     		ldr	r3, [r7, #12]
 4164 0162 1B68     		ldr	r3, [r3]
 4165              		.loc 1 1392 83
 4166 0164 3433     		adds	r3, r3, #52
 4167              		.loc 1 1392 11
 4168 0166 1A00     		movs	r2, r3
ARM GAS  /var/folders/d0/cymppscj10lcmm48h781wrc80000gn/T//cc0qcKWW.s 			page 98


 4169 0168 BB1C     		adds	r3, r7, #2
 4170 016a 1B88     		ldrh	r3, [r3]
 4171 016c FFF7FEFF 		bl	HAL_DMA_Start_IT
 4172 0170 031E     		subs	r3, r0, #0
 4173              		.loc 1 1392 10
 4174 0172 01D0     		beq	.L302
1393:Drivers/STM32F0xx_HAL_Driver/Src/stm32f0xx_hal_tim_ex.c ****                            Length) != HAL_OK)
1394:Drivers/STM32F0xx_HAL_Driver/Src/stm32f0xx_hal_tim_ex.c ****       {
1395:Drivers/STM32F0xx_HAL_Driver/Src/stm32f0xx_hal_tim_ex.c ****         /* Return error status */
1396:Drivers/STM32F0xx_HAL_Driver/Src/stm32f0xx_hal_tim_ex.c ****         return HAL_ERROR;
 4175              		.loc 1 1396 16
 4176 0174 0123     		movs	r3, #1
 4177 0176 99E0     		b	.L283
 4178              	.L302:
1397:Drivers/STM32F0xx_HAL_Driver/Src/stm32f0xx_hal_tim_ex.c ****       }
1398:Drivers/STM32F0xx_HAL_Driver/Src/stm32f0xx_hal_tim_ex.c ****       /* Enable the TIM Capture/Compare 1 DMA request */
1399:Drivers/STM32F0xx_HAL_Driver/Src/stm32f0xx_hal_tim_ex.c ****       __HAL_TIM_ENABLE_DMA(htim, TIM_DMA_CC1);
 4179              		.loc 1 1399 7
 4180 0178 FB68     		ldr	r3, [r7, #12]
 4181 017a 1B68     		ldr	r3, [r3]
 4182 017c DA68     		ldr	r2, [r3, #12]
 4183 017e FB68     		ldr	r3, [r7, #12]
 4184 0180 1B68     		ldr	r3, [r3]
 4185 0182 8021     		movs	r1, #128
 4186 0184 8900     		lsls	r1, r1, #2
 4187 0186 0A43     		orrs	r2, r1
 4188 0188 DA60     		str	r2, [r3, #12]
1400:Drivers/STM32F0xx_HAL_Driver/Src/stm32f0xx_hal_tim_ex.c ****       break;
 4189              		.loc 1 1400 7
 4190 018a 4EE0     		b	.L303
 4191              	.L301:
1401:Drivers/STM32F0xx_HAL_Driver/Src/stm32f0xx_hal_tim_ex.c ****     }
1402:Drivers/STM32F0xx_HAL_Driver/Src/stm32f0xx_hal_tim_ex.c **** 
1403:Drivers/STM32F0xx_HAL_Driver/Src/stm32f0xx_hal_tim_ex.c ****     case TIM_CHANNEL_2:
1404:Drivers/STM32F0xx_HAL_Driver/Src/stm32f0xx_hal_tim_ex.c ****     {
1405:Drivers/STM32F0xx_HAL_Driver/Src/stm32f0xx_hal_tim_ex.c ****       /* Set the DMA compare callbacks */
1406:Drivers/STM32F0xx_HAL_Driver/Src/stm32f0xx_hal_tim_ex.c ****       htim->hdma[TIM_DMA_ID_CC2]->XferCpltCallback = TIM_DMADelayPulseNCplt;
 4192              		.loc 1 1406 17
 4193 018c FB68     		ldr	r3, [r7, #12]
 4194 018e 9B6A     		ldr	r3, [r3, #40]
 4195              		.loc 1 1406 52
 4196 0190 484A     		ldr	r2, .L310
 4197 0192 9A62     		str	r2, [r3, #40]
1407:Drivers/STM32F0xx_HAL_Driver/Src/stm32f0xx_hal_tim_ex.c ****       htim->hdma[TIM_DMA_ID_CC2]->XferHalfCpltCallback = TIM_DMADelayPulseHalfCplt;
 4198              		.loc 1 1407 17
 4199 0194 FB68     		ldr	r3, [r7, #12]
 4200 0196 9B6A     		ldr	r3, [r3, #40]
 4201              		.loc 1 1407 56
 4202 0198 474A     		ldr	r2, .L310+4
 4203 019a DA62     		str	r2, [r3, #44]
1408:Drivers/STM32F0xx_HAL_Driver/Src/stm32f0xx_hal_tim_ex.c **** 
1409:Drivers/STM32F0xx_HAL_Driver/Src/stm32f0xx_hal_tim_ex.c ****       /* Set the DMA error callback */
1410:Drivers/STM32F0xx_HAL_Driver/Src/stm32f0xx_hal_tim_ex.c ****       htim->hdma[TIM_DMA_ID_CC2]->XferErrorCallback = TIM_DMAErrorCCxN ;
 4204              		.loc 1 1410 17
 4205 019c FB68     		ldr	r3, [r7, #12]
 4206 019e 9B6A     		ldr	r3, [r3, #40]
 4207              		.loc 1 1410 53
ARM GAS  /var/folders/d0/cymppscj10lcmm48h781wrc80000gn/T//cc0qcKWW.s 			page 99


 4208 01a0 464A     		ldr	r2, .L310+8
 4209 01a2 1A63     		str	r2, [r3, #48]
1411:Drivers/STM32F0xx_HAL_Driver/Src/stm32f0xx_hal_tim_ex.c **** 
1412:Drivers/STM32F0xx_HAL_Driver/Src/stm32f0xx_hal_tim_ex.c ****       /* Enable the DMA channel */
1413:Drivers/STM32F0xx_HAL_Driver/Src/stm32f0xx_hal_tim_ex.c ****       if (HAL_DMA_Start_IT(htim->hdma[TIM_DMA_ID_CC2], (uint32_t)pData, (uint32_t)&htim->Instance->
 4210              		.loc 1 1413 11
 4211 01a4 FB68     		ldr	r3, [r7, #12]
 4212 01a6 986A     		ldr	r0, [r3, #40]
 4213 01a8 7968     		ldr	r1, [r7, #4]
 4214              		.loc 1 1413 88
 4215 01aa FB68     		ldr	r3, [r7, #12]
 4216 01ac 1B68     		ldr	r3, [r3]
 4217              		.loc 1 1413 83
 4218 01ae 3833     		adds	r3, r3, #56
 4219              		.loc 1 1413 11
 4220 01b0 1A00     		movs	r2, r3
 4221 01b2 BB1C     		adds	r3, r7, #2
 4222 01b4 1B88     		ldrh	r3, [r3]
 4223 01b6 FFF7FEFF 		bl	HAL_DMA_Start_IT
 4224 01ba 031E     		subs	r3, r0, #0
 4225              		.loc 1 1413 10
 4226 01bc 01D0     		beq	.L304
1414:Drivers/STM32F0xx_HAL_Driver/Src/stm32f0xx_hal_tim_ex.c ****                            Length) != HAL_OK)
1415:Drivers/STM32F0xx_HAL_Driver/Src/stm32f0xx_hal_tim_ex.c ****       {
1416:Drivers/STM32F0xx_HAL_Driver/Src/stm32f0xx_hal_tim_ex.c ****         /* Return error status */
1417:Drivers/STM32F0xx_HAL_Driver/Src/stm32f0xx_hal_tim_ex.c ****         return HAL_ERROR;
 4227              		.loc 1 1417 16
 4228 01be 0123     		movs	r3, #1
 4229 01c0 74E0     		b	.L283
 4230              	.L304:
1418:Drivers/STM32F0xx_HAL_Driver/Src/stm32f0xx_hal_tim_ex.c ****       }
1419:Drivers/STM32F0xx_HAL_Driver/Src/stm32f0xx_hal_tim_ex.c ****       /* Enable the TIM Capture/Compare 2 DMA request */
1420:Drivers/STM32F0xx_HAL_Driver/Src/stm32f0xx_hal_tim_ex.c ****       __HAL_TIM_ENABLE_DMA(htim, TIM_DMA_CC2);
 4231              		.loc 1 1420 7
 4232 01c2 FB68     		ldr	r3, [r7, #12]
 4233 01c4 1B68     		ldr	r3, [r3]
 4234 01c6 DA68     		ldr	r2, [r3, #12]
 4235 01c8 FB68     		ldr	r3, [r7, #12]
 4236 01ca 1B68     		ldr	r3, [r3]
 4237 01cc 8021     		movs	r1, #128
 4238 01ce C900     		lsls	r1, r1, #3
 4239 01d0 0A43     		orrs	r2, r1
 4240 01d2 DA60     		str	r2, [r3, #12]
1421:Drivers/STM32F0xx_HAL_Driver/Src/stm32f0xx_hal_tim_ex.c ****       break;
 4241              		.loc 1 1421 7
 4242 01d4 29E0     		b	.L303
 4243              	.L298:
1422:Drivers/STM32F0xx_HAL_Driver/Src/stm32f0xx_hal_tim_ex.c ****     }
1423:Drivers/STM32F0xx_HAL_Driver/Src/stm32f0xx_hal_tim_ex.c **** 
1424:Drivers/STM32F0xx_HAL_Driver/Src/stm32f0xx_hal_tim_ex.c ****     case TIM_CHANNEL_3:
1425:Drivers/STM32F0xx_HAL_Driver/Src/stm32f0xx_hal_tim_ex.c ****     {
1426:Drivers/STM32F0xx_HAL_Driver/Src/stm32f0xx_hal_tim_ex.c ****       /* Set the DMA compare callbacks */
1427:Drivers/STM32F0xx_HAL_Driver/Src/stm32f0xx_hal_tim_ex.c ****       htim->hdma[TIM_DMA_ID_CC3]->XferCpltCallback = TIM_DMADelayPulseNCplt;
 4244              		.loc 1 1427 17
 4245 01d6 FB68     		ldr	r3, [r7, #12]
 4246 01d8 DB6A     		ldr	r3, [r3, #44]
 4247              		.loc 1 1427 52
ARM GAS  /var/folders/d0/cymppscj10lcmm48h781wrc80000gn/T//cc0qcKWW.s 			page 100


 4248 01da 364A     		ldr	r2, .L310
 4249 01dc 9A62     		str	r2, [r3, #40]
1428:Drivers/STM32F0xx_HAL_Driver/Src/stm32f0xx_hal_tim_ex.c ****       htim->hdma[TIM_DMA_ID_CC3]->XferHalfCpltCallback = TIM_DMADelayPulseHalfCplt;
 4250              		.loc 1 1428 17
 4251 01de FB68     		ldr	r3, [r7, #12]
 4252 01e0 DB6A     		ldr	r3, [r3, #44]
 4253              		.loc 1 1428 56
 4254 01e2 354A     		ldr	r2, .L310+4
 4255 01e4 DA62     		str	r2, [r3, #44]
1429:Drivers/STM32F0xx_HAL_Driver/Src/stm32f0xx_hal_tim_ex.c **** 
1430:Drivers/STM32F0xx_HAL_Driver/Src/stm32f0xx_hal_tim_ex.c ****       /* Set the DMA error callback */
1431:Drivers/STM32F0xx_HAL_Driver/Src/stm32f0xx_hal_tim_ex.c ****       htim->hdma[TIM_DMA_ID_CC3]->XferErrorCallback = TIM_DMAErrorCCxN ;
 4256              		.loc 1 1431 17
 4257 01e6 FB68     		ldr	r3, [r7, #12]
 4258 01e8 DB6A     		ldr	r3, [r3, #44]
 4259              		.loc 1 1431 53
 4260 01ea 344A     		ldr	r2, .L310+8
 4261 01ec 1A63     		str	r2, [r3, #48]
1432:Drivers/STM32F0xx_HAL_Driver/Src/stm32f0xx_hal_tim_ex.c **** 
1433:Drivers/STM32F0xx_HAL_Driver/Src/stm32f0xx_hal_tim_ex.c ****       /* Enable the DMA channel */
1434:Drivers/STM32F0xx_HAL_Driver/Src/stm32f0xx_hal_tim_ex.c ****       if (HAL_DMA_Start_IT(htim->hdma[TIM_DMA_ID_CC3], (uint32_t)pData, (uint32_t)&htim->Instance->
 4262              		.loc 1 1434 11
 4263 01ee FB68     		ldr	r3, [r7, #12]
 4264 01f0 D86A     		ldr	r0, [r3, #44]
 4265 01f2 7968     		ldr	r1, [r7, #4]
 4266              		.loc 1 1434 88
 4267 01f4 FB68     		ldr	r3, [r7, #12]
 4268 01f6 1B68     		ldr	r3, [r3]
 4269              		.loc 1 1434 83
 4270 01f8 3C33     		adds	r3, r3, #60
 4271              		.loc 1 1434 11
 4272 01fa 1A00     		movs	r2, r3
 4273 01fc BB1C     		adds	r3, r7, #2
 4274 01fe 1B88     		ldrh	r3, [r3]
 4275 0200 FFF7FEFF 		bl	HAL_DMA_Start_IT
 4276 0204 031E     		subs	r3, r0, #0
 4277              		.loc 1 1434 10
 4278 0206 01D0     		beq	.L305
1435:Drivers/STM32F0xx_HAL_Driver/Src/stm32f0xx_hal_tim_ex.c ****                            Length) != HAL_OK)
1436:Drivers/STM32F0xx_HAL_Driver/Src/stm32f0xx_hal_tim_ex.c ****       {
1437:Drivers/STM32F0xx_HAL_Driver/Src/stm32f0xx_hal_tim_ex.c ****         /* Return error status */
1438:Drivers/STM32F0xx_HAL_Driver/Src/stm32f0xx_hal_tim_ex.c ****         return HAL_ERROR;
 4279              		.loc 1 1438 16
 4280 0208 0123     		movs	r3, #1
 4281 020a 4FE0     		b	.L283
 4282              	.L305:
1439:Drivers/STM32F0xx_HAL_Driver/Src/stm32f0xx_hal_tim_ex.c ****       }
1440:Drivers/STM32F0xx_HAL_Driver/Src/stm32f0xx_hal_tim_ex.c ****       /* Enable the TIM Capture/Compare 3 DMA request */
1441:Drivers/STM32F0xx_HAL_Driver/Src/stm32f0xx_hal_tim_ex.c ****       __HAL_TIM_ENABLE_DMA(htim, TIM_DMA_CC3);
 4283              		.loc 1 1441 7
 4284 020c FB68     		ldr	r3, [r7, #12]
 4285 020e 1B68     		ldr	r3, [r3]
 4286 0210 DA68     		ldr	r2, [r3, #12]
 4287 0212 FB68     		ldr	r3, [r7, #12]
 4288 0214 1B68     		ldr	r3, [r3]
 4289 0216 8021     		movs	r1, #128
 4290 0218 0901     		lsls	r1, r1, #4
ARM GAS  /var/folders/d0/cymppscj10lcmm48h781wrc80000gn/T//cc0qcKWW.s 			page 101


 4291 021a 0A43     		orrs	r2, r1
 4292 021c DA60     		str	r2, [r3, #12]
1442:Drivers/STM32F0xx_HAL_Driver/Src/stm32f0xx_hal_tim_ex.c ****       break;
 4293              		.loc 1 1442 7
 4294 021e 04E0     		b	.L303
 4295              	.L299:
1443:Drivers/STM32F0xx_HAL_Driver/Src/stm32f0xx_hal_tim_ex.c ****     }
1444:Drivers/STM32F0xx_HAL_Driver/Src/stm32f0xx_hal_tim_ex.c **** 
1445:Drivers/STM32F0xx_HAL_Driver/Src/stm32f0xx_hal_tim_ex.c ****     default:
1446:Drivers/STM32F0xx_HAL_Driver/Src/stm32f0xx_hal_tim_ex.c ****       status = HAL_ERROR;
 4296              		.loc 1 1446 14
 4297 0220 1723     		movs	r3, #23
 4298 0222 FB18     		adds	r3, r7, r3
 4299 0224 0122     		movs	r2, #1
 4300 0226 1A70     		strb	r2, [r3]
1447:Drivers/STM32F0xx_HAL_Driver/Src/stm32f0xx_hal_tim_ex.c ****       break;
 4301              		.loc 1 1447 7
 4302 0228 C046     		nop
 4303              	.L303:
1448:Drivers/STM32F0xx_HAL_Driver/Src/stm32f0xx_hal_tim_ex.c ****   }
1449:Drivers/STM32F0xx_HAL_Driver/Src/stm32f0xx_hal_tim_ex.c **** 
1450:Drivers/STM32F0xx_HAL_Driver/Src/stm32f0xx_hal_tim_ex.c ****   if (status == HAL_OK)
 4304              		.loc 1 1450 6
 4305 022a 1723     		movs	r3, #23
 4306 022c FB18     		adds	r3, r7, r3
 4307 022e 1B78     		ldrb	r3, [r3]
 4308 0230 002B     		cmp	r3, #0
 4309 0232 38D1     		bne	.L306
1451:Drivers/STM32F0xx_HAL_Driver/Src/stm32f0xx_hal_tim_ex.c ****   {
1452:Drivers/STM32F0xx_HAL_Driver/Src/stm32f0xx_hal_tim_ex.c ****     /* Enable the complementary PWM output  */
1453:Drivers/STM32F0xx_HAL_Driver/Src/stm32f0xx_hal_tim_ex.c ****     TIM_CCxNChannelCmd(htim->Instance, Channel, TIM_CCxN_ENABLE);
 4310              		.loc 1 1453 5
 4311 0234 FB68     		ldr	r3, [r7, #12]
 4312 0236 1B68     		ldr	r3, [r3]
 4313 0238 B968     		ldr	r1, [r7, #8]
 4314 023a 0422     		movs	r2, #4
 4315 023c 1800     		movs	r0, r3
 4316 023e FFF7FEFF 		bl	TIM_CCxNChannelCmd
1454:Drivers/STM32F0xx_HAL_Driver/Src/stm32f0xx_hal_tim_ex.c **** 
1455:Drivers/STM32F0xx_HAL_Driver/Src/stm32f0xx_hal_tim_ex.c ****     /* Enable the Main Output */
1456:Drivers/STM32F0xx_HAL_Driver/Src/stm32f0xx_hal_tim_ex.c ****     __HAL_TIM_MOE_ENABLE(htim);
 4317              		.loc 1 1456 5
 4318 0242 FB68     		ldr	r3, [r7, #12]
 4319 0244 1B68     		ldr	r3, [r3]
 4320 0246 5A6C     		ldr	r2, [r3, #68]
 4321 0248 FB68     		ldr	r3, [r7, #12]
 4322 024a 1B68     		ldr	r3, [r3]
 4323 024c 8021     		movs	r1, #128
 4324 024e 0902     		lsls	r1, r1, #8
 4325 0250 0A43     		orrs	r2, r1
 4326 0252 5A64     		str	r2, [r3, #68]
1457:Drivers/STM32F0xx_HAL_Driver/Src/stm32f0xx_hal_tim_ex.c **** 
1458:Drivers/STM32F0xx_HAL_Driver/Src/stm32f0xx_hal_tim_ex.c ****     /* Enable the Peripheral, except in trigger mode where enable is automatically done with trigge
1459:Drivers/STM32F0xx_HAL_Driver/Src/stm32f0xx_hal_tim_ex.c ****     if (IS_TIM_SLAVE_INSTANCE(htim->Instance))
 4327              		.loc 1 1459 9
 4328 0254 FB68     		ldr	r3, [r7, #12]
 4329 0256 1B68     		ldr	r3, [r3]
ARM GAS  /var/folders/d0/cymppscj10lcmm48h781wrc80000gn/T//cc0qcKWW.s 			page 102


 4330              		.loc 1 1459 8
 4331 0258 194A     		ldr	r2, .L310+12
 4332 025a 9342     		cmp	r3, r2
 4333 025c 09D0     		beq	.L307
 4334              		.loc 1 1459 9 discriminator 1
 4335 025e FB68     		ldr	r3, [r7, #12]
 4336 0260 1B68     		ldr	r3, [r3]
 4337 0262 184A     		ldr	r2, .L310+16
 4338 0264 9342     		cmp	r3, r2
 4339 0266 04D0     		beq	.L307
 4340              		.loc 1 1459 9 is_stmt 0 discriminator 2
 4341 0268 FB68     		ldr	r3, [r7, #12]
 4342 026a 1B68     		ldr	r3, [r3]
 4343 026c 164A     		ldr	r2, .L310+20
 4344 026e 9342     		cmp	r3, r2
 4345 0270 11D1     		bne	.L308
 4346              	.L307:
1460:Drivers/STM32F0xx_HAL_Driver/Src/stm32f0xx_hal_tim_ex.c ****     {
1461:Drivers/STM32F0xx_HAL_Driver/Src/stm32f0xx_hal_tim_ex.c ****       tmpsmcr = htim->Instance->SMCR & TIM_SMCR_SMS;
 4347              		.loc 1 1461 21 is_stmt 1
 4348 0272 FB68     		ldr	r3, [r7, #12]
 4349 0274 1B68     		ldr	r3, [r3]
 4350              		.loc 1 1461 31
 4351 0276 9B68     		ldr	r3, [r3, #8]
 4352              		.loc 1 1461 15
 4353 0278 0722     		movs	r2, #7
 4354 027a 1340     		ands	r3, r2
 4355 027c 3B61     		str	r3, [r7, #16]
1462:Drivers/STM32F0xx_HAL_Driver/Src/stm32f0xx_hal_tim_ex.c ****       if (!IS_TIM_SLAVEMODE_TRIGGER_ENABLED(tmpsmcr))
 4356              		.loc 1 1462 10
 4357 027e 3B69     		ldr	r3, [r7, #16]
 4358 0280 062B     		cmp	r3, #6
 4359 0282 10D0     		beq	.L306
1463:Drivers/STM32F0xx_HAL_Driver/Src/stm32f0xx_hal_tim_ex.c ****       {
1464:Drivers/STM32F0xx_HAL_Driver/Src/stm32f0xx_hal_tim_ex.c ****         __HAL_TIM_ENABLE(htim);
 4360              		.loc 1 1464 9
 4361 0284 FB68     		ldr	r3, [r7, #12]
 4362 0286 1B68     		ldr	r3, [r3]
 4363 0288 1A68     		ldr	r2, [r3]
 4364 028a FB68     		ldr	r3, [r7, #12]
 4365 028c 1B68     		ldr	r3, [r3]
 4366 028e 0121     		movs	r1, #1
 4367 0290 0A43     		orrs	r2, r1
 4368 0292 1A60     		str	r2, [r3]
1462:Drivers/STM32F0xx_HAL_Driver/Src/stm32f0xx_hal_tim_ex.c ****       if (!IS_TIM_SLAVEMODE_TRIGGER_ENABLED(tmpsmcr))
 4369              		.loc 1 1462 10
 4370 0294 07E0     		b	.L306
 4371              	.L308:
1465:Drivers/STM32F0xx_HAL_Driver/Src/stm32f0xx_hal_tim_ex.c ****       }
1466:Drivers/STM32F0xx_HAL_Driver/Src/stm32f0xx_hal_tim_ex.c ****     }
1467:Drivers/STM32F0xx_HAL_Driver/Src/stm32f0xx_hal_tim_ex.c ****     else
1468:Drivers/STM32F0xx_HAL_Driver/Src/stm32f0xx_hal_tim_ex.c ****     {
1469:Drivers/STM32F0xx_HAL_Driver/Src/stm32f0xx_hal_tim_ex.c ****       __HAL_TIM_ENABLE(htim);
 4372              		.loc 1 1469 7
 4373 0296 FB68     		ldr	r3, [r7, #12]
 4374 0298 1B68     		ldr	r3, [r3]
 4375 029a 1A68     		ldr	r2, [r3]
ARM GAS  /var/folders/d0/cymppscj10lcmm48h781wrc80000gn/T//cc0qcKWW.s 			page 103


 4376 029c FB68     		ldr	r3, [r7, #12]
 4377 029e 1B68     		ldr	r3, [r3]
 4378 02a0 0121     		movs	r1, #1
 4379 02a2 0A43     		orrs	r2, r1
 4380 02a4 1A60     		str	r2, [r3]
 4381              	.L306:
1470:Drivers/STM32F0xx_HAL_Driver/Src/stm32f0xx_hal_tim_ex.c ****     }
1471:Drivers/STM32F0xx_HAL_Driver/Src/stm32f0xx_hal_tim_ex.c ****   }
1472:Drivers/STM32F0xx_HAL_Driver/Src/stm32f0xx_hal_tim_ex.c **** 
1473:Drivers/STM32F0xx_HAL_Driver/Src/stm32f0xx_hal_tim_ex.c ****   /* Return function status */
1474:Drivers/STM32F0xx_HAL_Driver/Src/stm32f0xx_hal_tim_ex.c ****   return status;
 4382              		.loc 1 1474 10
 4383 02a6 1723     		movs	r3, #23
 4384 02a8 FB18     		adds	r3, r7, r3
 4385 02aa 1B78     		ldrb	r3, [r3]
 4386              	.L283:
1475:Drivers/STM32F0xx_HAL_Driver/Src/stm32f0xx_hal_tim_ex.c **** }
 4387              		.loc 1 1475 1
 4388 02ac 1800     		movs	r0, r3
 4389 02ae BD46     		mov	sp, r7
 4390 02b0 06B0     		add	sp, sp, #24
 4391              		@ sp needed
 4392 02b2 80BD     		pop	{r7, pc}
 4393              	.L311:
 4394              		.align	2
 4395              	.L310:
 4396 02b4 00000000 		.word	TIM_DMADelayPulseNCplt
 4397 02b8 00000000 		.word	TIM_DMADelayPulseHalfCplt
 4398 02bc 00000000 		.word	TIM_DMAErrorCCxN
 4399 02c0 002C0140 		.word	1073818624
 4400 02c4 00040040 		.word	1073742848
 4401 02c8 00400140 		.word	1073823744
 4402              		.cfi_endproc
 4403              	.LFE60:
 4405              		.section	.text.HAL_TIMEx_PWMN_Stop_DMA,"ax",%progbits
 4406              		.align	1
 4407              		.global	HAL_TIMEx_PWMN_Stop_DMA
 4408              		.syntax unified
 4409              		.code	16
 4410              		.thumb_func
 4412              	HAL_TIMEx_PWMN_Stop_DMA:
 4413              	.LFB61:
1476:Drivers/STM32F0xx_HAL_Driver/Src/stm32f0xx_hal_tim_ex.c **** 
1477:Drivers/STM32F0xx_HAL_Driver/Src/stm32f0xx_hal_tim_ex.c **** /**
1478:Drivers/STM32F0xx_HAL_Driver/Src/stm32f0xx_hal_tim_ex.c ****   * @brief  Stops the TIM PWM signal generation in DMA mode on the complementary
1479:Drivers/STM32F0xx_HAL_Driver/Src/stm32f0xx_hal_tim_ex.c ****   *         output
1480:Drivers/STM32F0xx_HAL_Driver/Src/stm32f0xx_hal_tim_ex.c ****   * @param  htim TIM handle
1481:Drivers/STM32F0xx_HAL_Driver/Src/stm32f0xx_hal_tim_ex.c ****   * @param  Channel TIM Channel to be disabled
1482:Drivers/STM32F0xx_HAL_Driver/Src/stm32f0xx_hal_tim_ex.c ****   *          This parameter can be one of the following values:
1483:Drivers/STM32F0xx_HAL_Driver/Src/stm32f0xx_hal_tim_ex.c ****   *            @arg TIM_CHANNEL_1: TIM Channel 1 selected
1484:Drivers/STM32F0xx_HAL_Driver/Src/stm32f0xx_hal_tim_ex.c ****   *            @arg TIM_CHANNEL_2: TIM Channel 2 selected
1485:Drivers/STM32F0xx_HAL_Driver/Src/stm32f0xx_hal_tim_ex.c ****   *            @arg TIM_CHANNEL_3: TIM Channel 3 selected
1486:Drivers/STM32F0xx_HAL_Driver/Src/stm32f0xx_hal_tim_ex.c ****   * @retval HAL status
1487:Drivers/STM32F0xx_HAL_Driver/Src/stm32f0xx_hal_tim_ex.c ****   */
1488:Drivers/STM32F0xx_HAL_Driver/Src/stm32f0xx_hal_tim_ex.c **** HAL_StatusTypeDef HAL_TIMEx_PWMN_Stop_DMA(TIM_HandleTypeDef *htim, uint32_t Channel)
1489:Drivers/STM32F0xx_HAL_Driver/Src/stm32f0xx_hal_tim_ex.c **** {
 4414              		.loc 1 1489 1
ARM GAS  /var/folders/d0/cymppscj10lcmm48h781wrc80000gn/T//cc0qcKWW.s 			page 104


 4415              		.cfi_startproc
 4416              		@ args = 0, pretend = 0, frame = 16
 4417              		@ frame_needed = 1, uses_anonymous_args = 0
 4418 0000 80B5     		push	{r7, lr}
 4419              	.LCFI63:
 4420              		.cfi_def_cfa_offset 8
 4421              		.cfi_offset 7, -8
 4422              		.cfi_offset 14, -4
 4423 0002 84B0     		sub	sp, sp, #16
 4424              	.LCFI64:
 4425              		.cfi_def_cfa_offset 24
 4426 0004 00AF     		add	r7, sp, #0
 4427              	.LCFI65:
 4428              		.cfi_def_cfa_register 7
 4429 0006 7860     		str	r0, [r7, #4]
 4430 0008 3960     		str	r1, [r7]
1490:Drivers/STM32F0xx_HAL_Driver/Src/stm32f0xx_hal_tim_ex.c ****   HAL_StatusTypeDef status = HAL_OK;
 4431              		.loc 1 1490 21
 4432 000a 0F23     		movs	r3, #15
 4433 000c FB18     		adds	r3, r7, r3
 4434 000e 0022     		movs	r2, #0
 4435 0010 1A70     		strb	r2, [r3]
1491:Drivers/STM32F0xx_HAL_Driver/Src/stm32f0xx_hal_tim_ex.c **** 
1492:Drivers/STM32F0xx_HAL_Driver/Src/stm32f0xx_hal_tim_ex.c ****   /* Check the parameters */
1493:Drivers/STM32F0xx_HAL_Driver/Src/stm32f0xx_hal_tim_ex.c ****   assert_param(IS_TIM_CCXN_INSTANCE(htim->Instance, Channel));
1494:Drivers/STM32F0xx_HAL_Driver/Src/stm32f0xx_hal_tim_ex.c **** 
1495:Drivers/STM32F0xx_HAL_Driver/Src/stm32f0xx_hal_tim_ex.c ****   switch (Channel)
 4436              		.loc 1 1495 3
 4437 0012 3B68     		ldr	r3, [r7]
 4438 0014 082B     		cmp	r3, #8
 4439 0016 25D0     		beq	.L313
 4440 0018 3B68     		ldr	r3, [r7]
 4441 001a 082B     		cmp	r3, #8
 4442 001c 30D8     		bhi	.L314
 4443 001e 3B68     		ldr	r3, [r7]
 4444 0020 002B     		cmp	r3, #0
 4445 0022 03D0     		beq	.L315
 4446 0024 3B68     		ldr	r3, [r7]
 4447 0026 042B     		cmp	r3, #4
 4448 0028 0ED0     		beq	.L316
 4449 002a 29E0     		b	.L314
 4450              	.L315:
1496:Drivers/STM32F0xx_HAL_Driver/Src/stm32f0xx_hal_tim_ex.c ****   {
1497:Drivers/STM32F0xx_HAL_Driver/Src/stm32f0xx_hal_tim_ex.c ****     case TIM_CHANNEL_1:
1498:Drivers/STM32F0xx_HAL_Driver/Src/stm32f0xx_hal_tim_ex.c ****     {
1499:Drivers/STM32F0xx_HAL_Driver/Src/stm32f0xx_hal_tim_ex.c ****       /* Disable the TIM Capture/Compare 1 DMA request */
1500:Drivers/STM32F0xx_HAL_Driver/Src/stm32f0xx_hal_tim_ex.c ****       __HAL_TIM_DISABLE_DMA(htim, TIM_DMA_CC1);
 4451              		.loc 1 1500 7
 4452 002c 7B68     		ldr	r3, [r7, #4]
 4453 002e 1B68     		ldr	r3, [r3]
 4454 0030 DA68     		ldr	r2, [r3, #12]
 4455 0032 7B68     		ldr	r3, [r7, #4]
 4456 0034 1B68     		ldr	r3, [r3]
 4457 0036 4049     		ldr	r1, .L327
 4458 0038 0A40     		ands	r2, r1
 4459 003a DA60     		str	r2, [r3, #12]
1501:Drivers/STM32F0xx_HAL_Driver/Src/stm32f0xx_hal_tim_ex.c ****       (void)HAL_DMA_Abort_IT(htim->hdma[TIM_DMA_ID_CC1]);
ARM GAS  /var/folders/d0/cymppscj10lcmm48h781wrc80000gn/T//cc0qcKWW.s 			page 105


 4460              		.loc 1 1501 13
 4461 003c 7B68     		ldr	r3, [r7, #4]
 4462 003e 5B6A     		ldr	r3, [r3, #36]
 4463 0040 1800     		movs	r0, r3
 4464 0042 FFF7FEFF 		bl	HAL_DMA_Abort_IT
1502:Drivers/STM32F0xx_HAL_Driver/Src/stm32f0xx_hal_tim_ex.c ****       break;
 4465              		.loc 1 1502 7
 4466 0046 20E0     		b	.L317
 4467              	.L316:
1503:Drivers/STM32F0xx_HAL_Driver/Src/stm32f0xx_hal_tim_ex.c ****     }
1504:Drivers/STM32F0xx_HAL_Driver/Src/stm32f0xx_hal_tim_ex.c **** 
1505:Drivers/STM32F0xx_HAL_Driver/Src/stm32f0xx_hal_tim_ex.c ****     case TIM_CHANNEL_2:
1506:Drivers/STM32F0xx_HAL_Driver/Src/stm32f0xx_hal_tim_ex.c ****     {
1507:Drivers/STM32F0xx_HAL_Driver/Src/stm32f0xx_hal_tim_ex.c ****       /* Disable the TIM Capture/Compare 2 DMA request */
1508:Drivers/STM32F0xx_HAL_Driver/Src/stm32f0xx_hal_tim_ex.c ****       __HAL_TIM_DISABLE_DMA(htim, TIM_DMA_CC2);
 4468              		.loc 1 1508 7
 4469 0048 7B68     		ldr	r3, [r7, #4]
 4470 004a 1B68     		ldr	r3, [r3]
 4471 004c DA68     		ldr	r2, [r3, #12]
 4472 004e 7B68     		ldr	r3, [r7, #4]
 4473 0050 1B68     		ldr	r3, [r3]
 4474 0052 3A49     		ldr	r1, .L327+4
 4475 0054 0A40     		ands	r2, r1
 4476 0056 DA60     		str	r2, [r3, #12]
1509:Drivers/STM32F0xx_HAL_Driver/Src/stm32f0xx_hal_tim_ex.c ****       (void)HAL_DMA_Abort_IT(htim->hdma[TIM_DMA_ID_CC2]);
 4477              		.loc 1 1509 13
 4478 0058 7B68     		ldr	r3, [r7, #4]
 4479 005a 9B6A     		ldr	r3, [r3, #40]
 4480 005c 1800     		movs	r0, r3
 4481 005e FFF7FEFF 		bl	HAL_DMA_Abort_IT
1510:Drivers/STM32F0xx_HAL_Driver/Src/stm32f0xx_hal_tim_ex.c ****       break;
 4482              		.loc 1 1510 7
 4483 0062 12E0     		b	.L317
 4484              	.L313:
1511:Drivers/STM32F0xx_HAL_Driver/Src/stm32f0xx_hal_tim_ex.c ****     }
1512:Drivers/STM32F0xx_HAL_Driver/Src/stm32f0xx_hal_tim_ex.c **** 
1513:Drivers/STM32F0xx_HAL_Driver/Src/stm32f0xx_hal_tim_ex.c ****     case TIM_CHANNEL_3:
1514:Drivers/STM32F0xx_HAL_Driver/Src/stm32f0xx_hal_tim_ex.c ****     {
1515:Drivers/STM32F0xx_HAL_Driver/Src/stm32f0xx_hal_tim_ex.c ****       /* Disable the TIM Capture/Compare 3 DMA request */
1516:Drivers/STM32F0xx_HAL_Driver/Src/stm32f0xx_hal_tim_ex.c ****       __HAL_TIM_DISABLE_DMA(htim, TIM_DMA_CC3);
 4485              		.loc 1 1516 7
 4486 0064 7B68     		ldr	r3, [r7, #4]
 4487 0066 1B68     		ldr	r3, [r3]
 4488 0068 DA68     		ldr	r2, [r3, #12]
 4489 006a 7B68     		ldr	r3, [r7, #4]
 4490 006c 1B68     		ldr	r3, [r3]
 4491 006e 3449     		ldr	r1, .L327+8
 4492 0070 0A40     		ands	r2, r1
 4493 0072 DA60     		str	r2, [r3, #12]
1517:Drivers/STM32F0xx_HAL_Driver/Src/stm32f0xx_hal_tim_ex.c ****       (void)HAL_DMA_Abort_IT(htim->hdma[TIM_DMA_ID_CC3]);
 4494              		.loc 1 1517 13
 4495 0074 7B68     		ldr	r3, [r7, #4]
 4496 0076 DB6A     		ldr	r3, [r3, #44]
 4497 0078 1800     		movs	r0, r3
 4498 007a FFF7FEFF 		bl	HAL_DMA_Abort_IT
1518:Drivers/STM32F0xx_HAL_Driver/Src/stm32f0xx_hal_tim_ex.c ****       break;
 4499              		.loc 1 1518 7
ARM GAS  /var/folders/d0/cymppscj10lcmm48h781wrc80000gn/T//cc0qcKWW.s 			page 106


 4500 007e 04E0     		b	.L317
 4501              	.L314:
1519:Drivers/STM32F0xx_HAL_Driver/Src/stm32f0xx_hal_tim_ex.c ****     }
1520:Drivers/STM32F0xx_HAL_Driver/Src/stm32f0xx_hal_tim_ex.c **** 
1521:Drivers/STM32F0xx_HAL_Driver/Src/stm32f0xx_hal_tim_ex.c ****     default:
1522:Drivers/STM32F0xx_HAL_Driver/Src/stm32f0xx_hal_tim_ex.c ****       status = HAL_ERROR;
 4502              		.loc 1 1522 14
 4503 0080 0F23     		movs	r3, #15
 4504 0082 FB18     		adds	r3, r7, r3
 4505 0084 0122     		movs	r2, #1
 4506 0086 1A70     		strb	r2, [r3]
1523:Drivers/STM32F0xx_HAL_Driver/Src/stm32f0xx_hal_tim_ex.c ****       break;
 4507              		.loc 1 1523 7
 4508 0088 C046     		nop
 4509              	.L317:
1524:Drivers/STM32F0xx_HAL_Driver/Src/stm32f0xx_hal_tim_ex.c ****   }
1525:Drivers/STM32F0xx_HAL_Driver/Src/stm32f0xx_hal_tim_ex.c **** 
1526:Drivers/STM32F0xx_HAL_Driver/Src/stm32f0xx_hal_tim_ex.c ****   if (status == HAL_OK)
 4510              		.loc 1 1526 6
 4511 008a 0F23     		movs	r3, #15
 4512 008c FB18     		adds	r3, r7, r3
 4513 008e 1B78     		ldrb	r3, [r3]
 4514 0090 002B     		cmp	r3, #0
 4515 0092 4AD1     		bne	.L318
1527:Drivers/STM32F0xx_HAL_Driver/Src/stm32f0xx_hal_tim_ex.c ****   {
1528:Drivers/STM32F0xx_HAL_Driver/Src/stm32f0xx_hal_tim_ex.c ****     /* Disable the complementary PWM output */
1529:Drivers/STM32F0xx_HAL_Driver/Src/stm32f0xx_hal_tim_ex.c ****     TIM_CCxNChannelCmd(htim->Instance, Channel, TIM_CCxN_DISABLE);
 4516              		.loc 1 1529 5
 4517 0094 7B68     		ldr	r3, [r7, #4]
 4518 0096 1B68     		ldr	r3, [r3]
 4519 0098 3968     		ldr	r1, [r7]
 4520 009a 0022     		movs	r2, #0
 4521 009c 1800     		movs	r0, r3
 4522 009e FFF7FEFF 		bl	TIM_CCxNChannelCmd
1530:Drivers/STM32F0xx_HAL_Driver/Src/stm32f0xx_hal_tim_ex.c **** 
1531:Drivers/STM32F0xx_HAL_Driver/Src/stm32f0xx_hal_tim_ex.c ****     /* Disable the Main Output */
1532:Drivers/STM32F0xx_HAL_Driver/Src/stm32f0xx_hal_tim_ex.c ****     __HAL_TIM_MOE_DISABLE(htim);
 4523              		.loc 1 1532 5
 4524 00a2 7B68     		ldr	r3, [r7, #4]
 4525 00a4 1B68     		ldr	r3, [r3]
 4526 00a6 1B6A     		ldr	r3, [r3, #32]
 4527 00a8 264A     		ldr	r2, .L327+12
 4528 00aa 1340     		ands	r3, r2
 4529 00ac 0DD1     		bne	.L319
 4530              		.loc 1 1532 5 is_stmt 0 discriminator 1
 4531 00ae 7B68     		ldr	r3, [r7, #4]
 4532 00b0 1B68     		ldr	r3, [r3]
 4533 00b2 1B6A     		ldr	r3, [r3, #32]
 4534 00b4 244A     		ldr	r2, .L327+16
 4535 00b6 1340     		ands	r3, r2
 4536 00b8 07D1     		bne	.L319
 4537              		.loc 1 1532 5 discriminator 2
 4538 00ba 7B68     		ldr	r3, [r7, #4]
 4539 00bc 1B68     		ldr	r3, [r3]
 4540 00be 5A6C     		ldr	r2, [r3, #68]
 4541 00c0 7B68     		ldr	r3, [r7, #4]
 4542 00c2 1B68     		ldr	r3, [r3]
ARM GAS  /var/folders/d0/cymppscj10lcmm48h781wrc80000gn/T//cc0qcKWW.s 			page 107


 4543 00c4 2149     		ldr	r1, .L327+20
 4544 00c6 0A40     		ands	r2, r1
 4545 00c8 5A64     		str	r2, [r3, #68]
 4546              	.L319:
1533:Drivers/STM32F0xx_HAL_Driver/Src/stm32f0xx_hal_tim_ex.c **** 
1534:Drivers/STM32F0xx_HAL_Driver/Src/stm32f0xx_hal_tim_ex.c ****     /* Disable the Peripheral */
1535:Drivers/STM32F0xx_HAL_Driver/Src/stm32f0xx_hal_tim_ex.c ****     __HAL_TIM_DISABLE(htim);
 4547              		.loc 1 1535 5 is_stmt 1
 4548 00ca 7B68     		ldr	r3, [r7, #4]
 4549 00cc 1B68     		ldr	r3, [r3]
 4550 00ce 1B6A     		ldr	r3, [r3, #32]
 4551 00d0 1C4A     		ldr	r2, .L327+12
 4552 00d2 1340     		ands	r3, r2
 4553 00d4 0DD1     		bne	.L320
 4554              		.loc 1 1535 5 is_stmt 0 discriminator 1
 4555 00d6 7B68     		ldr	r3, [r7, #4]
 4556 00d8 1B68     		ldr	r3, [r3]
 4557 00da 1B6A     		ldr	r3, [r3, #32]
 4558 00dc 1A4A     		ldr	r2, .L327+16
 4559 00de 1340     		ands	r3, r2
 4560 00e0 07D1     		bne	.L320
 4561              		.loc 1 1535 5 discriminator 2
 4562 00e2 7B68     		ldr	r3, [r7, #4]
 4563 00e4 1B68     		ldr	r3, [r3]
 4564 00e6 1A68     		ldr	r2, [r3]
 4565 00e8 7B68     		ldr	r3, [r7, #4]
 4566 00ea 1B68     		ldr	r3, [r3]
 4567 00ec 0121     		movs	r1, #1
 4568 00ee 8A43     		bics	r2, r1
 4569 00f0 1A60     		str	r2, [r3]
 4570              	.L320:
1536:Drivers/STM32F0xx_HAL_Driver/Src/stm32f0xx_hal_tim_ex.c **** 
1537:Drivers/STM32F0xx_HAL_Driver/Src/stm32f0xx_hal_tim_ex.c ****     /* Set the TIM complementary channel state */
1538:Drivers/STM32F0xx_HAL_Driver/Src/stm32f0xx_hal_tim_ex.c ****     TIM_CHANNEL_N_STATE_SET(htim, Channel, HAL_TIM_CHANNEL_STATE_READY);
 4571              		.loc 1 1538 5 is_stmt 1
 4572 00f2 3B68     		ldr	r3, [r7]
 4573 00f4 002B     		cmp	r3, #0
 4574 00f6 04D1     		bne	.L321
 4575              		.loc 1 1538 5 is_stmt 0 discriminator 1
 4576 00f8 7B68     		ldr	r3, [r7, #4]
 4577 00fa 4222     		movs	r2, #66
 4578 00fc 0121     		movs	r1, #1
 4579 00fe 9954     		strb	r1, [r3, r2]
 4580 0100 13E0     		b	.L318
 4581              	.L321:
 4582              		.loc 1 1538 5 discriminator 2
 4583 0102 3B68     		ldr	r3, [r7]
 4584 0104 042B     		cmp	r3, #4
 4585 0106 04D1     		bne	.L322
 4586              		.loc 1 1538 5 discriminator 3
 4587 0108 7B68     		ldr	r3, [r7, #4]
 4588 010a 4322     		movs	r2, #67
 4589 010c 0121     		movs	r1, #1
 4590 010e 9954     		strb	r1, [r3, r2]
 4591 0110 0BE0     		b	.L318
 4592              	.L322:
 4593              		.loc 1 1538 5 discriminator 4
ARM GAS  /var/folders/d0/cymppscj10lcmm48h781wrc80000gn/T//cc0qcKWW.s 			page 108


 4594 0112 3B68     		ldr	r3, [r7]
 4595 0114 082B     		cmp	r3, #8
 4596 0116 04D1     		bne	.L324
 4597              		.loc 1 1538 5 discriminator 6
 4598 0118 7B68     		ldr	r3, [r7, #4]
 4599 011a 4422     		movs	r2, #68
 4600 011c 0121     		movs	r1, #1
 4601 011e 9954     		strb	r1, [r3, r2]
 4602 0120 03E0     		b	.L318
 4603              	.L324:
 4604              		.loc 1 1538 5 discriminator 7
 4605 0122 7B68     		ldr	r3, [r7, #4]
 4606 0124 4522     		movs	r2, #69
 4607 0126 0121     		movs	r1, #1
 4608 0128 9954     		strb	r1, [r3, r2]
 4609              	.L318:
1539:Drivers/STM32F0xx_HAL_Driver/Src/stm32f0xx_hal_tim_ex.c ****   }
1540:Drivers/STM32F0xx_HAL_Driver/Src/stm32f0xx_hal_tim_ex.c **** 
1541:Drivers/STM32F0xx_HAL_Driver/Src/stm32f0xx_hal_tim_ex.c ****   /* Return function status */
1542:Drivers/STM32F0xx_HAL_Driver/Src/stm32f0xx_hal_tim_ex.c ****   return status;
 4610              		.loc 1 1542 10 is_stmt 1
 4611 012a 0F23     		movs	r3, #15
 4612 012c FB18     		adds	r3, r7, r3
 4613 012e 1B78     		ldrb	r3, [r3]
1543:Drivers/STM32F0xx_HAL_Driver/Src/stm32f0xx_hal_tim_ex.c **** }
 4614              		.loc 1 1543 1
 4615 0130 1800     		movs	r0, r3
 4616 0132 BD46     		mov	sp, r7
 4617 0134 04B0     		add	sp, sp, #16
 4618              		@ sp needed
 4619 0136 80BD     		pop	{r7, pc}
 4620              	.L328:
 4621              		.align	2
 4622              	.L327:
 4623 0138 FFFDFFFF 		.word	-513
 4624 013c FFFBFFFF 		.word	-1025
 4625 0140 FFF7FFFF 		.word	-2049
 4626 0144 11110000 		.word	4369
 4627 0148 44040000 		.word	1092
 4628 014c FF7FFFFF 		.word	-32769
 4629              		.cfi_endproc
 4630              	.LFE61:
 4632              		.section	.text.HAL_TIMEx_OnePulseN_Start,"ax",%progbits
 4633              		.align	1
 4634              		.global	HAL_TIMEx_OnePulseN_Start
 4635              		.syntax unified
 4636              		.code	16
 4637              		.thumb_func
 4639              	HAL_TIMEx_OnePulseN_Start:
 4640              	.LFB62:
1544:Drivers/STM32F0xx_HAL_Driver/Src/stm32f0xx_hal_tim_ex.c **** 
1545:Drivers/STM32F0xx_HAL_Driver/Src/stm32f0xx_hal_tim_ex.c **** /**
1546:Drivers/STM32F0xx_HAL_Driver/Src/stm32f0xx_hal_tim_ex.c ****   * @}
1547:Drivers/STM32F0xx_HAL_Driver/Src/stm32f0xx_hal_tim_ex.c ****   */
1548:Drivers/STM32F0xx_HAL_Driver/Src/stm32f0xx_hal_tim_ex.c **** 
1549:Drivers/STM32F0xx_HAL_Driver/Src/stm32f0xx_hal_tim_ex.c **** /** @defgroup TIMEx_Exported_Functions_Group4 Extended Timer Complementary One Pulse functions
1550:Drivers/STM32F0xx_HAL_Driver/Src/stm32f0xx_hal_tim_ex.c ****   * @brief    Timer Complementary One Pulse functions
ARM GAS  /var/folders/d0/cymppscj10lcmm48h781wrc80000gn/T//cc0qcKWW.s 			page 109


1551:Drivers/STM32F0xx_HAL_Driver/Src/stm32f0xx_hal_tim_ex.c ****   *
1552:Drivers/STM32F0xx_HAL_Driver/Src/stm32f0xx_hal_tim_ex.c **** @verbatim
1553:Drivers/STM32F0xx_HAL_Driver/Src/stm32f0xx_hal_tim_ex.c ****   ==============================================================================
1554:Drivers/STM32F0xx_HAL_Driver/Src/stm32f0xx_hal_tim_ex.c ****                 ##### Timer Complementary One Pulse functions #####
1555:Drivers/STM32F0xx_HAL_Driver/Src/stm32f0xx_hal_tim_ex.c ****   ==============================================================================
1556:Drivers/STM32F0xx_HAL_Driver/Src/stm32f0xx_hal_tim_ex.c ****   [..]
1557:Drivers/STM32F0xx_HAL_Driver/Src/stm32f0xx_hal_tim_ex.c ****     This section provides functions allowing to:
1558:Drivers/STM32F0xx_HAL_Driver/Src/stm32f0xx_hal_tim_ex.c ****     (+) Start the Complementary One Pulse generation.
1559:Drivers/STM32F0xx_HAL_Driver/Src/stm32f0xx_hal_tim_ex.c ****     (+) Stop the Complementary One Pulse.
1560:Drivers/STM32F0xx_HAL_Driver/Src/stm32f0xx_hal_tim_ex.c ****     (+) Start the Complementary One Pulse and enable interrupts.
1561:Drivers/STM32F0xx_HAL_Driver/Src/stm32f0xx_hal_tim_ex.c ****     (+) Stop the Complementary One Pulse and disable interrupts.
1562:Drivers/STM32F0xx_HAL_Driver/Src/stm32f0xx_hal_tim_ex.c **** 
1563:Drivers/STM32F0xx_HAL_Driver/Src/stm32f0xx_hal_tim_ex.c **** @endverbatim
1564:Drivers/STM32F0xx_HAL_Driver/Src/stm32f0xx_hal_tim_ex.c ****   * @{
1565:Drivers/STM32F0xx_HAL_Driver/Src/stm32f0xx_hal_tim_ex.c ****   */
1566:Drivers/STM32F0xx_HAL_Driver/Src/stm32f0xx_hal_tim_ex.c **** 
1567:Drivers/STM32F0xx_HAL_Driver/Src/stm32f0xx_hal_tim_ex.c **** /**
1568:Drivers/STM32F0xx_HAL_Driver/Src/stm32f0xx_hal_tim_ex.c ****   * @brief  Starts the TIM One Pulse signal generation on the complementary
1569:Drivers/STM32F0xx_HAL_Driver/Src/stm32f0xx_hal_tim_ex.c ****   *         output.
1570:Drivers/STM32F0xx_HAL_Driver/Src/stm32f0xx_hal_tim_ex.c ****   * @note OutputChannel must match the pulse output channel chosen when calling
1571:Drivers/STM32F0xx_HAL_Driver/Src/stm32f0xx_hal_tim_ex.c ****   *       @ref HAL_TIM_OnePulse_ConfigChannel().
1572:Drivers/STM32F0xx_HAL_Driver/Src/stm32f0xx_hal_tim_ex.c ****   * @param  htim TIM One Pulse handle
1573:Drivers/STM32F0xx_HAL_Driver/Src/stm32f0xx_hal_tim_ex.c ****   * @param  OutputChannel pulse output channel to enable
1574:Drivers/STM32F0xx_HAL_Driver/Src/stm32f0xx_hal_tim_ex.c ****   *          This parameter can be one of the following values:
1575:Drivers/STM32F0xx_HAL_Driver/Src/stm32f0xx_hal_tim_ex.c ****   *            @arg TIM_CHANNEL_1: TIM Channel 1 selected
1576:Drivers/STM32F0xx_HAL_Driver/Src/stm32f0xx_hal_tim_ex.c ****   *            @arg TIM_CHANNEL_2: TIM Channel 2 selected
1577:Drivers/STM32F0xx_HAL_Driver/Src/stm32f0xx_hal_tim_ex.c ****   * @retval HAL status
1578:Drivers/STM32F0xx_HAL_Driver/Src/stm32f0xx_hal_tim_ex.c ****   */
1579:Drivers/STM32F0xx_HAL_Driver/Src/stm32f0xx_hal_tim_ex.c **** HAL_StatusTypeDef HAL_TIMEx_OnePulseN_Start(TIM_HandleTypeDef *htim, uint32_t OutputChannel)
1580:Drivers/STM32F0xx_HAL_Driver/Src/stm32f0xx_hal_tim_ex.c **** {
 4641              		.loc 1 1580 1
 4642              		.cfi_startproc
 4643              		@ args = 0, pretend = 0, frame = 16
 4644              		@ frame_needed = 1, uses_anonymous_args = 0
 4645 0000 F0B5     		push	{r4, r5, r6, r7, lr}
 4646              	.LCFI66:
 4647              		.cfi_def_cfa_offset 20
 4648              		.cfi_offset 4, -20
 4649              		.cfi_offset 5, -16
 4650              		.cfi_offset 6, -12
 4651              		.cfi_offset 7, -8
 4652              		.cfi_offset 14, -4
 4653 0002 85B0     		sub	sp, sp, #20
 4654              	.LCFI67:
 4655              		.cfi_def_cfa_offset 40
 4656 0004 00AF     		add	r7, sp, #0
 4657              	.LCFI68:
 4658              		.cfi_def_cfa_register 7
 4659 0006 7860     		str	r0, [r7, #4]
 4660 0008 3960     		str	r1, [r7]
1581:Drivers/STM32F0xx_HAL_Driver/Src/stm32f0xx_hal_tim_ex.c ****   uint32_t input_channel = (OutputChannel == TIM_CHANNEL_1) ? TIM_CHANNEL_2 : TIM_CHANNEL_1;
 4661              		.loc 1 1581 77
 4662 000a 3B68     		ldr	r3, [r7]
 4663 000c 002B     		cmp	r3, #0
 4664 000e 01D1     		bne	.L330
 4665              		.loc 1 1581 77 is_stmt 0 discriminator 1
 4666 0010 0423     		movs	r3, #4
ARM GAS  /var/folders/d0/cymppscj10lcmm48h781wrc80000gn/T//cc0qcKWW.s 			page 110


 4667 0012 00E0     		b	.L331
 4668              	.L330:
 4669              		.loc 1 1581 77 discriminator 2
 4670 0014 0023     		movs	r3, #0
 4671              	.L331:
 4672              		.loc 1 1581 12 is_stmt 1 discriminator 4
 4673 0016 FB60     		str	r3, [r7, #12]
1582:Drivers/STM32F0xx_HAL_Driver/Src/stm32f0xx_hal_tim_ex.c ****   HAL_TIM_ChannelStateTypeDef channel_1_state = TIM_CHANNEL_STATE_GET(htim, TIM_CHANNEL_1);
 4674              		.loc 1 1582 31 discriminator 4
 4675 0018 0B20     		movs	r0, #11
 4676 001a 3B18     		adds	r3, r7, r0
 4677 001c 7A68     		ldr	r2, [r7, #4]
 4678 001e 3E21     		movs	r1, #62
 4679 0020 525C     		ldrb	r2, [r2, r1]
 4680 0022 1A70     		strb	r2, [r3]
1583:Drivers/STM32F0xx_HAL_Driver/Src/stm32f0xx_hal_tim_ex.c ****   HAL_TIM_ChannelStateTypeDef channel_2_state = TIM_CHANNEL_STATE_GET(htim, TIM_CHANNEL_2);
 4681              		.loc 1 1583 31 discriminator 4
 4682 0024 0A24     		movs	r4, #10
 4683 0026 3B19     		adds	r3, r7, r4
 4684 0028 7A68     		ldr	r2, [r7, #4]
 4685 002a 3F21     		movs	r1, #63
 4686 002c 525C     		ldrb	r2, [r2, r1]
 4687 002e 1A70     		strb	r2, [r3]
1584:Drivers/STM32F0xx_HAL_Driver/Src/stm32f0xx_hal_tim_ex.c ****   HAL_TIM_ChannelStateTypeDef complementary_channel_1_state = TIM_CHANNEL_N_STATE_GET(htim, TIM_CHA
 4688              		.loc 1 1584 31 discriminator 4
 4689 0030 0925     		movs	r5, #9
 4690 0032 7B19     		adds	r3, r7, r5
 4691 0034 7A68     		ldr	r2, [r7, #4]
 4692 0036 4221     		movs	r1, #66
 4693 0038 525C     		ldrb	r2, [r2, r1]
 4694 003a 1A70     		strb	r2, [r3]
1585:Drivers/STM32F0xx_HAL_Driver/Src/stm32f0xx_hal_tim_ex.c ****   HAL_TIM_ChannelStateTypeDef complementary_channel_2_state = TIM_CHANNEL_N_STATE_GET(htim, TIM_CHA
 4695              		.loc 1 1585 31 discriminator 4
 4696 003c 0826     		movs	r6, #8
 4697 003e BB19     		adds	r3, r7, r6
 4698 0040 7A68     		ldr	r2, [r7, #4]
 4699 0042 4321     		movs	r1, #67
 4700 0044 525C     		ldrb	r2, [r2, r1]
 4701 0046 1A70     		strb	r2, [r3]
1586:Drivers/STM32F0xx_HAL_Driver/Src/stm32f0xx_hal_tim_ex.c **** 
1587:Drivers/STM32F0xx_HAL_Driver/Src/stm32f0xx_hal_tim_ex.c ****   /* Check the parameters */
1588:Drivers/STM32F0xx_HAL_Driver/Src/stm32f0xx_hal_tim_ex.c ****   assert_param(IS_TIM_CCXN_INSTANCE(htim->Instance, OutputChannel));
1589:Drivers/STM32F0xx_HAL_Driver/Src/stm32f0xx_hal_tim_ex.c **** 
1590:Drivers/STM32F0xx_HAL_Driver/Src/stm32f0xx_hal_tim_ex.c ****   /* Check the TIM channels state */
1591:Drivers/STM32F0xx_HAL_Driver/Src/stm32f0xx_hal_tim_ex.c ****   if ((channel_1_state != HAL_TIM_CHANNEL_STATE_READY)
 4702              		.loc 1 1591 6 discriminator 4
 4703 0048 3B18     		adds	r3, r7, r0
 4704 004a 1B78     		ldrb	r3, [r3]
 4705 004c 012B     		cmp	r3, #1
 4706 004e 0BD1     		bne	.L332
1592:Drivers/STM32F0xx_HAL_Driver/Src/stm32f0xx_hal_tim_ex.c ****       || (channel_2_state != HAL_TIM_CHANNEL_STATE_READY)
 4707              		.loc 1 1592 7
 4708 0050 3B19     		adds	r3, r7, r4
 4709 0052 1B78     		ldrb	r3, [r3]
 4710 0054 012B     		cmp	r3, #1
 4711 0056 07D1     		bne	.L332
1593:Drivers/STM32F0xx_HAL_Driver/Src/stm32f0xx_hal_tim_ex.c ****       || (complementary_channel_1_state != HAL_TIM_CHANNEL_STATE_READY)
ARM GAS  /var/folders/d0/cymppscj10lcmm48h781wrc80000gn/T//cc0qcKWW.s 			page 111


 4712              		.loc 1 1593 7
 4713 0058 7B19     		adds	r3, r7, r5
 4714 005a 1B78     		ldrb	r3, [r3]
 4715 005c 012B     		cmp	r3, #1
 4716 005e 03D1     		bne	.L332
1594:Drivers/STM32F0xx_HAL_Driver/Src/stm32f0xx_hal_tim_ex.c ****       || (complementary_channel_2_state != HAL_TIM_CHANNEL_STATE_READY))
 4717              		.loc 1 1594 7
 4718 0060 BB19     		adds	r3, r7, r6
 4719 0062 1B78     		ldrb	r3, [r3]
 4720 0064 012B     		cmp	r3, #1
 4721 0066 01D0     		beq	.L333
 4722              	.L332:
1595:Drivers/STM32F0xx_HAL_Driver/Src/stm32f0xx_hal_tim_ex.c ****   {
1596:Drivers/STM32F0xx_HAL_Driver/Src/stm32f0xx_hal_tim_ex.c ****     return HAL_ERROR;
 4723              		.loc 1 1596 12
 4724 0068 0123     		movs	r3, #1
 4725 006a 27E0     		b	.L334
 4726              	.L333:
1597:Drivers/STM32F0xx_HAL_Driver/Src/stm32f0xx_hal_tim_ex.c ****   }
1598:Drivers/STM32F0xx_HAL_Driver/Src/stm32f0xx_hal_tim_ex.c **** 
1599:Drivers/STM32F0xx_HAL_Driver/Src/stm32f0xx_hal_tim_ex.c ****   /* Set the TIM channels state */
1600:Drivers/STM32F0xx_HAL_Driver/Src/stm32f0xx_hal_tim_ex.c ****   TIM_CHANNEL_STATE_SET(htim, TIM_CHANNEL_1, HAL_TIM_CHANNEL_STATE_BUSY);
 4727              		.loc 1 1600 3
 4728 006c 7B68     		ldr	r3, [r7, #4]
 4729 006e 3E22     		movs	r2, #62
 4730 0070 0221     		movs	r1, #2
 4731 0072 9954     		strb	r1, [r3, r2]
1601:Drivers/STM32F0xx_HAL_Driver/Src/stm32f0xx_hal_tim_ex.c ****   TIM_CHANNEL_STATE_SET(htim, TIM_CHANNEL_2, HAL_TIM_CHANNEL_STATE_BUSY);
 4732              		.loc 1 1601 3
 4733 0074 7B68     		ldr	r3, [r7, #4]
 4734 0076 3F22     		movs	r2, #63
 4735 0078 0221     		movs	r1, #2
 4736 007a 9954     		strb	r1, [r3, r2]
1602:Drivers/STM32F0xx_HAL_Driver/Src/stm32f0xx_hal_tim_ex.c ****   TIM_CHANNEL_N_STATE_SET(htim, TIM_CHANNEL_1, HAL_TIM_CHANNEL_STATE_BUSY);
 4737              		.loc 1 1602 3
 4738 007c 7B68     		ldr	r3, [r7, #4]
 4739 007e 4222     		movs	r2, #66
 4740 0080 0221     		movs	r1, #2
 4741 0082 9954     		strb	r1, [r3, r2]
1603:Drivers/STM32F0xx_HAL_Driver/Src/stm32f0xx_hal_tim_ex.c ****   TIM_CHANNEL_N_STATE_SET(htim, TIM_CHANNEL_2, HAL_TIM_CHANNEL_STATE_BUSY);
 4742              		.loc 1 1603 3
 4743 0084 7B68     		ldr	r3, [r7, #4]
 4744 0086 4322     		movs	r2, #67
 4745 0088 0221     		movs	r1, #2
 4746 008a 9954     		strb	r1, [r3, r2]
1604:Drivers/STM32F0xx_HAL_Driver/Src/stm32f0xx_hal_tim_ex.c **** 
1605:Drivers/STM32F0xx_HAL_Driver/Src/stm32f0xx_hal_tim_ex.c ****   /* Enable the complementary One Pulse output channel and the Input Capture channel */
1606:Drivers/STM32F0xx_HAL_Driver/Src/stm32f0xx_hal_tim_ex.c ****   TIM_CCxNChannelCmd(htim->Instance, OutputChannel, TIM_CCxN_ENABLE);
 4747              		.loc 1 1606 3
 4748 008c 7B68     		ldr	r3, [r7, #4]
 4749 008e 1B68     		ldr	r3, [r3]
 4750 0090 3968     		ldr	r1, [r7]
 4751 0092 0422     		movs	r2, #4
 4752 0094 1800     		movs	r0, r3
 4753 0096 FFF7FEFF 		bl	TIM_CCxNChannelCmd
1607:Drivers/STM32F0xx_HAL_Driver/Src/stm32f0xx_hal_tim_ex.c ****   TIM_CCxChannelCmd(htim->Instance, input_channel, TIM_CCx_ENABLE);
 4754              		.loc 1 1607 3
ARM GAS  /var/folders/d0/cymppscj10lcmm48h781wrc80000gn/T//cc0qcKWW.s 			page 112


 4755 009a 7B68     		ldr	r3, [r7, #4]
 4756 009c 1B68     		ldr	r3, [r3]
 4757 009e F968     		ldr	r1, [r7, #12]
 4758 00a0 0122     		movs	r2, #1
 4759 00a2 1800     		movs	r0, r3
 4760 00a4 FFF7FEFF 		bl	TIM_CCxChannelCmd
1608:Drivers/STM32F0xx_HAL_Driver/Src/stm32f0xx_hal_tim_ex.c **** 
1609:Drivers/STM32F0xx_HAL_Driver/Src/stm32f0xx_hal_tim_ex.c ****   /* Enable the Main Output */
1610:Drivers/STM32F0xx_HAL_Driver/Src/stm32f0xx_hal_tim_ex.c ****   __HAL_TIM_MOE_ENABLE(htim);
 4761              		.loc 1 1610 3
 4762 00a8 7B68     		ldr	r3, [r7, #4]
 4763 00aa 1B68     		ldr	r3, [r3]
 4764 00ac 5A6C     		ldr	r2, [r3, #68]
 4765 00ae 7B68     		ldr	r3, [r7, #4]
 4766 00b0 1B68     		ldr	r3, [r3]
 4767 00b2 8021     		movs	r1, #128
 4768 00b4 0902     		lsls	r1, r1, #8
 4769 00b6 0A43     		orrs	r2, r1
 4770 00b8 5A64     		str	r2, [r3, #68]
1611:Drivers/STM32F0xx_HAL_Driver/Src/stm32f0xx_hal_tim_ex.c **** 
1612:Drivers/STM32F0xx_HAL_Driver/Src/stm32f0xx_hal_tim_ex.c ****   /* Return function status */
1613:Drivers/STM32F0xx_HAL_Driver/Src/stm32f0xx_hal_tim_ex.c ****   return HAL_OK;
 4771              		.loc 1 1613 10
 4772 00ba 0023     		movs	r3, #0
 4773              	.L334:
1614:Drivers/STM32F0xx_HAL_Driver/Src/stm32f0xx_hal_tim_ex.c **** }
 4774              		.loc 1 1614 1
 4775 00bc 1800     		movs	r0, r3
 4776 00be BD46     		mov	sp, r7
 4777 00c0 05B0     		add	sp, sp, #20
 4778              		@ sp needed
 4779 00c2 F0BD     		pop	{r4, r5, r6, r7, pc}
 4780              		.cfi_endproc
 4781              	.LFE62:
 4783              		.section	.text.HAL_TIMEx_OnePulseN_Stop,"ax",%progbits
 4784              		.align	1
 4785              		.global	HAL_TIMEx_OnePulseN_Stop
 4786              		.syntax unified
 4787              		.code	16
 4788              		.thumb_func
 4790              	HAL_TIMEx_OnePulseN_Stop:
 4791              	.LFB63:
1615:Drivers/STM32F0xx_HAL_Driver/Src/stm32f0xx_hal_tim_ex.c **** 
1616:Drivers/STM32F0xx_HAL_Driver/Src/stm32f0xx_hal_tim_ex.c **** /**
1617:Drivers/STM32F0xx_HAL_Driver/Src/stm32f0xx_hal_tim_ex.c ****   * @brief  Stops the TIM One Pulse signal generation on the complementary
1618:Drivers/STM32F0xx_HAL_Driver/Src/stm32f0xx_hal_tim_ex.c ****   *         output.
1619:Drivers/STM32F0xx_HAL_Driver/Src/stm32f0xx_hal_tim_ex.c ****   * @note OutputChannel must match the pulse output channel chosen when calling
1620:Drivers/STM32F0xx_HAL_Driver/Src/stm32f0xx_hal_tim_ex.c ****   *       @ref HAL_TIM_OnePulse_ConfigChannel().
1621:Drivers/STM32F0xx_HAL_Driver/Src/stm32f0xx_hal_tim_ex.c ****   * @param  htim TIM One Pulse handle
1622:Drivers/STM32F0xx_HAL_Driver/Src/stm32f0xx_hal_tim_ex.c ****   * @param  OutputChannel pulse output channel to disable
1623:Drivers/STM32F0xx_HAL_Driver/Src/stm32f0xx_hal_tim_ex.c ****   *          This parameter can be one of the following values:
1624:Drivers/STM32F0xx_HAL_Driver/Src/stm32f0xx_hal_tim_ex.c ****   *            @arg TIM_CHANNEL_1: TIM Channel 1 selected
1625:Drivers/STM32F0xx_HAL_Driver/Src/stm32f0xx_hal_tim_ex.c ****   *            @arg TIM_CHANNEL_2: TIM Channel 2 selected
1626:Drivers/STM32F0xx_HAL_Driver/Src/stm32f0xx_hal_tim_ex.c ****   * @retval HAL status
1627:Drivers/STM32F0xx_HAL_Driver/Src/stm32f0xx_hal_tim_ex.c ****   */
1628:Drivers/STM32F0xx_HAL_Driver/Src/stm32f0xx_hal_tim_ex.c **** HAL_StatusTypeDef HAL_TIMEx_OnePulseN_Stop(TIM_HandleTypeDef *htim, uint32_t OutputChannel)
1629:Drivers/STM32F0xx_HAL_Driver/Src/stm32f0xx_hal_tim_ex.c **** {
ARM GAS  /var/folders/d0/cymppscj10lcmm48h781wrc80000gn/T//cc0qcKWW.s 			page 113


 4792              		.loc 1 1629 1
 4793              		.cfi_startproc
 4794              		@ args = 0, pretend = 0, frame = 16
 4795              		@ frame_needed = 1, uses_anonymous_args = 0
 4796 0000 80B5     		push	{r7, lr}
 4797              	.LCFI69:
 4798              		.cfi_def_cfa_offset 8
 4799              		.cfi_offset 7, -8
 4800              		.cfi_offset 14, -4
 4801 0002 84B0     		sub	sp, sp, #16
 4802              	.LCFI70:
 4803              		.cfi_def_cfa_offset 24
 4804 0004 00AF     		add	r7, sp, #0
 4805              	.LCFI71:
 4806              		.cfi_def_cfa_register 7
 4807 0006 7860     		str	r0, [r7, #4]
 4808 0008 3960     		str	r1, [r7]
1630:Drivers/STM32F0xx_HAL_Driver/Src/stm32f0xx_hal_tim_ex.c ****   uint32_t input_channel = (OutputChannel == TIM_CHANNEL_1) ? TIM_CHANNEL_2 : TIM_CHANNEL_1;
 4809              		.loc 1 1630 77
 4810 000a 3B68     		ldr	r3, [r7]
 4811 000c 002B     		cmp	r3, #0
 4812 000e 01D1     		bne	.L336
 4813              		.loc 1 1630 77 is_stmt 0 discriminator 1
 4814 0010 0423     		movs	r3, #4
 4815 0012 00E0     		b	.L337
 4816              	.L336:
 4817              		.loc 1 1630 77 discriminator 2
 4818 0014 0023     		movs	r3, #0
 4819              	.L337:
 4820              		.loc 1 1630 12 is_stmt 1 discriminator 4
 4821 0016 FB60     		str	r3, [r7, #12]
1631:Drivers/STM32F0xx_HAL_Driver/Src/stm32f0xx_hal_tim_ex.c **** 
1632:Drivers/STM32F0xx_HAL_Driver/Src/stm32f0xx_hal_tim_ex.c ****   /* Check the parameters */
1633:Drivers/STM32F0xx_HAL_Driver/Src/stm32f0xx_hal_tim_ex.c ****   assert_param(IS_TIM_CCXN_INSTANCE(htim->Instance, OutputChannel));
1634:Drivers/STM32F0xx_HAL_Driver/Src/stm32f0xx_hal_tim_ex.c **** 
1635:Drivers/STM32F0xx_HAL_Driver/Src/stm32f0xx_hal_tim_ex.c ****   /* Disable the complementary One Pulse output channel and the Input Capture channel */
1636:Drivers/STM32F0xx_HAL_Driver/Src/stm32f0xx_hal_tim_ex.c ****   TIM_CCxNChannelCmd(htim->Instance, OutputChannel, TIM_CCxN_DISABLE);
 4822              		.loc 1 1636 3 discriminator 4
 4823 0018 7B68     		ldr	r3, [r7, #4]
 4824 001a 1B68     		ldr	r3, [r3]
 4825 001c 3968     		ldr	r1, [r7]
 4826 001e 0022     		movs	r2, #0
 4827 0020 1800     		movs	r0, r3
 4828 0022 FFF7FEFF 		bl	TIM_CCxNChannelCmd
1637:Drivers/STM32F0xx_HAL_Driver/Src/stm32f0xx_hal_tim_ex.c ****   TIM_CCxChannelCmd(htim->Instance, input_channel, TIM_CCx_DISABLE);
 4829              		.loc 1 1637 3 discriminator 4
 4830 0026 7B68     		ldr	r3, [r7, #4]
 4831 0028 1B68     		ldr	r3, [r3]
 4832 002a F968     		ldr	r1, [r7, #12]
 4833 002c 0022     		movs	r2, #0
 4834 002e 1800     		movs	r0, r3
 4835 0030 FFF7FEFF 		bl	TIM_CCxChannelCmd
1638:Drivers/STM32F0xx_HAL_Driver/Src/stm32f0xx_hal_tim_ex.c **** 
1639:Drivers/STM32F0xx_HAL_Driver/Src/stm32f0xx_hal_tim_ex.c ****   /* Disable the Main Output */
1640:Drivers/STM32F0xx_HAL_Driver/Src/stm32f0xx_hal_tim_ex.c ****   __HAL_TIM_MOE_DISABLE(htim);
 4836              		.loc 1 1640 3 discriminator 4
 4837 0034 7B68     		ldr	r3, [r7, #4]
ARM GAS  /var/folders/d0/cymppscj10lcmm48h781wrc80000gn/T//cc0qcKWW.s 			page 114


 4838 0036 1B68     		ldr	r3, [r3]
 4839 0038 1B6A     		ldr	r3, [r3, #32]
 4840 003a 1D4A     		ldr	r2, .L341
 4841 003c 1340     		ands	r3, r2
 4842 003e 0DD1     		bne	.L338
 4843              		.loc 1 1640 3 is_stmt 0 discriminator 1
 4844 0040 7B68     		ldr	r3, [r7, #4]
 4845 0042 1B68     		ldr	r3, [r3]
 4846 0044 1B6A     		ldr	r3, [r3, #32]
 4847 0046 1B4A     		ldr	r2, .L341+4
 4848 0048 1340     		ands	r3, r2
 4849 004a 07D1     		bne	.L338
 4850              		.loc 1 1640 3 discriminator 2
 4851 004c 7B68     		ldr	r3, [r7, #4]
 4852 004e 1B68     		ldr	r3, [r3]
 4853 0050 5A6C     		ldr	r2, [r3, #68]
 4854 0052 7B68     		ldr	r3, [r7, #4]
 4855 0054 1B68     		ldr	r3, [r3]
 4856 0056 1849     		ldr	r1, .L341+8
 4857 0058 0A40     		ands	r2, r1
 4858 005a 5A64     		str	r2, [r3, #68]
 4859              	.L338:
1641:Drivers/STM32F0xx_HAL_Driver/Src/stm32f0xx_hal_tim_ex.c **** 
1642:Drivers/STM32F0xx_HAL_Driver/Src/stm32f0xx_hal_tim_ex.c ****   /* Disable the Peripheral */
1643:Drivers/STM32F0xx_HAL_Driver/Src/stm32f0xx_hal_tim_ex.c ****   __HAL_TIM_DISABLE(htim);
 4860              		.loc 1 1643 3 is_stmt 1
 4861 005c 7B68     		ldr	r3, [r7, #4]
 4862 005e 1B68     		ldr	r3, [r3]
 4863 0060 1B6A     		ldr	r3, [r3, #32]
 4864 0062 134A     		ldr	r2, .L341
 4865 0064 1340     		ands	r3, r2
 4866 0066 0DD1     		bne	.L339
 4867              		.loc 1 1643 3 is_stmt 0 discriminator 1
 4868 0068 7B68     		ldr	r3, [r7, #4]
 4869 006a 1B68     		ldr	r3, [r3]
 4870 006c 1B6A     		ldr	r3, [r3, #32]
 4871 006e 114A     		ldr	r2, .L341+4
 4872 0070 1340     		ands	r3, r2
 4873 0072 07D1     		bne	.L339
 4874              		.loc 1 1643 3 discriminator 2
 4875 0074 7B68     		ldr	r3, [r7, #4]
 4876 0076 1B68     		ldr	r3, [r3]
 4877 0078 1A68     		ldr	r2, [r3]
 4878 007a 7B68     		ldr	r3, [r7, #4]
 4879 007c 1B68     		ldr	r3, [r3]
 4880 007e 0121     		movs	r1, #1
 4881 0080 8A43     		bics	r2, r1
 4882 0082 1A60     		str	r2, [r3]
 4883              	.L339:
1644:Drivers/STM32F0xx_HAL_Driver/Src/stm32f0xx_hal_tim_ex.c **** 
1645:Drivers/STM32F0xx_HAL_Driver/Src/stm32f0xx_hal_tim_ex.c ****   /* Set the TIM  channels state */
1646:Drivers/STM32F0xx_HAL_Driver/Src/stm32f0xx_hal_tim_ex.c ****   TIM_CHANNEL_STATE_SET(htim, TIM_CHANNEL_1, HAL_TIM_CHANNEL_STATE_READY);
 4884              		.loc 1 1646 3 is_stmt 1
 4885 0084 7B68     		ldr	r3, [r7, #4]
 4886 0086 3E22     		movs	r2, #62
 4887 0088 0121     		movs	r1, #1
 4888 008a 9954     		strb	r1, [r3, r2]
ARM GAS  /var/folders/d0/cymppscj10lcmm48h781wrc80000gn/T//cc0qcKWW.s 			page 115


1647:Drivers/STM32F0xx_HAL_Driver/Src/stm32f0xx_hal_tim_ex.c ****   TIM_CHANNEL_STATE_SET(htim, TIM_CHANNEL_2, HAL_TIM_CHANNEL_STATE_READY);
 4889              		.loc 1 1647 3
 4890 008c 7B68     		ldr	r3, [r7, #4]
 4891 008e 3F22     		movs	r2, #63
 4892 0090 0121     		movs	r1, #1
 4893 0092 9954     		strb	r1, [r3, r2]
1648:Drivers/STM32F0xx_HAL_Driver/Src/stm32f0xx_hal_tim_ex.c ****   TIM_CHANNEL_N_STATE_SET(htim, TIM_CHANNEL_1, HAL_TIM_CHANNEL_STATE_READY);
 4894              		.loc 1 1648 3
 4895 0094 7B68     		ldr	r3, [r7, #4]
 4896 0096 4222     		movs	r2, #66
 4897 0098 0121     		movs	r1, #1
 4898 009a 9954     		strb	r1, [r3, r2]
1649:Drivers/STM32F0xx_HAL_Driver/Src/stm32f0xx_hal_tim_ex.c ****   TIM_CHANNEL_N_STATE_SET(htim, TIM_CHANNEL_2, HAL_TIM_CHANNEL_STATE_READY);
 4899              		.loc 1 1649 3
 4900 009c 7B68     		ldr	r3, [r7, #4]
 4901 009e 4322     		movs	r2, #67
 4902 00a0 0121     		movs	r1, #1
 4903 00a2 9954     		strb	r1, [r3, r2]
1650:Drivers/STM32F0xx_HAL_Driver/Src/stm32f0xx_hal_tim_ex.c **** 
1651:Drivers/STM32F0xx_HAL_Driver/Src/stm32f0xx_hal_tim_ex.c ****   /* Return function status */
1652:Drivers/STM32F0xx_HAL_Driver/Src/stm32f0xx_hal_tim_ex.c ****   return HAL_OK;
 4904              		.loc 1 1652 10
 4905 00a4 0023     		movs	r3, #0
1653:Drivers/STM32F0xx_HAL_Driver/Src/stm32f0xx_hal_tim_ex.c **** }
 4906              		.loc 1 1653 1
 4907 00a6 1800     		movs	r0, r3
 4908 00a8 BD46     		mov	sp, r7
 4909 00aa 04B0     		add	sp, sp, #16
 4910              		@ sp needed
 4911 00ac 80BD     		pop	{r7, pc}
 4912              	.L342:
 4913 00ae C046     		.align	2
 4914              	.L341:
 4915 00b0 11110000 		.word	4369
 4916 00b4 44040000 		.word	1092
 4917 00b8 FF7FFFFF 		.word	-32769
 4918              		.cfi_endproc
 4919              	.LFE63:
 4921              		.section	.text.HAL_TIMEx_OnePulseN_Start_IT,"ax",%progbits
 4922              		.align	1
 4923              		.global	HAL_TIMEx_OnePulseN_Start_IT
 4924              		.syntax unified
 4925              		.code	16
 4926              		.thumb_func
 4928              	HAL_TIMEx_OnePulseN_Start_IT:
 4929              	.LFB64:
1654:Drivers/STM32F0xx_HAL_Driver/Src/stm32f0xx_hal_tim_ex.c **** 
1655:Drivers/STM32F0xx_HAL_Driver/Src/stm32f0xx_hal_tim_ex.c **** /**
1656:Drivers/STM32F0xx_HAL_Driver/Src/stm32f0xx_hal_tim_ex.c ****   * @brief  Starts the TIM One Pulse signal generation in interrupt mode on the
1657:Drivers/STM32F0xx_HAL_Driver/Src/stm32f0xx_hal_tim_ex.c ****   *         complementary channel.
1658:Drivers/STM32F0xx_HAL_Driver/Src/stm32f0xx_hal_tim_ex.c ****   * @note OutputChannel must match the pulse output channel chosen when calling
1659:Drivers/STM32F0xx_HAL_Driver/Src/stm32f0xx_hal_tim_ex.c ****   *       @ref HAL_TIM_OnePulse_ConfigChannel().
1660:Drivers/STM32F0xx_HAL_Driver/Src/stm32f0xx_hal_tim_ex.c ****   * @param  htim TIM One Pulse handle
1661:Drivers/STM32F0xx_HAL_Driver/Src/stm32f0xx_hal_tim_ex.c ****   * @param  OutputChannel pulse output channel to enable
1662:Drivers/STM32F0xx_HAL_Driver/Src/stm32f0xx_hal_tim_ex.c ****   *          This parameter can be one of the following values:
1663:Drivers/STM32F0xx_HAL_Driver/Src/stm32f0xx_hal_tim_ex.c ****   *            @arg TIM_CHANNEL_1: TIM Channel 1 selected
1664:Drivers/STM32F0xx_HAL_Driver/Src/stm32f0xx_hal_tim_ex.c ****   *            @arg TIM_CHANNEL_2: TIM Channel 2 selected
ARM GAS  /var/folders/d0/cymppscj10lcmm48h781wrc80000gn/T//cc0qcKWW.s 			page 116


1665:Drivers/STM32F0xx_HAL_Driver/Src/stm32f0xx_hal_tim_ex.c ****   * @retval HAL status
1666:Drivers/STM32F0xx_HAL_Driver/Src/stm32f0xx_hal_tim_ex.c ****   */
1667:Drivers/STM32F0xx_HAL_Driver/Src/stm32f0xx_hal_tim_ex.c **** HAL_StatusTypeDef HAL_TIMEx_OnePulseN_Start_IT(TIM_HandleTypeDef *htim, uint32_t OutputChannel)
1668:Drivers/STM32F0xx_HAL_Driver/Src/stm32f0xx_hal_tim_ex.c **** {
 4930              		.loc 1 1668 1
 4931              		.cfi_startproc
 4932              		@ args = 0, pretend = 0, frame = 16
 4933              		@ frame_needed = 1, uses_anonymous_args = 0
 4934 0000 F0B5     		push	{r4, r5, r6, r7, lr}
 4935              	.LCFI72:
 4936              		.cfi_def_cfa_offset 20
 4937              		.cfi_offset 4, -20
 4938              		.cfi_offset 5, -16
 4939              		.cfi_offset 6, -12
 4940              		.cfi_offset 7, -8
 4941              		.cfi_offset 14, -4
 4942 0002 85B0     		sub	sp, sp, #20
 4943              	.LCFI73:
 4944              		.cfi_def_cfa_offset 40
 4945 0004 00AF     		add	r7, sp, #0
 4946              	.LCFI74:
 4947              		.cfi_def_cfa_register 7
 4948 0006 7860     		str	r0, [r7, #4]
 4949 0008 3960     		str	r1, [r7]
1669:Drivers/STM32F0xx_HAL_Driver/Src/stm32f0xx_hal_tim_ex.c ****   uint32_t input_channel = (OutputChannel == TIM_CHANNEL_1) ? TIM_CHANNEL_2 : TIM_CHANNEL_1;
 4950              		.loc 1 1669 77
 4951 000a 3B68     		ldr	r3, [r7]
 4952 000c 002B     		cmp	r3, #0
 4953 000e 01D1     		bne	.L344
 4954              		.loc 1 1669 77 is_stmt 0 discriminator 1
 4955 0010 0423     		movs	r3, #4
 4956 0012 00E0     		b	.L345
 4957              	.L344:
 4958              		.loc 1 1669 77 discriminator 2
 4959 0014 0023     		movs	r3, #0
 4960              	.L345:
 4961              		.loc 1 1669 12 is_stmt 1 discriminator 4
 4962 0016 FB60     		str	r3, [r7, #12]
1670:Drivers/STM32F0xx_HAL_Driver/Src/stm32f0xx_hal_tim_ex.c ****   HAL_TIM_ChannelStateTypeDef channel_1_state = TIM_CHANNEL_STATE_GET(htim, TIM_CHANNEL_1);
 4963              		.loc 1 1670 31 discriminator 4
 4964 0018 0B20     		movs	r0, #11
 4965 001a 3B18     		adds	r3, r7, r0
 4966 001c 7A68     		ldr	r2, [r7, #4]
 4967 001e 3E21     		movs	r1, #62
 4968 0020 525C     		ldrb	r2, [r2, r1]
 4969 0022 1A70     		strb	r2, [r3]
1671:Drivers/STM32F0xx_HAL_Driver/Src/stm32f0xx_hal_tim_ex.c ****   HAL_TIM_ChannelStateTypeDef channel_2_state = TIM_CHANNEL_STATE_GET(htim, TIM_CHANNEL_2);
 4970              		.loc 1 1671 31 discriminator 4
 4971 0024 0A24     		movs	r4, #10
 4972 0026 3B19     		adds	r3, r7, r4
 4973 0028 7A68     		ldr	r2, [r7, #4]
 4974 002a 3F21     		movs	r1, #63
 4975 002c 525C     		ldrb	r2, [r2, r1]
 4976 002e 1A70     		strb	r2, [r3]
1672:Drivers/STM32F0xx_HAL_Driver/Src/stm32f0xx_hal_tim_ex.c ****   HAL_TIM_ChannelStateTypeDef complementary_channel_1_state = TIM_CHANNEL_N_STATE_GET(htim, TIM_CHA
 4977              		.loc 1 1672 31 discriminator 4
 4978 0030 0925     		movs	r5, #9
ARM GAS  /var/folders/d0/cymppscj10lcmm48h781wrc80000gn/T//cc0qcKWW.s 			page 117


 4979 0032 7B19     		adds	r3, r7, r5
 4980 0034 7A68     		ldr	r2, [r7, #4]
 4981 0036 4221     		movs	r1, #66
 4982 0038 525C     		ldrb	r2, [r2, r1]
 4983 003a 1A70     		strb	r2, [r3]
1673:Drivers/STM32F0xx_HAL_Driver/Src/stm32f0xx_hal_tim_ex.c ****   HAL_TIM_ChannelStateTypeDef complementary_channel_2_state = TIM_CHANNEL_N_STATE_GET(htim, TIM_CHA
 4984              		.loc 1 1673 31 discriminator 4
 4985 003c 0826     		movs	r6, #8
 4986 003e BB19     		adds	r3, r7, r6
 4987 0040 7A68     		ldr	r2, [r7, #4]
 4988 0042 4321     		movs	r1, #67
 4989 0044 525C     		ldrb	r2, [r2, r1]
 4990 0046 1A70     		strb	r2, [r3]
1674:Drivers/STM32F0xx_HAL_Driver/Src/stm32f0xx_hal_tim_ex.c **** 
1675:Drivers/STM32F0xx_HAL_Driver/Src/stm32f0xx_hal_tim_ex.c ****   /* Check the parameters */
1676:Drivers/STM32F0xx_HAL_Driver/Src/stm32f0xx_hal_tim_ex.c ****   assert_param(IS_TIM_CCXN_INSTANCE(htim->Instance, OutputChannel));
1677:Drivers/STM32F0xx_HAL_Driver/Src/stm32f0xx_hal_tim_ex.c **** 
1678:Drivers/STM32F0xx_HAL_Driver/Src/stm32f0xx_hal_tim_ex.c ****   /* Check the TIM channels state */
1679:Drivers/STM32F0xx_HAL_Driver/Src/stm32f0xx_hal_tim_ex.c ****   if ((channel_1_state != HAL_TIM_CHANNEL_STATE_READY)
 4991              		.loc 1 1679 6 discriminator 4
 4992 0048 3B18     		adds	r3, r7, r0
 4993 004a 1B78     		ldrb	r3, [r3]
 4994 004c 012B     		cmp	r3, #1
 4995 004e 0BD1     		bne	.L346
1680:Drivers/STM32F0xx_HAL_Driver/Src/stm32f0xx_hal_tim_ex.c ****       || (channel_2_state != HAL_TIM_CHANNEL_STATE_READY)
 4996              		.loc 1 1680 7
 4997 0050 3B19     		adds	r3, r7, r4
 4998 0052 1B78     		ldrb	r3, [r3]
 4999 0054 012B     		cmp	r3, #1
 5000 0056 07D1     		bne	.L346
1681:Drivers/STM32F0xx_HAL_Driver/Src/stm32f0xx_hal_tim_ex.c ****       || (complementary_channel_1_state != HAL_TIM_CHANNEL_STATE_READY)
 5001              		.loc 1 1681 7
 5002 0058 7B19     		adds	r3, r7, r5
 5003 005a 1B78     		ldrb	r3, [r3]
 5004 005c 012B     		cmp	r3, #1
 5005 005e 03D1     		bne	.L346
1682:Drivers/STM32F0xx_HAL_Driver/Src/stm32f0xx_hal_tim_ex.c ****       || (complementary_channel_2_state != HAL_TIM_CHANNEL_STATE_READY))
 5006              		.loc 1 1682 7
 5007 0060 BB19     		adds	r3, r7, r6
 5008 0062 1B78     		ldrb	r3, [r3]
 5009 0064 012B     		cmp	r3, #1
 5010 0066 01D0     		beq	.L347
 5011              	.L346:
1683:Drivers/STM32F0xx_HAL_Driver/Src/stm32f0xx_hal_tim_ex.c ****   {
1684:Drivers/STM32F0xx_HAL_Driver/Src/stm32f0xx_hal_tim_ex.c ****     return HAL_ERROR;
 5012              		.loc 1 1684 12
 5013 0068 0123     		movs	r3, #1
 5014 006a 37E0     		b	.L348
 5015              	.L347:
1685:Drivers/STM32F0xx_HAL_Driver/Src/stm32f0xx_hal_tim_ex.c ****   }
1686:Drivers/STM32F0xx_HAL_Driver/Src/stm32f0xx_hal_tim_ex.c **** 
1687:Drivers/STM32F0xx_HAL_Driver/Src/stm32f0xx_hal_tim_ex.c ****   /* Set the TIM channels state */
1688:Drivers/STM32F0xx_HAL_Driver/Src/stm32f0xx_hal_tim_ex.c ****   TIM_CHANNEL_STATE_SET(htim, TIM_CHANNEL_1, HAL_TIM_CHANNEL_STATE_BUSY);
 5016              		.loc 1 1688 3
 5017 006c 7B68     		ldr	r3, [r7, #4]
 5018 006e 3E22     		movs	r2, #62
 5019 0070 0221     		movs	r1, #2
ARM GAS  /var/folders/d0/cymppscj10lcmm48h781wrc80000gn/T//cc0qcKWW.s 			page 118


 5020 0072 9954     		strb	r1, [r3, r2]
1689:Drivers/STM32F0xx_HAL_Driver/Src/stm32f0xx_hal_tim_ex.c ****   TIM_CHANNEL_STATE_SET(htim, TIM_CHANNEL_2, HAL_TIM_CHANNEL_STATE_BUSY);
 5021              		.loc 1 1689 3
 5022 0074 7B68     		ldr	r3, [r7, #4]
 5023 0076 3F22     		movs	r2, #63
 5024 0078 0221     		movs	r1, #2
 5025 007a 9954     		strb	r1, [r3, r2]
1690:Drivers/STM32F0xx_HAL_Driver/Src/stm32f0xx_hal_tim_ex.c ****   TIM_CHANNEL_N_STATE_SET(htim, TIM_CHANNEL_1, HAL_TIM_CHANNEL_STATE_BUSY);
 5026              		.loc 1 1690 3
 5027 007c 7B68     		ldr	r3, [r7, #4]
 5028 007e 4222     		movs	r2, #66
 5029 0080 0221     		movs	r1, #2
 5030 0082 9954     		strb	r1, [r3, r2]
1691:Drivers/STM32F0xx_HAL_Driver/Src/stm32f0xx_hal_tim_ex.c ****   TIM_CHANNEL_N_STATE_SET(htim, TIM_CHANNEL_2, HAL_TIM_CHANNEL_STATE_BUSY);
 5031              		.loc 1 1691 3
 5032 0084 7B68     		ldr	r3, [r7, #4]
 5033 0086 4322     		movs	r2, #67
 5034 0088 0221     		movs	r1, #2
 5035 008a 9954     		strb	r1, [r3, r2]
1692:Drivers/STM32F0xx_HAL_Driver/Src/stm32f0xx_hal_tim_ex.c **** 
1693:Drivers/STM32F0xx_HAL_Driver/Src/stm32f0xx_hal_tim_ex.c ****   /* Enable the TIM Capture/Compare 1 interrupt */
1694:Drivers/STM32F0xx_HAL_Driver/Src/stm32f0xx_hal_tim_ex.c ****   __HAL_TIM_ENABLE_IT(htim, TIM_IT_CC1);
 5036              		.loc 1 1694 3
 5037 008c 7B68     		ldr	r3, [r7, #4]
 5038 008e 1B68     		ldr	r3, [r3]
 5039 0090 DA68     		ldr	r2, [r3, #12]
 5040 0092 7B68     		ldr	r3, [r7, #4]
 5041 0094 1B68     		ldr	r3, [r3]
 5042 0096 0221     		movs	r1, #2
 5043 0098 0A43     		orrs	r2, r1
 5044 009a DA60     		str	r2, [r3, #12]
1695:Drivers/STM32F0xx_HAL_Driver/Src/stm32f0xx_hal_tim_ex.c **** 
1696:Drivers/STM32F0xx_HAL_Driver/Src/stm32f0xx_hal_tim_ex.c ****   /* Enable the TIM Capture/Compare 2 interrupt */
1697:Drivers/STM32F0xx_HAL_Driver/Src/stm32f0xx_hal_tim_ex.c ****   __HAL_TIM_ENABLE_IT(htim, TIM_IT_CC2);
 5045              		.loc 1 1697 3
 5046 009c 7B68     		ldr	r3, [r7, #4]
 5047 009e 1B68     		ldr	r3, [r3]
 5048 00a0 DA68     		ldr	r2, [r3, #12]
 5049 00a2 7B68     		ldr	r3, [r7, #4]
 5050 00a4 1B68     		ldr	r3, [r3]
 5051 00a6 0421     		movs	r1, #4
 5052 00a8 0A43     		orrs	r2, r1
 5053 00aa DA60     		str	r2, [r3, #12]
1698:Drivers/STM32F0xx_HAL_Driver/Src/stm32f0xx_hal_tim_ex.c **** 
1699:Drivers/STM32F0xx_HAL_Driver/Src/stm32f0xx_hal_tim_ex.c ****   /* Enable the complementary One Pulse output channel and the Input Capture channel */
1700:Drivers/STM32F0xx_HAL_Driver/Src/stm32f0xx_hal_tim_ex.c ****   TIM_CCxNChannelCmd(htim->Instance, OutputChannel, TIM_CCxN_ENABLE);
 5054              		.loc 1 1700 3
 5055 00ac 7B68     		ldr	r3, [r7, #4]
 5056 00ae 1B68     		ldr	r3, [r3]
 5057 00b0 3968     		ldr	r1, [r7]
 5058 00b2 0422     		movs	r2, #4
 5059 00b4 1800     		movs	r0, r3
 5060 00b6 FFF7FEFF 		bl	TIM_CCxNChannelCmd
1701:Drivers/STM32F0xx_HAL_Driver/Src/stm32f0xx_hal_tim_ex.c ****   TIM_CCxChannelCmd(htim->Instance, input_channel, TIM_CCx_ENABLE);
 5061              		.loc 1 1701 3
 5062 00ba 7B68     		ldr	r3, [r7, #4]
 5063 00bc 1B68     		ldr	r3, [r3]
ARM GAS  /var/folders/d0/cymppscj10lcmm48h781wrc80000gn/T//cc0qcKWW.s 			page 119


 5064 00be F968     		ldr	r1, [r7, #12]
 5065 00c0 0122     		movs	r2, #1
 5066 00c2 1800     		movs	r0, r3
 5067 00c4 FFF7FEFF 		bl	TIM_CCxChannelCmd
1702:Drivers/STM32F0xx_HAL_Driver/Src/stm32f0xx_hal_tim_ex.c **** 
1703:Drivers/STM32F0xx_HAL_Driver/Src/stm32f0xx_hal_tim_ex.c ****   /* Enable the Main Output */
1704:Drivers/STM32F0xx_HAL_Driver/Src/stm32f0xx_hal_tim_ex.c ****   __HAL_TIM_MOE_ENABLE(htim);
 5068              		.loc 1 1704 3
 5069 00c8 7B68     		ldr	r3, [r7, #4]
 5070 00ca 1B68     		ldr	r3, [r3]
 5071 00cc 5A6C     		ldr	r2, [r3, #68]
 5072 00ce 7B68     		ldr	r3, [r7, #4]
 5073 00d0 1B68     		ldr	r3, [r3]
 5074 00d2 8021     		movs	r1, #128
 5075 00d4 0902     		lsls	r1, r1, #8
 5076 00d6 0A43     		orrs	r2, r1
 5077 00d8 5A64     		str	r2, [r3, #68]
1705:Drivers/STM32F0xx_HAL_Driver/Src/stm32f0xx_hal_tim_ex.c **** 
1706:Drivers/STM32F0xx_HAL_Driver/Src/stm32f0xx_hal_tim_ex.c ****   /* Return function status */
1707:Drivers/STM32F0xx_HAL_Driver/Src/stm32f0xx_hal_tim_ex.c ****   return HAL_OK;
 5078              		.loc 1 1707 10
 5079 00da 0023     		movs	r3, #0
 5080              	.L348:
1708:Drivers/STM32F0xx_HAL_Driver/Src/stm32f0xx_hal_tim_ex.c **** }
 5081              		.loc 1 1708 1
 5082 00dc 1800     		movs	r0, r3
 5083 00de BD46     		mov	sp, r7
 5084 00e0 05B0     		add	sp, sp, #20
 5085              		@ sp needed
 5086 00e2 F0BD     		pop	{r4, r5, r6, r7, pc}
 5087              		.cfi_endproc
 5088              	.LFE64:
 5090              		.section	.text.HAL_TIMEx_OnePulseN_Stop_IT,"ax",%progbits
 5091              		.align	1
 5092              		.global	HAL_TIMEx_OnePulseN_Stop_IT
 5093              		.syntax unified
 5094              		.code	16
 5095              		.thumb_func
 5097              	HAL_TIMEx_OnePulseN_Stop_IT:
 5098              	.LFB65:
1709:Drivers/STM32F0xx_HAL_Driver/Src/stm32f0xx_hal_tim_ex.c **** 
1710:Drivers/STM32F0xx_HAL_Driver/Src/stm32f0xx_hal_tim_ex.c **** /**
1711:Drivers/STM32F0xx_HAL_Driver/Src/stm32f0xx_hal_tim_ex.c ****   * @brief  Stops the TIM One Pulse signal generation in interrupt mode on the
1712:Drivers/STM32F0xx_HAL_Driver/Src/stm32f0xx_hal_tim_ex.c ****   *         complementary channel.
1713:Drivers/STM32F0xx_HAL_Driver/Src/stm32f0xx_hal_tim_ex.c ****   * @note OutputChannel must match the pulse output channel chosen when calling
1714:Drivers/STM32F0xx_HAL_Driver/Src/stm32f0xx_hal_tim_ex.c ****   *       @ref HAL_TIM_OnePulse_ConfigChannel().
1715:Drivers/STM32F0xx_HAL_Driver/Src/stm32f0xx_hal_tim_ex.c ****   * @param  htim TIM One Pulse handle
1716:Drivers/STM32F0xx_HAL_Driver/Src/stm32f0xx_hal_tim_ex.c ****   * @param  OutputChannel pulse output channel to disable
1717:Drivers/STM32F0xx_HAL_Driver/Src/stm32f0xx_hal_tim_ex.c ****   *          This parameter can be one of the following values:
1718:Drivers/STM32F0xx_HAL_Driver/Src/stm32f0xx_hal_tim_ex.c ****   *            @arg TIM_CHANNEL_1: TIM Channel 1 selected
1719:Drivers/STM32F0xx_HAL_Driver/Src/stm32f0xx_hal_tim_ex.c ****   *            @arg TIM_CHANNEL_2: TIM Channel 2 selected
1720:Drivers/STM32F0xx_HAL_Driver/Src/stm32f0xx_hal_tim_ex.c ****   * @retval HAL status
1721:Drivers/STM32F0xx_HAL_Driver/Src/stm32f0xx_hal_tim_ex.c ****   */
1722:Drivers/STM32F0xx_HAL_Driver/Src/stm32f0xx_hal_tim_ex.c **** HAL_StatusTypeDef HAL_TIMEx_OnePulseN_Stop_IT(TIM_HandleTypeDef *htim, uint32_t OutputChannel)
1723:Drivers/STM32F0xx_HAL_Driver/Src/stm32f0xx_hal_tim_ex.c **** {
 5099              		.loc 1 1723 1
 5100              		.cfi_startproc
ARM GAS  /var/folders/d0/cymppscj10lcmm48h781wrc80000gn/T//cc0qcKWW.s 			page 120


 5101              		@ args = 0, pretend = 0, frame = 16
 5102              		@ frame_needed = 1, uses_anonymous_args = 0
 5103 0000 80B5     		push	{r7, lr}
 5104              	.LCFI75:
 5105              		.cfi_def_cfa_offset 8
 5106              		.cfi_offset 7, -8
 5107              		.cfi_offset 14, -4
 5108 0002 84B0     		sub	sp, sp, #16
 5109              	.LCFI76:
 5110              		.cfi_def_cfa_offset 24
 5111 0004 00AF     		add	r7, sp, #0
 5112              	.LCFI77:
 5113              		.cfi_def_cfa_register 7
 5114 0006 7860     		str	r0, [r7, #4]
 5115 0008 3960     		str	r1, [r7]
1724:Drivers/STM32F0xx_HAL_Driver/Src/stm32f0xx_hal_tim_ex.c ****   uint32_t input_channel = (OutputChannel == TIM_CHANNEL_1) ? TIM_CHANNEL_2 : TIM_CHANNEL_1;
 5116              		.loc 1 1724 77
 5117 000a 3B68     		ldr	r3, [r7]
 5118 000c 002B     		cmp	r3, #0
 5119 000e 01D1     		bne	.L350
 5120              		.loc 1 1724 77 is_stmt 0 discriminator 1
 5121 0010 0423     		movs	r3, #4
 5122 0012 00E0     		b	.L351
 5123              	.L350:
 5124              		.loc 1 1724 77 discriminator 2
 5125 0014 0023     		movs	r3, #0
 5126              	.L351:
 5127              		.loc 1 1724 12 is_stmt 1 discriminator 4
 5128 0016 FB60     		str	r3, [r7, #12]
1725:Drivers/STM32F0xx_HAL_Driver/Src/stm32f0xx_hal_tim_ex.c **** 
1726:Drivers/STM32F0xx_HAL_Driver/Src/stm32f0xx_hal_tim_ex.c ****   /* Check the parameters */
1727:Drivers/STM32F0xx_HAL_Driver/Src/stm32f0xx_hal_tim_ex.c ****   assert_param(IS_TIM_CCXN_INSTANCE(htim->Instance, OutputChannel));
1728:Drivers/STM32F0xx_HAL_Driver/Src/stm32f0xx_hal_tim_ex.c **** 
1729:Drivers/STM32F0xx_HAL_Driver/Src/stm32f0xx_hal_tim_ex.c ****   /* Disable the TIM Capture/Compare 1 interrupt */
1730:Drivers/STM32F0xx_HAL_Driver/Src/stm32f0xx_hal_tim_ex.c ****   __HAL_TIM_DISABLE_IT(htim, TIM_IT_CC1);
 5129              		.loc 1 1730 3 discriminator 4
 5130 0018 7B68     		ldr	r3, [r7, #4]
 5131 001a 1B68     		ldr	r3, [r3]
 5132 001c DA68     		ldr	r2, [r3, #12]
 5133 001e 7B68     		ldr	r3, [r7, #4]
 5134 0020 1B68     		ldr	r3, [r3]
 5135 0022 0221     		movs	r1, #2
 5136 0024 8A43     		bics	r2, r1
 5137 0026 DA60     		str	r2, [r3, #12]
1731:Drivers/STM32F0xx_HAL_Driver/Src/stm32f0xx_hal_tim_ex.c **** 
1732:Drivers/STM32F0xx_HAL_Driver/Src/stm32f0xx_hal_tim_ex.c ****   /* Disable the TIM Capture/Compare 2 interrupt */
1733:Drivers/STM32F0xx_HAL_Driver/Src/stm32f0xx_hal_tim_ex.c ****   __HAL_TIM_DISABLE_IT(htim, TIM_IT_CC2);
 5138              		.loc 1 1733 3 discriminator 4
 5139 0028 7B68     		ldr	r3, [r7, #4]
 5140 002a 1B68     		ldr	r3, [r3]
 5141 002c DA68     		ldr	r2, [r3, #12]
 5142 002e 7B68     		ldr	r3, [r7, #4]
 5143 0030 1B68     		ldr	r3, [r3]
 5144 0032 0421     		movs	r1, #4
 5145 0034 8A43     		bics	r2, r1
 5146 0036 DA60     		str	r2, [r3, #12]
1734:Drivers/STM32F0xx_HAL_Driver/Src/stm32f0xx_hal_tim_ex.c **** 
ARM GAS  /var/folders/d0/cymppscj10lcmm48h781wrc80000gn/T//cc0qcKWW.s 			page 121


1735:Drivers/STM32F0xx_HAL_Driver/Src/stm32f0xx_hal_tim_ex.c ****   /* Disable the complementary One Pulse output channel and the Input Capture channel */
1736:Drivers/STM32F0xx_HAL_Driver/Src/stm32f0xx_hal_tim_ex.c ****   TIM_CCxNChannelCmd(htim->Instance, OutputChannel, TIM_CCxN_DISABLE);
 5147              		.loc 1 1736 3 discriminator 4
 5148 0038 7B68     		ldr	r3, [r7, #4]
 5149 003a 1B68     		ldr	r3, [r3]
 5150 003c 3968     		ldr	r1, [r7]
 5151 003e 0022     		movs	r2, #0
 5152 0040 1800     		movs	r0, r3
 5153 0042 FFF7FEFF 		bl	TIM_CCxNChannelCmd
1737:Drivers/STM32F0xx_HAL_Driver/Src/stm32f0xx_hal_tim_ex.c ****   TIM_CCxChannelCmd(htim->Instance, input_channel, TIM_CCx_DISABLE);
 5154              		.loc 1 1737 3 discriminator 4
 5155 0046 7B68     		ldr	r3, [r7, #4]
 5156 0048 1B68     		ldr	r3, [r3]
 5157 004a F968     		ldr	r1, [r7, #12]
 5158 004c 0022     		movs	r2, #0
 5159 004e 1800     		movs	r0, r3
 5160 0050 FFF7FEFF 		bl	TIM_CCxChannelCmd
1738:Drivers/STM32F0xx_HAL_Driver/Src/stm32f0xx_hal_tim_ex.c **** 
1739:Drivers/STM32F0xx_HAL_Driver/Src/stm32f0xx_hal_tim_ex.c ****   /* Disable the Main Output */
1740:Drivers/STM32F0xx_HAL_Driver/Src/stm32f0xx_hal_tim_ex.c ****   __HAL_TIM_MOE_DISABLE(htim);
 5161              		.loc 1 1740 3 discriminator 4
 5162 0054 7B68     		ldr	r3, [r7, #4]
 5163 0056 1B68     		ldr	r3, [r3]
 5164 0058 1B6A     		ldr	r3, [r3, #32]
 5165 005a 1D4A     		ldr	r2, .L355
 5166 005c 1340     		ands	r3, r2
 5167 005e 0DD1     		bne	.L352
 5168              		.loc 1 1740 3 is_stmt 0 discriminator 1
 5169 0060 7B68     		ldr	r3, [r7, #4]
 5170 0062 1B68     		ldr	r3, [r3]
 5171 0064 1B6A     		ldr	r3, [r3, #32]
 5172 0066 1B4A     		ldr	r2, .L355+4
 5173 0068 1340     		ands	r3, r2
 5174 006a 07D1     		bne	.L352
 5175              		.loc 1 1740 3 discriminator 2
 5176 006c 7B68     		ldr	r3, [r7, #4]
 5177 006e 1B68     		ldr	r3, [r3]
 5178 0070 5A6C     		ldr	r2, [r3, #68]
 5179 0072 7B68     		ldr	r3, [r7, #4]
 5180 0074 1B68     		ldr	r3, [r3]
 5181 0076 1849     		ldr	r1, .L355+8
 5182 0078 0A40     		ands	r2, r1
 5183 007a 5A64     		str	r2, [r3, #68]
 5184              	.L352:
1741:Drivers/STM32F0xx_HAL_Driver/Src/stm32f0xx_hal_tim_ex.c **** 
1742:Drivers/STM32F0xx_HAL_Driver/Src/stm32f0xx_hal_tim_ex.c ****   /* Disable the Peripheral */
1743:Drivers/STM32F0xx_HAL_Driver/Src/stm32f0xx_hal_tim_ex.c ****   __HAL_TIM_DISABLE(htim);
 5185              		.loc 1 1743 3 is_stmt 1
 5186 007c 7B68     		ldr	r3, [r7, #4]
 5187 007e 1B68     		ldr	r3, [r3]
 5188 0080 1B6A     		ldr	r3, [r3, #32]
 5189 0082 134A     		ldr	r2, .L355
 5190 0084 1340     		ands	r3, r2
 5191 0086 0DD1     		bne	.L353
 5192              		.loc 1 1743 3 is_stmt 0 discriminator 1
 5193 0088 7B68     		ldr	r3, [r7, #4]
 5194 008a 1B68     		ldr	r3, [r3]
ARM GAS  /var/folders/d0/cymppscj10lcmm48h781wrc80000gn/T//cc0qcKWW.s 			page 122


 5195 008c 1B6A     		ldr	r3, [r3, #32]
 5196 008e 114A     		ldr	r2, .L355+4
 5197 0090 1340     		ands	r3, r2
 5198 0092 07D1     		bne	.L353
 5199              		.loc 1 1743 3 discriminator 2
 5200 0094 7B68     		ldr	r3, [r7, #4]
 5201 0096 1B68     		ldr	r3, [r3]
 5202 0098 1A68     		ldr	r2, [r3]
 5203 009a 7B68     		ldr	r3, [r7, #4]
 5204 009c 1B68     		ldr	r3, [r3]
 5205 009e 0121     		movs	r1, #1
 5206 00a0 8A43     		bics	r2, r1
 5207 00a2 1A60     		str	r2, [r3]
 5208              	.L353:
1744:Drivers/STM32F0xx_HAL_Driver/Src/stm32f0xx_hal_tim_ex.c **** 
1745:Drivers/STM32F0xx_HAL_Driver/Src/stm32f0xx_hal_tim_ex.c ****   /* Set the TIM  channels state */
1746:Drivers/STM32F0xx_HAL_Driver/Src/stm32f0xx_hal_tim_ex.c ****   TIM_CHANNEL_STATE_SET(htim, TIM_CHANNEL_1, HAL_TIM_CHANNEL_STATE_READY);
 5209              		.loc 1 1746 3 is_stmt 1
 5210 00a4 7B68     		ldr	r3, [r7, #4]
 5211 00a6 3E22     		movs	r2, #62
 5212 00a8 0121     		movs	r1, #1
 5213 00aa 9954     		strb	r1, [r3, r2]
1747:Drivers/STM32F0xx_HAL_Driver/Src/stm32f0xx_hal_tim_ex.c ****   TIM_CHANNEL_STATE_SET(htim, TIM_CHANNEL_2, HAL_TIM_CHANNEL_STATE_READY);
 5214              		.loc 1 1747 3
 5215 00ac 7B68     		ldr	r3, [r7, #4]
 5216 00ae 3F22     		movs	r2, #63
 5217 00b0 0121     		movs	r1, #1
 5218 00b2 9954     		strb	r1, [r3, r2]
1748:Drivers/STM32F0xx_HAL_Driver/Src/stm32f0xx_hal_tim_ex.c ****   TIM_CHANNEL_N_STATE_SET(htim, TIM_CHANNEL_1, HAL_TIM_CHANNEL_STATE_READY);
 5219              		.loc 1 1748 3
 5220 00b4 7B68     		ldr	r3, [r7, #4]
 5221 00b6 4222     		movs	r2, #66
 5222 00b8 0121     		movs	r1, #1
 5223 00ba 9954     		strb	r1, [r3, r2]
1749:Drivers/STM32F0xx_HAL_Driver/Src/stm32f0xx_hal_tim_ex.c ****   TIM_CHANNEL_N_STATE_SET(htim, TIM_CHANNEL_2, HAL_TIM_CHANNEL_STATE_READY);
 5224              		.loc 1 1749 3
 5225 00bc 7B68     		ldr	r3, [r7, #4]
 5226 00be 4322     		movs	r2, #67
 5227 00c0 0121     		movs	r1, #1
 5228 00c2 9954     		strb	r1, [r3, r2]
1750:Drivers/STM32F0xx_HAL_Driver/Src/stm32f0xx_hal_tim_ex.c **** 
1751:Drivers/STM32F0xx_HAL_Driver/Src/stm32f0xx_hal_tim_ex.c ****   /* Return function status */
1752:Drivers/STM32F0xx_HAL_Driver/Src/stm32f0xx_hal_tim_ex.c ****   return HAL_OK;
 5229              		.loc 1 1752 10
 5230 00c4 0023     		movs	r3, #0
1753:Drivers/STM32F0xx_HAL_Driver/Src/stm32f0xx_hal_tim_ex.c **** }
 5231              		.loc 1 1753 1
 5232 00c6 1800     		movs	r0, r3
 5233 00c8 BD46     		mov	sp, r7
 5234 00ca 04B0     		add	sp, sp, #16
 5235              		@ sp needed
 5236 00cc 80BD     		pop	{r7, pc}
 5237              	.L356:
 5238 00ce C046     		.align	2
 5239              	.L355:
 5240 00d0 11110000 		.word	4369
 5241 00d4 44040000 		.word	1092
ARM GAS  /var/folders/d0/cymppscj10lcmm48h781wrc80000gn/T//cc0qcKWW.s 			page 123


 5242 00d8 FF7FFFFF 		.word	-32769
 5243              		.cfi_endproc
 5244              	.LFE65:
 5246              		.section	.text.HAL_TIMEx_ConfigCommutEvent,"ax",%progbits
 5247              		.align	1
 5248              		.global	HAL_TIMEx_ConfigCommutEvent
 5249              		.syntax unified
 5250              		.code	16
 5251              		.thumb_func
 5253              	HAL_TIMEx_ConfigCommutEvent:
 5254              	.LFB66:
1754:Drivers/STM32F0xx_HAL_Driver/Src/stm32f0xx_hal_tim_ex.c **** 
1755:Drivers/STM32F0xx_HAL_Driver/Src/stm32f0xx_hal_tim_ex.c **** /**
1756:Drivers/STM32F0xx_HAL_Driver/Src/stm32f0xx_hal_tim_ex.c ****   * @}
1757:Drivers/STM32F0xx_HAL_Driver/Src/stm32f0xx_hal_tim_ex.c ****   */
1758:Drivers/STM32F0xx_HAL_Driver/Src/stm32f0xx_hal_tim_ex.c **** 
1759:Drivers/STM32F0xx_HAL_Driver/Src/stm32f0xx_hal_tim_ex.c **** /** @defgroup TIMEx_Exported_Functions_Group5 Extended Peripheral Control functions
1760:Drivers/STM32F0xx_HAL_Driver/Src/stm32f0xx_hal_tim_ex.c ****   * @brief    Peripheral Control functions
1761:Drivers/STM32F0xx_HAL_Driver/Src/stm32f0xx_hal_tim_ex.c ****   *
1762:Drivers/STM32F0xx_HAL_Driver/Src/stm32f0xx_hal_tim_ex.c **** @verbatim
1763:Drivers/STM32F0xx_HAL_Driver/Src/stm32f0xx_hal_tim_ex.c ****   ==============================================================================
1764:Drivers/STM32F0xx_HAL_Driver/Src/stm32f0xx_hal_tim_ex.c ****                     ##### Peripheral Control functions #####
1765:Drivers/STM32F0xx_HAL_Driver/Src/stm32f0xx_hal_tim_ex.c ****   ==============================================================================
1766:Drivers/STM32F0xx_HAL_Driver/Src/stm32f0xx_hal_tim_ex.c ****   [..]
1767:Drivers/STM32F0xx_HAL_Driver/Src/stm32f0xx_hal_tim_ex.c ****     This section provides functions allowing to:
1768:Drivers/STM32F0xx_HAL_Driver/Src/stm32f0xx_hal_tim_ex.c ****       (+) Configure the commutation event in case of use of the Hall sensor interface.
1769:Drivers/STM32F0xx_HAL_Driver/Src/stm32f0xx_hal_tim_ex.c ****       (+) Configure Output channels for OC and PWM mode.
1770:Drivers/STM32F0xx_HAL_Driver/Src/stm32f0xx_hal_tim_ex.c **** 
1771:Drivers/STM32F0xx_HAL_Driver/Src/stm32f0xx_hal_tim_ex.c ****       (+) Configure Complementary channels, break features and dead time.
1772:Drivers/STM32F0xx_HAL_Driver/Src/stm32f0xx_hal_tim_ex.c ****       (+) Configure Master synchronization.
1773:Drivers/STM32F0xx_HAL_Driver/Src/stm32f0xx_hal_tim_ex.c ****       (+) Configure timer remapping capabilities.
1774:Drivers/STM32F0xx_HAL_Driver/Src/stm32f0xx_hal_tim_ex.c **** 
1775:Drivers/STM32F0xx_HAL_Driver/Src/stm32f0xx_hal_tim_ex.c **** @endverbatim
1776:Drivers/STM32F0xx_HAL_Driver/Src/stm32f0xx_hal_tim_ex.c ****   * @{
1777:Drivers/STM32F0xx_HAL_Driver/Src/stm32f0xx_hal_tim_ex.c ****   */
1778:Drivers/STM32F0xx_HAL_Driver/Src/stm32f0xx_hal_tim_ex.c **** 
1779:Drivers/STM32F0xx_HAL_Driver/Src/stm32f0xx_hal_tim_ex.c **** /**
1780:Drivers/STM32F0xx_HAL_Driver/Src/stm32f0xx_hal_tim_ex.c ****   * @brief  Configure the TIM commutation event sequence.
1781:Drivers/STM32F0xx_HAL_Driver/Src/stm32f0xx_hal_tim_ex.c ****   * @note  This function is mandatory to use the commutation event in order to
1782:Drivers/STM32F0xx_HAL_Driver/Src/stm32f0xx_hal_tim_ex.c ****   *        update the configuration at each commutation detection on the TRGI input of the Timer,
1783:Drivers/STM32F0xx_HAL_Driver/Src/stm32f0xx_hal_tim_ex.c ****   *        the typical use of this feature is with the use of another Timer(interface Timer)
1784:Drivers/STM32F0xx_HAL_Driver/Src/stm32f0xx_hal_tim_ex.c ****   *        configured in Hall sensor interface, this interface Timer will generate the
1785:Drivers/STM32F0xx_HAL_Driver/Src/stm32f0xx_hal_tim_ex.c ****   *        commutation at its TRGO output (connected to Timer used in this function) each time
1786:Drivers/STM32F0xx_HAL_Driver/Src/stm32f0xx_hal_tim_ex.c ****   *        the TI1 of the Interface Timer detect a commutation at its input TI1.
1787:Drivers/STM32F0xx_HAL_Driver/Src/stm32f0xx_hal_tim_ex.c ****   * @param  htim TIM handle
1788:Drivers/STM32F0xx_HAL_Driver/Src/stm32f0xx_hal_tim_ex.c ****   * @param  InputTrigger the Internal trigger corresponding to the Timer Interfacing with the Hall 
1789:Drivers/STM32F0xx_HAL_Driver/Src/stm32f0xx_hal_tim_ex.c ****   *          This parameter can be one of the following values:
1790:Drivers/STM32F0xx_HAL_Driver/Src/stm32f0xx_hal_tim_ex.c ****   *            @arg TIM_TS_ITR0: Internal trigger 0 selected
1791:Drivers/STM32F0xx_HAL_Driver/Src/stm32f0xx_hal_tim_ex.c ****   *            @arg TIM_TS_ITR1: Internal trigger 1 selected
1792:Drivers/STM32F0xx_HAL_Driver/Src/stm32f0xx_hal_tim_ex.c ****   *            @arg TIM_TS_ITR2: Internal trigger 2 selected
1793:Drivers/STM32F0xx_HAL_Driver/Src/stm32f0xx_hal_tim_ex.c ****   *            @arg TIM_TS_ITR3: Internal trigger 3 selected
1794:Drivers/STM32F0xx_HAL_Driver/Src/stm32f0xx_hal_tim_ex.c ****   *            @arg TIM_TS_NONE: No trigger is needed
1795:Drivers/STM32F0xx_HAL_Driver/Src/stm32f0xx_hal_tim_ex.c ****   * @param  CommutationSource the Commutation Event source
1796:Drivers/STM32F0xx_HAL_Driver/Src/stm32f0xx_hal_tim_ex.c ****   *          This parameter can be one of the following values:
1797:Drivers/STM32F0xx_HAL_Driver/Src/stm32f0xx_hal_tim_ex.c ****   *            @arg TIM_COMMUTATION_TRGI: Commutation source is the TRGI of the Interface Timer
1798:Drivers/STM32F0xx_HAL_Driver/Src/stm32f0xx_hal_tim_ex.c ****   *            @arg TIM_COMMUTATION_SOFTWARE:  Commutation source is set by software using the COMG
1799:Drivers/STM32F0xx_HAL_Driver/Src/stm32f0xx_hal_tim_ex.c ****   * @retval HAL status
ARM GAS  /var/folders/d0/cymppscj10lcmm48h781wrc80000gn/T//cc0qcKWW.s 			page 124


1800:Drivers/STM32F0xx_HAL_Driver/Src/stm32f0xx_hal_tim_ex.c ****   */
1801:Drivers/STM32F0xx_HAL_Driver/Src/stm32f0xx_hal_tim_ex.c **** HAL_StatusTypeDef HAL_TIMEx_ConfigCommutEvent(TIM_HandleTypeDef *htim, uint32_t  InputTrigger,
1802:Drivers/STM32F0xx_HAL_Driver/Src/stm32f0xx_hal_tim_ex.c ****                                               uint32_t  CommutationSource)
1803:Drivers/STM32F0xx_HAL_Driver/Src/stm32f0xx_hal_tim_ex.c **** {
 5255              		.loc 1 1803 1
 5256              		.cfi_startproc
 5257              		@ args = 0, pretend = 0, frame = 16
 5258              		@ frame_needed = 1, uses_anonymous_args = 0
 5259 0000 80B5     		push	{r7, lr}
 5260              	.LCFI78:
 5261              		.cfi_def_cfa_offset 8
 5262              		.cfi_offset 7, -8
 5263              		.cfi_offset 14, -4
 5264 0002 84B0     		sub	sp, sp, #16
 5265              	.LCFI79:
 5266              		.cfi_def_cfa_offset 24
 5267 0004 00AF     		add	r7, sp, #0
 5268              	.LCFI80:
 5269              		.cfi_def_cfa_register 7
 5270 0006 F860     		str	r0, [r7, #12]
 5271 0008 B960     		str	r1, [r7, #8]
 5272 000a 7A60     		str	r2, [r7, #4]
1804:Drivers/STM32F0xx_HAL_Driver/Src/stm32f0xx_hal_tim_ex.c ****   /* Check the parameters */
1805:Drivers/STM32F0xx_HAL_Driver/Src/stm32f0xx_hal_tim_ex.c ****   assert_param(IS_TIM_COMMUTATION_EVENT_INSTANCE(htim->Instance));
1806:Drivers/STM32F0xx_HAL_Driver/Src/stm32f0xx_hal_tim_ex.c ****   assert_param(IS_TIM_INTERNAL_TRIGGEREVENT_SELECTION(InputTrigger));
1807:Drivers/STM32F0xx_HAL_Driver/Src/stm32f0xx_hal_tim_ex.c **** 
1808:Drivers/STM32F0xx_HAL_Driver/Src/stm32f0xx_hal_tim_ex.c ****   __HAL_LOCK(htim);
 5273              		.loc 1 1808 3
 5274 000c FB68     		ldr	r3, [r7, #12]
 5275 000e 3C22     		movs	r2, #60
 5276 0010 9B5C     		ldrb	r3, [r3, r2]
 5277 0012 012B     		cmp	r3, #1
 5278 0014 01D1     		bne	.L358
 5279              		.loc 1 1808 3 is_stmt 0 discriminator 1
 5280 0016 0223     		movs	r3, #2
 5281 0018 4CE0     		b	.L359
 5282              	.L358:
 5283              		.loc 1 1808 3 discriminator 2
 5284 001a FB68     		ldr	r3, [r7, #12]
 5285 001c 3C22     		movs	r2, #60
 5286 001e 0121     		movs	r1, #1
 5287 0020 9954     		strb	r1, [r3, r2]
1809:Drivers/STM32F0xx_HAL_Driver/Src/stm32f0xx_hal_tim_ex.c **** 
1810:Drivers/STM32F0xx_HAL_Driver/Src/stm32f0xx_hal_tim_ex.c ****   if ((InputTrigger == TIM_TS_ITR0) || (InputTrigger == TIM_TS_ITR1) ||
 5288              		.loc 1 1810 6 is_stmt 1 discriminator 2
 5289 0022 BB68     		ldr	r3, [r7, #8]
 5290 0024 002B     		cmp	r3, #0
 5291 0026 08D0     		beq	.L360
 5292              		.loc 1 1810 37 discriminator 1
 5293 0028 BB68     		ldr	r3, [r7, #8]
 5294 002a 102B     		cmp	r3, #16
 5295 002c 05D0     		beq	.L360
 5296              		.loc 1 1810 70 discriminator 2
 5297 002e BB68     		ldr	r3, [r7, #8]
 5298 0030 202B     		cmp	r3, #32
 5299 0032 02D0     		beq	.L360
1811:Drivers/STM32F0xx_HAL_Driver/Src/stm32f0xx_hal_tim_ex.c ****       (InputTrigger == TIM_TS_ITR2) || (InputTrigger == TIM_TS_ITR3))
ARM GAS  /var/folders/d0/cymppscj10lcmm48h781wrc80000gn/T//cc0qcKWW.s 			page 125


 5300              		.loc 1 1811 37
 5301 0034 BB68     		ldr	r3, [r7, #8]
 5302 0036 302B     		cmp	r3, #48
 5303 0038 0FD1     		bne	.L361
 5304              	.L360:
1812:Drivers/STM32F0xx_HAL_Driver/Src/stm32f0xx_hal_tim_ex.c ****   {
1813:Drivers/STM32F0xx_HAL_Driver/Src/stm32f0xx_hal_tim_ex.c ****     /* Select the Input trigger */
1814:Drivers/STM32F0xx_HAL_Driver/Src/stm32f0xx_hal_tim_ex.c ****     htim->Instance->SMCR &= ~TIM_SMCR_TS;
 5305              		.loc 1 1814 9
 5306 003a FB68     		ldr	r3, [r7, #12]
 5307 003c 1B68     		ldr	r3, [r3]
 5308              		.loc 1 1814 26
 5309 003e 9A68     		ldr	r2, [r3, #8]
 5310              		.loc 1 1814 9
 5311 0040 FB68     		ldr	r3, [r7, #12]
 5312 0042 1B68     		ldr	r3, [r3]
 5313              		.loc 1 1814 26
 5314 0044 7021     		movs	r1, #112
 5315 0046 8A43     		bics	r2, r1
 5316 0048 9A60     		str	r2, [r3, #8]
1815:Drivers/STM32F0xx_HAL_Driver/Src/stm32f0xx_hal_tim_ex.c ****     htim->Instance->SMCR |= InputTrigger;
 5317              		.loc 1 1815 9
 5318 004a FB68     		ldr	r3, [r7, #12]
 5319 004c 1B68     		ldr	r3, [r3]
 5320              		.loc 1 1815 26
 5321 004e 9968     		ldr	r1, [r3, #8]
 5322              		.loc 1 1815 9
 5323 0050 FB68     		ldr	r3, [r7, #12]
 5324 0052 1B68     		ldr	r3, [r3]
 5325              		.loc 1 1815 26
 5326 0054 BA68     		ldr	r2, [r7, #8]
 5327 0056 0A43     		orrs	r2, r1
 5328 0058 9A60     		str	r2, [r3, #8]
 5329              	.L361:
1816:Drivers/STM32F0xx_HAL_Driver/Src/stm32f0xx_hal_tim_ex.c ****   }
1817:Drivers/STM32F0xx_HAL_Driver/Src/stm32f0xx_hal_tim_ex.c **** 
1818:Drivers/STM32F0xx_HAL_Driver/Src/stm32f0xx_hal_tim_ex.c ****   /* Select the Capture Compare preload feature */
1819:Drivers/STM32F0xx_HAL_Driver/Src/stm32f0xx_hal_tim_ex.c ****   htim->Instance->CR2 |= TIM_CR2_CCPC;
 5330              		.loc 1 1819 7
 5331 005a FB68     		ldr	r3, [r7, #12]
 5332 005c 1B68     		ldr	r3, [r3]
 5333              		.loc 1 1819 23
 5334 005e 5A68     		ldr	r2, [r3, #4]
 5335              		.loc 1 1819 7
 5336 0060 FB68     		ldr	r3, [r7, #12]
 5337 0062 1B68     		ldr	r3, [r3]
 5338              		.loc 1 1819 23
 5339 0064 0121     		movs	r1, #1
 5340 0066 0A43     		orrs	r2, r1
 5341 0068 5A60     		str	r2, [r3, #4]
1820:Drivers/STM32F0xx_HAL_Driver/Src/stm32f0xx_hal_tim_ex.c ****   /* Select the Commutation event source */
1821:Drivers/STM32F0xx_HAL_Driver/Src/stm32f0xx_hal_tim_ex.c ****   htim->Instance->CR2 &= ~TIM_CR2_CCUS;
 5342              		.loc 1 1821 7
 5343 006a FB68     		ldr	r3, [r7, #12]
 5344 006c 1B68     		ldr	r3, [r3]
 5345              		.loc 1 1821 23
 5346 006e 5A68     		ldr	r2, [r3, #4]
ARM GAS  /var/folders/d0/cymppscj10lcmm48h781wrc80000gn/T//cc0qcKWW.s 			page 126


 5347              		.loc 1 1821 7
 5348 0070 FB68     		ldr	r3, [r7, #12]
 5349 0072 1B68     		ldr	r3, [r3]
 5350              		.loc 1 1821 23
 5351 0074 0421     		movs	r1, #4
 5352 0076 8A43     		bics	r2, r1
 5353 0078 5A60     		str	r2, [r3, #4]
1822:Drivers/STM32F0xx_HAL_Driver/Src/stm32f0xx_hal_tim_ex.c ****   htim->Instance->CR2 |= CommutationSource;
 5354              		.loc 1 1822 7
 5355 007a FB68     		ldr	r3, [r7, #12]
 5356 007c 1B68     		ldr	r3, [r3]
 5357              		.loc 1 1822 23
 5358 007e 5968     		ldr	r1, [r3, #4]
 5359              		.loc 1 1822 7
 5360 0080 FB68     		ldr	r3, [r7, #12]
 5361 0082 1B68     		ldr	r3, [r3]
 5362              		.loc 1 1822 23
 5363 0084 7A68     		ldr	r2, [r7, #4]
 5364 0086 0A43     		orrs	r2, r1
 5365 0088 5A60     		str	r2, [r3, #4]
1823:Drivers/STM32F0xx_HAL_Driver/Src/stm32f0xx_hal_tim_ex.c **** 
1824:Drivers/STM32F0xx_HAL_Driver/Src/stm32f0xx_hal_tim_ex.c ****   /* Disable Commutation Interrupt */
1825:Drivers/STM32F0xx_HAL_Driver/Src/stm32f0xx_hal_tim_ex.c ****   __HAL_TIM_DISABLE_IT(htim, TIM_IT_COM);
 5366              		.loc 1 1825 3
 5367 008a FB68     		ldr	r3, [r7, #12]
 5368 008c 1B68     		ldr	r3, [r3]
 5369 008e DA68     		ldr	r2, [r3, #12]
 5370 0090 FB68     		ldr	r3, [r7, #12]
 5371 0092 1B68     		ldr	r3, [r3]
 5372 0094 2021     		movs	r1, #32
 5373 0096 8A43     		bics	r2, r1
 5374 0098 DA60     		str	r2, [r3, #12]
1826:Drivers/STM32F0xx_HAL_Driver/Src/stm32f0xx_hal_tim_ex.c **** 
1827:Drivers/STM32F0xx_HAL_Driver/Src/stm32f0xx_hal_tim_ex.c ****   /* Disable Commutation DMA request */
1828:Drivers/STM32F0xx_HAL_Driver/Src/stm32f0xx_hal_tim_ex.c ****   __HAL_TIM_DISABLE_DMA(htim, TIM_DMA_COM);
 5375              		.loc 1 1828 3
 5376 009a FB68     		ldr	r3, [r7, #12]
 5377 009c 1B68     		ldr	r3, [r3]
 5378 009e DA68     		ldr	r2, [r3, #12]
 5379 00a0 FB68     		ldr	r3, [r7, #12]
 5380 00a2 1B68     		ldr	r3, [r3]
 5381 00a4 0549     		ldr	r1, .L362
 5382 00a6 0A40     		ands	r2, r1
 5383 00a8 DA60     		str	r2, [r3, #12]
1829:Drivers/STM32F0xx_HAL_Driver/Src/stm32f0xx_hal_tim_ex.c **** 
1830:Drivers/STM32F0xx_HAL_Driver/Src/stm32f0xx_hal_tim_ex.c ****   __HAL_UNLOCK(htim);
 5384              		.loc 1 1830 3
 5385 00aa FB68     		ldr	r3, [r7, #12]
 5386 00ac 3C22     		movs	r2, #60
 5387 00ae 0021     		movs	r1, #0
 5388 00b0 9954     		strb	r1, [r3, r2]
1831:Drivers/STM32F0xx_HAL_Driver/Src/stm32f0xx_hal_tim_ex.c **** 
1832:Drivers/STM32F0xx_HAL_Driver/Src/stm32f0xx_hal_tim_ex.c ****   return HAL_OK;
 5389              		.loc 1 1832 10
 5390 00b2 0023     		movs	r3, #0
 5391              	.L359:
1833:Drivers/STM32F0xx_HAL_Driver/Src/stm32f0xx_hal_tim_ex.c **** }
ARM GAS  /var/folders/d0/cymppscj10lcmm48h781wrc80000gn/T//cc0qcKWW.s 			page 127


 5392              		.loc 1 1833 1
 5393 00b4 1800     		movs	r0, r3
 5394 00b6 BD46     		mov	sp, r7
 5395 00b8 04B0     		add	sp, sp, #16
 5396              		@ sp needed
 5397 00ba 80BD     		pop	{r7, pc}
 5398              	.L363:
 5399              		.align	2
 5400              	.L362:
 5401 00bc FFDFFFFF 		.word	-8193
 5402              		.cfi_endproc
 5403              	.LFE66:
 5405              		.section	.text.HAL_TIMEx_ConfigCommutEvent_IT,"ax",%progbits
 5406              		.align	1
 5407              		.global	HAL_TIMEx_ConfigCommutEvent_IT
 5408              		.syntax unified
 5409              		.code	16
 5410              		.thumb_func
 5412              	HAL_TIMEx_ConfigCommutEvent_IT:
 5413              	.LFB67:
1834:Drivers/STM32F0xx_HAL_Driver/Src/stm32f0xx_hal_tim_ex.c **** 
1835:Drivers/STM32F0xx_HAL_Driver/Src/stm32f0xx_hal_tim_ex.c **** /**
1836:Drivers/STM32F0xx_HAL_Driver/Src/stm32f0xx_hal_tim_ex.c ****   * @brief  Configure the TIM commutation event sequence with interrupt.
1837:Drivers/STM32F0xx_HAL_Driver/Src/stm32f0xx_hal_tim_ex.c ****   * @note  This function is mandatory to use the commutation event in order to
1838:Drivers/STM32F0xx_HAL_Driver/Src/stm32f0xx_hal_tim_ex.c ****   *        update the configuration at each commutation detection on the TRGI input of the Timer,
1839:Drivers/STM32F0xx_HAL_Driver/Src/stm32f0xx_hal_tim_ex.c ****   *        the typical use of this feature is with the use of another Timer(interface Timer)
1840:Drivers/STM32F0xx_HAL_Driver/Src/stm32f0xx_hal_tim_ex.c ****   *        configured in Hall sensor interface, this interface Timer will generate the
1841:Drivers/STM32F0xx_HAL_Driver/Src/stm32f0xx_hal_tim_ex.c ****   *        commutation at its TRGO output (connected to Timer used in this function) each time
1842:Drivers/STM32F0xx_HAL_Driver/Src/stm32f0xx_hal_tim_ex.c ****   *        the TI1 of the Interface Timer detect a commutation at its input TI1.
1843:Drivers/STM32F0xx_HAL_Driver/Src/stm32f0xx_hal_tim_ex.c ****   * @param  htim TIM handle
1844:Drivers/STM32F0xx_HAL_Driver/Src/stm32f0xx_hal_tim_ex.c ****   * @param  InputTrigger the Internal trigger corresponding to the Timer Interfacing with the Hall 
1845:Drivers/STM32F0xx_HAL_Driver/Src/stm32f0xx_hal_tim_ex.c ****   *          This parameter can be one of the following values:
1846:Drivers/STM32F0xx_HAL_Driver/Src/stm32f0xx_hal_tim_ex.c ****   *            @arg TIM_TS_ITR0: Internal trigger 0 selected
1847:Drivers/STM32F0xx_HAL_Driver/Src/stm32f0xx_hal_tim_ex.c ****   *            @arg TIM_TS_ITR1: Internal trigger 1 selected
1848:Drivers/STM32F0xx_HAL_Driver/Src/stm32f0xx_hal_tim_ex.c ****   *            @arg TIM_TS_ITR2: Internal trigger 2 selected
1849:Drivers/STM32F0xx_HAL_Driver/Src/stm32f0xx_hal_tim_ex.c ****   *            @arg TIM_TS_ITR3: Internal trigger 3 selected
1850:Drivers/STM32F0xx_HAL_Driver/Src/stm32f0xx_hal_tim_ex.c ****   *            @arg TIM_TS_NONE: No trigger is needed
1851:Drivers/STM32F0xx_HAL_Driver/Src/stm32f0xx_hal_tim_ex.c ****   * @param  CommutationSource the Commutation Event source
1852:Drivers/STM32F0xx_HAL_Driver/Src/stm32f0xx_hal_tim_ex.c ****   *          This parameter can be one of the following values:
1853:Drivers/STM32F0xx_HAL_Driver/Src/stm32f0xx_hal_tim_ex.c ****   *            @arg TIM_COMMUTATION_TRGI: Commutation source is the TRGI of the Interface Timer
1854:Drivers/STM32F0xx_HAL_Driver/Src/stm32f0xx_hal_tim_ex.c ****   *            @arg TIM_COMMUTATION_SOFTWARE:  Commutation source is set by software using the COMG
1855:Drivers/STM32F0xx_HAL_Driver/Src/stm32f0xx_hal_tim_ex.c ****   * @retval HAL status
1856:Drivers/STM32F0xx_HAL_Driver/Src/stm32f0xx_hal_tim_ex.c ****   */
1857:Drivers/STM32F0xx_HAL_Driver/Src/stm32f0xx_hal_tim_ex.c **** HAL_StatusTypeDef HAL_TIMEx_ConfigCommutEvent_IT(TIM_HandleTypeDef *htim, uint32_t  InputTrigger,
1858:Drivers/STM32F0xx_HAL_Driver/Src/stm32f0xx_hal_tim_ex.c ****                                                  uint32_t  CommutationSource)
1859:Drivers/STM32F0xx_HAL_Driver/Src/stm32f0xx_hal_tim_ex.c **** {
 5414              		.loc 1 1859 1
 5415              		.cfi_startproc
 5416              		@ args = 0, pretend = 0, frame = 16
 5417              		@ frame_needed = 1, uses_anonymous_args = 0
 5418 0000 80B5     		push	{r7, lr}
 5419              	.LCFI81:
 5420              		.cfi_def_cfa_offset 8
 5421              		.cfi_offset 7, -8
 5422              		.cfi_offset 14, -4
 5423 0002 84B0     		sub	sp, sp, #16
 5424              	.LCFI82:
ARM GAS  /var/folders/d0/cymppscj10lcmm48h781wrc80000gn/T//cc0qcKWW.s 			page 128


 5425              		.cfi_def_cfa_offset 24
 5426 0004 00AF     		add	r7, sp, #0
 5427              	.LCFI83:
 5428              		.cfi_def_cfa_register 7
 5429 0006 F860     		str	r0, [r7, #12]
 5430 0008 B960     		str	r1, [r7, #8]
 5431 000a 7A60     		str	r2, [r7, #4]
1860:Drivers/STM32F0xx_HAL_Driver/Src/stm32f0xx_hal_tim_ex.c ****   /* Check the parameters */
1861:Drivers/STM32F0xx_HAL_Driver/Src/stm32f0xx_hal_tim_ex.c ****   assert_param(IS_TIM_COMMUTATION_EVENT_INSTANCE(htim->Instance));
1862:Drivers/STM32F0xx_HAL_Driver/Src/stm32f0xx_hal_tim_ex.c ****   assert_param(IS_TIM_INTERNAL_TRIGGEREVENT_SELECTION(InputTrigger));
1863:Drivers/STM32F0xx_HAL_Driver/Src/stm32f0xx_hal_tim_ex.c **** 
1864:Drivers/STM32F0xx_HAL_Driver/Src/stm32f0xx_hal_tim_ex.c ****   __HAL_LOCK(htim);
 5432              		.loc 1 1864 3
 5433 000c FB68     		ldr	r3, [r7, #12]
 5434 000e 3C22     		movs	r2, #60
 5435 0010 9B5C     		ldrb	r3, [r3, r2]
 5436 0012 012B     		cmp	r3, #1
 5437 0014 01D1     		bne	.L365
 5438              		.loc 1 1864 3 is_stmt 0 discriminator 1
 5439 0016 0223     		movs	r3, #2
 5440 0018 4CE0     		b	.L366
 5441              	.L365:
 5442              		.loc 1 1864 3 discriminator 2
 5443 001a FB68     		ldr	r3, [r7, #12]
 5444 001c 3C22     		movs	r2, #60
 5445 001e 0121     		movs	r1, #1
 5446 0020 9954     		strb	r1, [r3, r2]
1865:Drivers/STM32F0xx_HAL_Driver/Src/stm32f0xx_hal_tim_ex.c **** 
1866:Drivers/STM32F0xx_HAL_Driver/Src/stm32f0xx_hal_tim_ex.c ****   if ((InputTrigger == TIM_TS_ITR0) || (InputTrigger == TIM_TS_ITR1) ||
 5447              		.loc 1 1866 6 is_stmt 1 discriminator 2
 5448 0022 BB68     		ldr	r3, [r7, #8]
 5449 0024 002B     		cmp	r3, #0
 5450 0026 08D0     		beq	.L367
 5451              		.loc 1 1866 37 discriminator 1
 5452 0028 BB68     		ldr	r3, [r7, #8]
 5453 002a 102B     		cmp	r3, #16
 5454 002c 05D0     		beq	.L367
 5455              		.loc 1 1866 70 discriminator 2
 5456 002e BB68     		ldr	r3, [r7, #8]
 5457 0030 202B     		cmp	r3, #32
 5458 0032 02D0     		beq	.L367
1867:Drivers/STM32F0xx_HAL_Driver/Src/stm32f0xx_hal_tim_ex.c ****       (InputTrigger == TIM_TS_ITR2) || (InputTrigger == TIM_TS_ITR3))
 5459              		.loc 1 1867 37
 5460 0034 BB68     		ldr	r3, [r7, #8]
 5461 0036 302B     		cmp	r3, #48
 5462 0038 0FD1     		bne	.L368
 5463              	.L367:
1868:Drivers/STM32F0xx_HAL_Driver/Src/stm32f0xx_hal_tim_ex.c ****   {
1869:Drivers/STM32F0xx_HAL_Driver/Src/stm32f0xx_hal_tim_ex.c ****     /* Select the Input trigger */
1870:Drivers/STM32F0xx_HAL_Driver/Src/stm32f0xx_hal_tim_ex.c ****     htim->Instance->SMCR &= ~TIM_SMCR_TS;
 5464              		.loc 1 1870 9
 5465 003a FB68     		ldr	r3, [r7, #12]
 5466 003c 1B68     		ldr	r3, [r3]
 5467              		.loc 1 1870 26
 5468 003e 9A68     		ldr	r2, [r3, #8]
 5469              		.loc 1 1870 9
 5470 0040 FB68     		ldr	r3, [r7, #12]
ARM GAS  /var/folders/d0/cymppscj10lcmm48h781wrc80000gn/T//cc0qcKWW.s 			page 129


 5471 0042 1B68     		ldr	r3, [r3]
 5472              		.loc 1 1870 26
 5473 0044 7021     		movs	r1, #112
 5474 0046 8A43     		bics	r2, r1
 5475 0048 9A60     		str	r2, [r3, #8]
1871:Drivers/STM32F0xx_HAL_Driver/Src/stm32f0xx_hal_tim_ex.c ****     htim->Instance->SMCR |= InputTrigger;
 5476              		.loc 1 1871 9
 5477 004a FB68     		ldr	r3, [r7, #12]
 5478 004c 1B68     		ldr	r3, [r3]
 5479              		.loc 1 1871 26
 5480 004e 9968     		ldr	r1, [r3, #8]
 5481              		.loc 1 1871 9
 5482 0050 FB68     		ldr	r3, [r7, #12]
 5483 0052 1B68     		ldr	r3, [r3]
 5484              		.loc 1 1871 26
 5485 0054 BA68     		ldr	r2, [r7, #8]
 5486 0056 0A43     		orrs	r2, r1
 5487 0058 9A60     		str	r2, [r3, #8]
 5488              	.L368:
1872:Drivers/STM32F0xx_HAL_Driver/Src/stm32f0xx_hal_tim_ex.c ****   }
1873:Drivers/STM32F0xx_HAL_Driver/Src/stm32f0xx_hal_tim_ex.c **** 
1874:Drivers/STM32F0xx_HAL_Driver/Src/stm32f0xx_hal_tim_ex.c ****   /* Select the Capture Compare preload feature */
1875:Drivers/STM32F0xx_HAL_Driver/Src/stm32f0xx_hal_tim_ex.c ****   htim->Instance->CR2 |= TIM_CR2_CCPC;
 5489              		.loc 1 1875 7
 5490 005a FB68     		ldr	r3, [r7, #12]
 5491 005c 1B68     		ldr	r3, [r3]
 5492              		.loc 1 1875 23
 5493 005e 5A68     		ldr	r2, [r3, #4]
 5494              		.loc 1 1875 7
 5495 0060 FB68     		ldr	r3, [r7, #12]
 5496 0062 1B68     		ldr	r3, [r3]
 5497              		.loc 1 1875 23
 5498 0064 0121     		movs	r1, #1
 5499 0066 0A43     		orrs	r2, r1
 5500 0068 5A60     		str	r2, [r3, #4]
1876:Drivers/STM32F0xx_HAL_Driver/Src/stm32f0xx_hal_tim_ex.c ****   /* Select the Commutation event source */
1877:Drivers/STM32F0xx_HAL_Driver/Src/stm32f0xx_hal_tim_ex.c ****   htim->Instance->CR2 &= ~TIM_CR2_CCUS;
 5501              		.loc 1 1877 7
 5502 006a FB68     		ldr	r3, [r7, #12]
 5503 006c 1B68     		ldr	r3, [r3]
 5504              		.loc 1 1877 23
 5505 006e 5A68     		ldr	r2, [r3, #4]
 5506              		.loc 1 1877 7
 5507 0070 FB68     		ldr	r3, [r7, #12]
 5508 0072 1B68     		ldr	r3, [r3]
 5509              		.loc 1 1877 23
 5510 0074 0421     		movs	r1, #4
 5511 0076 8A43     		bics	r2, r1
 5512 0078 5A60     		str	r2, [r3, #4]
1878:Drivers/STM32F0xx_HAL_Driver/Src/stm32f0xx_hal_tim_ex.c ****   htim->Instance->CR2 |= CommutationSource;
 5513              		.loc 1 1878 7
 5514 007a FB68     		ldr	r3, [r7, #12]
 5515 007c 1B68     		ldr	r3, [r3]
 5516              		.loc 1 1878 23
 5517 007e 5968     		ldr	r1, [r3, #4]
 5518              		.loc 1 1878 7
 5519 0080 FB68     		ldr	r3, [r7, #12]
ARM GAS  /var/folders/d0/cymppscj10lcmm48h781wrc80000gn/T//cc0qcKWW.s 			page 130


 5520 0082 1B68     		ldr	r3, [r3]
 5521              		.loc 1 1878 23
 5522 0084 7A68     		ldr	r2, [r7, #4]
 5523 0086 0A43     		orrs	r2, r1
 5524 0088 5A60     		str	r2, [r3, #4]
1879:Drivers/STM32F0xx_HAL_Driver/Src/stm32f0xx_hal_tim_ex.c **** 
1880:Drivers/STM32F0xx_HAL_Driver/Src/stm32f0xx_hal_tim_ex.c ****   /* Disable Commutation DMA request */
1881:Drivers/STM32F0xx_HAL_Driver/Src/stm32f0xx_hal_tim_ex.c ****   __HAL_TIM_DISABLE_DMA(htim, TIM_DMA_COM);
 5525              		.loc 1 1881 3
 5526 008a FB68     		ldr	r3, [r7, #12]
 5527 008c 1B68     		ldr	r3, [r3]
 5528 008e DA68     		ldr	r2, [r3, #12]
 5529 0090 FB68     		ldr	r3, [r7, #12]
 5530 0092 1B68     		ldr	r3, [r3]
 5531 0094 0949     		ldr	r1, .L369
 5532 0096 0A40     		ands	r2, r1
 5533 0098 DA60     		str	r2, [r3, #12]
1882:Drivers/STM32F0xx_HAL_Driver/Src/stm32f0xx_hal_tim_ex.c **** 
1883:Drivers/STM32F0xx_HAL_Driver/Src/stm32f0xx_hal_tim_ex.c ****   /* Enable the Commutation Interrupt */
1884:Drivers/STM32F0xx_HAL_Driver/Src/stm32f0xx_hal_tim_ex.c ****   __HAL_TIM_ENABLE_IT(htim, TIM_IT_COM);
 5534              		.loc 1 1884 3
 5535 009a FB68     		ldr	r3, [r7, #12]
 5536 009c 1B68     		ldr	r3, [r3]
 5537 009e DA68     		ldr	r2, [r3, #12]
 5538 00a0 FB68     		ldr	r3, [r7, #12]
 5539 00a2 1B68     		ldr	r3, [r3]
 5540 00a4 2021     		movs	r1, #32
 5541 00a6 0A43     		orrs	r2, r1
 5542 00a8 DA60     		str	r2, [r3, #12]
1885:Drivers/STM32F0xx_HAL_Driver/Src/stm32f0xx_hal_tim_ex.c **** 
1886:Drivers/STM32F0xx_HAL_Driver/Src/stm32f0xx_hal_tim_ex.c ****   __HAL_UNLOCK(htim);
 5543              		.loc 1 1886 3
 5544 00aa FB68     		ldr	r3, [r7, #12]
 5545 00ac 3C22     		movs	r2, #60
 5546 00ae 0021     		movs	r1, #0
 5547 00b0 9954     		strb	r1, [r3, r2]
1887:Drivers/STM32F0xx_HAL_Driver/Src/stm32f0xx_hal_tim_ex.c **** 
1888:Drivers/STM32F0xx_HAL_Driver/Src/stm32f0xx_hal_tim_ex.c ****   return HAL_OK;
 5548              		.loc 1 1888 10
 5549 00b2 0023     		movs	r3, #0
 5550              	.L366:
1889:Drivers/STM32F0xx_HAL_Driver/Src/stm32f0xx_hal_tim_ex.c **** }
 5551              		.loc 1 1889 1
 5552 00b4 1800     		movs	r0, r3
 5553 00b6 BD46     		mov	sp, r7
 5554 00b8 04B0     		add	sp, sp, #16
 5555              		@ sp needed
 5556 00ba 80BD     		pop	{r7, pc}
 5557              	.L370:
 5558              		.align	2
 5559              	.L369:
 5560 00bc FFDFFFFF 		.word	-8193
 5561              		.cfi_endproc
 5562              	.LFE67:
 5564              		.section	.text.HAL_TIMEx_ConfigCommutEvent_DMA,"ax",%progbits
 5565              		.align	1
 5566              		.global	HAL_TIMEx_ConfigCommutEvent_DMA
ARM GAS  /var/folders/d0/cymppscj10lcmm48h781wrc80000gn/T//cc0qcKWW.s 			page 131


 5567              		.syntax unified
 5568              		.code	16
 5569              		.thumb_func
 5571              	HAL_TIMEx_ConfigCommutEvent_DMA:
 5572              	.LFB68:
1890:Drivers/STM32F0xx_HAL_Driver/Src/stm32f0xx_hal_tim_ex.c **** 
1891:Drivers/STM32F0xx_HAL_Driver/Src/stm32f0xx_hal_tim_ex.c **** /**
1892:Drivers/STM32F0xx_HAL_Driver/Src/stm32f0xx_hal_tim_ex.c ****   * @brief  Configure the TIM commutation event sequence with DMA.
1893:Drivers/STM32F0xx_HAL_Driver/Src/stm32f0xx_hal_tim_ex.c ****   * @note  This function is mandatory to use the commutation event in order to
1894:Drivers/STM32F0xx_HAL_Driver/Src/stm32f0xx_hal_tim_ex.c ****   *        update the configuration at each commutation detection on the TRGI input of the Timer,
1895:Drivers/STM32F0xx_HAL_Driver/Src/stm32f0xx_hal_tim_ex.c ****   *        the typical use of this feature is with the use of another Timer(interface Timer)
1896:Drivers/STM32F0xx_HAL_Driver/Src/stm32f0xx_hal_tim_ex.c ****   *        configured in Hall sensor interface, this interface Timer will generate the
1897:Drivers/STM32F0xx_HAL_Driver/Src/stm32f0xx_hal_tim_ex.c ****   *        commutation at its TRGO output (connected to Timer used in this function) each time
1898:Drivers/STM32F0xx_HAL_Driver/Src/stm32f0xx_hal_tim_ex.c ****   *        the TI1 of the Interface Timer detect a commutation at its input TI1.
1899:Drivers/STM32F0xx_HAL_Driver/Src/stm32f0xx_hal_tim_ex.c ****   * @note  The user should configure the DMA in his own software, in This function only the COMDE b
1900:Drivers/STM32F0xx_HAL_Driver/Src/stm32f0xx_hal_tim_ex.c ****   * @param  htim TIM handle
1901:Drivers/STM32F0xx_HAL_Driver/Src/stm32f0xx_hal_tim_ex.c ****   * @param  InputTrigger the Internal trigger corresponding to the Timer Interfacing with the Hall 
1902:Drivers/STM32F0xx_HAL_Driver/Src/stm32f0xx_hal_tim_ex.c ****   *          This parameter can be one of the following values:
1903:Drivers/STM32F0xx_HAL_Driver/Src/stm32f0xx_hal_tim_ex.c ****   *            @arg TIM_TS_ITR0: Internal trigger 0 selected
1904:Drivers/STM32F0xx_HAL_Driver/Src/stm32f0xx_hal_tim_ex.c ****   *            @arg TIM_TS_ITR1: Internal trigger 1 selected
1905:Drivers/STM32F0xx_HAL_Driver/Src/stm32f0xx_hal_tim_ex.c ****   *            @arg TIM_TS_ITR2: Internal trigger 2 selected
1906:Drivers/STM32F0xx_HAL_Driver/Src/stm32f0xx_hal_tim_ex.c ****   *            @arg TIM_TS_ITR3: Internal trigger 3 selected
1907:Drivers/STM32F0xx_HAL_Driver/Src/stm32f0xx_hal_tim_ex.c ****   *            @arg TIM_TS_NONE: No trigger is needed
1908:Drivers/STM32F0xx_HAL_Driver/Src/stm32f0xx_hal_tim_ex.c ****   * @param  CommutationSource the Commutation Event source
1909:Drivers/STM32F0xx_HAL_Driver/Src/stm32f0xx_hal_tim_ex.c ****   *          This parameter can be one of the following values:
1910:Drivers/STM32F0xx_HAL_Driver/Src/stm32f0xx_hal_tim_ex.c ****   *            @arg TIM_COMMUTATION_TRGI: Commutation source is the TRGI of the Interface Timer
1911:Drivers/STM32F0xx_HAL_Driver/Src/stm32f0xx_hal_tim_ex.c ****   *            @arg TIM_COMMUTATION_SOFTWARE:  Commutation source is set by software using the COMG
1912:Drivers/STM32F0xx_HAL_Driver/Src/stm32f0xx_hal_tim_ex.c ****   * @retval HAL status
1913:Drivers/STM32F0xx_HAL_Driver/Src/stm32f0xx_hal_tim_ex.c ****   */
1914:Drivers/STM32F0xx_HAL_Driver/Src/stm32f0xx_hal_tim_ex.c **** HAL_StatusTypeDef HAL_TIMEx_ConfigCommutEvent_DMA(TIM_HandleTypeDef *htim, uint32_t  InputTrigger,
1915:Drivers/STM32F0xx_HAL_Driver/Src/stm32f0xx_hal_tim_ex.c ****                                                   uint32_t  CommutationSource)
1916:Drivers/STM32F0xx_HAL_Driver/Src/stm32f0xx_hal_tim_ex.c **** {
 5573              		.loc 1 1916 1
 5574              		.cfi_startproc
 5575              		@ args = 0, pretend = 0, frame = 16
 5576              		@ frame_needed = 1, uses_anonymous_args = 0
 5577 0000 80B5     		push	{r7, lr}
 5578              	.LCFI84:
 5579              		.cfi_def_cfa_offset 8
 5580              		.cfi_offset 7, -8
 5581              		.cfi_offset 14, -4
 5582 0002 84B0     		sub	sp, sp, #16
 5583              	.LCFI85:
 5584              		.cfi_def_cfa_offset 24
 5585 0004 00AF     		add	r7, sp, #0
 5586              	.LCFI86:
 5587              		.cfi_def_cfa_register 7
 5588 0006 F860     		str	r0, [r7, #12]
 5589 0008 B960     		str	r1, [r7, #8]
 5590 000a 7A60     		str	r2, [r7, #4]
1917:Drivers/STM32F0xx_HAL_Driver/Src/stm32f0xx_hal_tim_ex.c ****   /* Check the parameters */
1918:Drivers/STM32F0xx_HAL_Driver/Src/stm32f0xx_hal_tim_ex.c ****   assert_param(IS_TIM_COMMUTATION_EVENT_INSTANCE(htim->Instance));
1919:Drivers/STM32F0xx_HAL_Driver/Src/stm32f0xx_hal_tim_ex.c ****   assert_param(IS_TIM_INTERNAL_TRIGGEREVENT_SELECTION(InputTrigger));
1920:Drivers/STM32F0xx_HAL_Driver/Src/stm32f0xx_hal_tim_ex.c **** 
1921:Drivers/STM32F0xx_HAL_Driver/Src/stm32f0xx_hal_tim_ex.c ****   __HAL_LOCK(htim);
 5591              		.loc 1 1921 3
 5592 000c FB68     		ldr	r3, [r7, #12]
ARM GAS  /var/folders/d0/cymppscj10lcmm48h781wrc80000gn/T//cc0qcKWW.s 			page 132


 5593 000e 3C22     		movs	r2, #60
 5594 0010 9B5C     		ldrb	r3, [r3, r2]
 5595 0012 012B     		cmp	r3, #1
 5596 0014 01D1     		bne	.L372
 5597              		.loc 1 1921 3 is_stmt 0 discriminator 1
 5598 0016 0223     		movs	r3, #2
 5599 0018 59E0     		b	.L373
 5600              	.L372:
 5601              		.loc 1 1921 3 discriminator 2
 5602 001a FB68     		ldr	r3, [r7, #12]
 5603 001c 3C22     		movs	r2, #60
 5604 001e 0121     		movs	r1, #1
 5605 0020 9954     		strb	r1, [r3, r2]
1922:Drivers/STM32F0xx_HAL_Driver/Src/stm32f0xx_hal_tim_ex.c **** 
1923:Drivers/STM32F0xx_HAL_Driver/Src/stm32f0xx_hal_tim_ex.c ****   if ((InputTrigger == TIM_TS_ITR0) || (InputTrigger == TIM_TS_ITR1) ||
 5606              		.loc 1 1923 6 is_stmt 1 discriminator 2
 5607 0022 BB68     		ldr	r3, [r7, #8]
 5608 0024 002B     		cmp	r3, #0
 5609 0026 08D0     		beq	.L374
 5610              		.loc 1 1923 37 discriminator 1
 5611 0028 BB68     		ldr	r3, [r7, #8]
 5612 002a 102B     		cmp	r3, #16
 5613 002c 05D0     		beq	.L374
 5614              		.loc 1 1923 70 discriminator 2
 5615 002e BB68     		ldr	r3, [r7, #8]
 5616 0030 202B     		cmp	r3, #32
 5617 0032 02D0     		beq	.L374
1924:Drivers/STM32F0xx_HAL_Driver/Src/stm32f0xx_hal_tim_ex.c ****       (InputTrigger == TIM_TS_ITR2) || (InputTrigger == TIM_TS_ITR3))
 5618              		.loc 1 1924 37
 5619 0034 BB68     		ldr	r3, [r7, #8]
 5620 0036 302B     		cmp	r3, #48
 5621 0038 0FD1     		bne	.L375
 5622              	.L374:
1925:Drivers/STM32F0xx_HAL_Driver/Src/stm32f0xx_hal_tim_ex.c ****   {
1926:Drivers/STM32F0xx_HAL_Driver/Src/stm32f0xx_hal_tim_ex.c ****     /* Select the Input trigger */
1927:Drivers/STM32F0xx_HAL_Driver/Src/stm32f0xx_hal_tim_ex.c ****     htim->Instance->SMCR &= ~TIM_SMCR_TS;
 5623              		.loc 1 1927 9
 5624 003a FB68     		ldr	r3, [r7, #12]
 5625 003c 1B68     		ldr	r3, [r3]
 5626              		.loc 1 1927 26
 5627 003e 9A68     		ldr	r2, [r3, #8]
 5628              		.loc 1 1927 9
 5629 0040 FB68     		ldr	r3, [r7, #12]
 5630 0042 1B68     		ldr	r3, [r3]
 5631              		.loc 1 1927 26
 5632 0044 7021     		movs	r1, #112
 5633 0046 8A43     		bics	r2, r1
 5634 0048 9A60     		str	r2, [r3, #8]
1928:Drivers/STM32F0xx_HAL_Driver/Src/stm32f0xx_hal_tim_ex.c ****     htim->Instance->SMCR |= InputTrigger;
 5635              		.loc 1 1928 9
 5636 004a FB68     		ldr	r3, [r7, #12]
 5637 004c 1B68     		ldr	r3, [r3]
 5638              		.loc 1 1928 26
 5639 004e 9968     		ldr	r1, [r3, #8]
 5640              		.loc 1 1928 9
 5641 0050 FB68     		ldr	r3, [r7, #12]
 5642 0052 1B68     		ldr	r3, [r3]
ARM GAS  /var/folders/d0/cymppscj10lcmm48h781wrc80000gn/T//cc0qcKWW.s 			page 133


 5643              		.loc 1 1928 26
 5644 0054 BA68     		ldr	r2, [r7, #8]
 5645 0056 0A43     		orrs	r2, r1
 5646 0058 9A60     		str	r2, [r3, #8]
 5647              	.L375:
1929:Drivers/STM32F0xx_HAL_Driver/Src/stm32f0xx_hal_tim_ex.c ****   }
1930:Drivers/STM32F0xx_HAL_Driver/Src/stm32f0xx_hal_tim_ex.c **** 
1931:Drivers/STM32F0xx_HAL_Driver/Src/stm32f0xx_hal_tim_ex.c ****   /* Select the Capture Compare preload feature */
1932:Drivers/STM32F0xx_HAL_Driver/Src/stm32f0xx_hal_tim_ex.c ****   htim->Instance->CR2 |= TIM_CR2_CCPC;
 5648              		.loc 1 1932 7
 5649 005a FB68     		ldr	r3, [r7, #12]
 5650 005c 1B68     		ldr	r3, [r3]
 5651              		.loc 1 1932 23
 5652 005e 5A68     		ldr	r2, [r3, #4]
 5653              		.loc 1 1932 7
 5654 0060 FB68     		ldr	r3, [r7, #12]
 5655 0062 1B68     		ldr	r3, [r3]
 5656              		.loc 1 1932 23
 5657 0064 0121     		movs	r1, #1
 5658 0066 0A43     		orrs	r2, r1
 5659 0068 5A60     		str	r2, [r3, #4]
1933:Drivers/STM32F0xx_HAL_Driver/Src/stm32f0xx_hal_tim_ex.c ****   /* Select the Commutation event source */
1934:Drivers/STM32F0xx_HAL_Driver/Src/stm32f0xx_hal_tim_ex.c ****   htim->Instance->CR2 &= ~TIM_CR2_CCUS;
 5660              		.loc 1 1934 7
 5661 006a FB68     		ldr	r3, [r7, #12]
 5662 006c 1B68     		ldr	r3, [r3]
 5663              		.loc 1 1934 23
 5664 006e 5A68     		ldr	r2, [r3, #4]
 5665              		.loc 1 1934 7
 5666 0070 FB68     		ldr	r3, [r7, #12]
 5667 0072 1B68     		ldr	r3, [r3]
 5668              		.loc 1 1934 23
 5669 0074 0421     		movs	r1, #4
 5670 0076 8A43     		bics	r2, r1
 5671 0078 5A60     		str	r2, [r3, #4]
1935:Drivers/STM32F0xx_HAL_Driver/Src/stm32f0xx_hal_tim_ex.c ****   htim->Instance->CR2 |= CommutationSource;
 5672              		.loc 1 1935 7
 5673 007a FB68     		ldr	r3, [r7, #12]
 5674 007c 1B68     		ldr	r3, [r3]
 5675              		.loc 1 1935 23
 5676 007e 5968     		ldr	r1, [r3, #4]
 5677              		.loc 1 1935 7
 5678 0080 FB68     		ldr	r3, [r7, #12]
 5679 0082 1B68     		ldr	r3, [r3]
 5680              		.loc 1 1935 23
 5681 0084 7A68     		ldr	r2, [r7, #4]
 5682 0086 0A43     		orrs	r2, r1
 5683 0088 5A60     		str	r2, [r3, #4]
1936:Drivers/STM32F0xx_HAL_Driver/Src/stm32f0xx_hal_tim_ex.c **** 
1937:Drivers/STM32F0xx_HAL_Driver/Src/stm32f0xx_hal_tim_ex.c ****   /* Enable the Commutation DMA Request */
1938:Drivers/STM32F0xx_HAL_Driver/Src/stm32f0xx_hal_tim_ex.c ****   /* Set the DMA Commutation Callback */
1939:Drivers/STM32F0xx_HAL_Driver/Src/stm32f0xx_hal_tim_ex.c ****   htim->hdma[TIM_DMA_ID_COMMUTATION]->XferCpltCallback = TIMEx_DMACommutationCplt;
 5684              		.loc 1 1939 13
 5685 008a FB68     		ldr	r3, [r7, #12]
 5686 008c 5B6B     		ldr	r3, [r3, #52]
 5687              		.loc 1 1939 56
 5688 008e 124A     		ldr	r2, .L376
ARM GAS  /var/folders/d0/cymppscj10lcmm48h781wrc80000gn/T//cc0qcKWW.s 			page 134


 5689 0090 9A62     		str	r2, [r3, #40]
1940:Drivers/STM32F0xx_HAL_Driver/Src/stm32f0xx_hal_tim_ex.c ****   htim->hdma[TIM_DMA_ID_COMMUTATION]->XferHalfCpltCallback = TIMEx_DMACommutationHalfCplt;
 5690              		.loc 1 1940 13
 5691 0092 FB68     		ldr	r3, [r7, #12]
 5692 0094 5B6B     		ldr	r3, [r3, #52]
 5693              		.loc 1 1940 60
 5694 0096 114A     		ldr	r2, .L376+4
 5695 0098 DA62     		str	r2, [r3, #44]
1941:Drivers/STM32F0xx_HAL_Driver/Src/stm32f0xx_hal_tim_ex.c ****   /* Set the DMA error callback */
1942:Drivers/STM32F0xx_HAL_Driver/Src/stm32f0xx_hal_tim_ex.c ****   htim->hdma[TIM_DMA_ID_COMMUTATION]->XferErrorCallback = TIM_DMAError;
 5696              		.loc 1 1942 13
 5697 009a FB68     		ldr	r3, [r7, #12]
 5698 009c 5B6B     		ldr	r3, [r3, #52]
 5699              		.loc 1 1942 57
 5700 009e 104A     		ldr	r2, .L376+8
 5701 00a0 1A63     		str	r2, [r3, #48]
1943:Drivers/STM32F0xx_HAL_Driver/Src/stm32f0xx_hal_tim_ex.c **** 
1944:Drivers/STM32F0xx_HAL_Driver/Src/stm32f0xx_hal_tim_ex.c ****   /* Disable Commutation Interrupt */
1945:Drivers/STM32F0xx_HAL_Driver/Src/stm32f0xx_hal_tim_ex.c ****   __HAL_TIM_DISABLE_IT(htim, TIM_IT_COM);
 5702              		.loc 1 1945 3
 5703 00a2 FB68     		ldr	r3, [r7, #12]
 5704 00a4 1B68     		ldr	r3, [r3]
 5705 00a6 DA68     		ldr	r2, [r3, #12]
 5706 00a8 FB68     		ldr	r3, [r7, #12]
 5707 00aa 1B68     		ldr	r3, [r3]
 5708 00ac 2021     		movs	r1, #32
 5709 00ae 8A43     		bics	r2, r1
 5710 00b0 DA60     		str	r2, [r3, #12]
1946:Drivers/STM32F0xx_HAL_Driver/Src/stm32f0xx_hal_tim_ex.c **** 
1947:Drivers/STM32F0xx_HAL_Driver/Src/stm32f0xx_hal_tim_ex.c ****   /* Enable the Commutation DMA Request */
1948:Drivers/STM32F0xx_HAL_Driver/Src/stm32f0xx_hal_tim_ex.c ****   __HAL_TIM_ENABLE_DMA(htim, TIM_DMA_COM);
 5711              		.loc 1 1948 3
 5712 00b2 FB68     		ldr	r3, [r7, #12]
 5713 00b4 1B68     		ldr	r3, [r3]
 5714 00b6 DA68     		ldr	r2, [r3, #12]
 5715 00b8 FB68     		ldr	r3, [r7, #12]
 5716 00ba 1B68     		ldr	r3, [r3]
 5717 00bc 8021     		movs	r1, #128
 5718 00be 8901     		lsls	r1, r1, #6
 5719 00c0 0A43     		orrs	r2, r1
 5720 00c2 DA60     		str	r2, [r3, #12]
1949:Drivers/STM32F0xx_HAL_Driver/Src/stm32f0xx_hal_tim_ex.c **** 
1950:Drivers/STM32F0xx_HAL_Driver/Src/stm32f0xx_hal_tim_ex.c ****   __HAL_UNLOCK(htim);
 5721              		.loc 1 1950 3
 5722 00c4 FB68     		ldr	r3, [r7, #12]
 5723 00c6 3C22     		movs	r2, #60
 5724 00c8 0021     		movs	r1, #0
 5725 00ca 9954     		strb	r1, [r3, r2]
1951:Drivers/STM32F0xx_HAL_Driver/Src/stm32f0xx_hal_tim_ex.c **** 
1952:Drivers/STM32F0xx_HAL_Driver/Src/stm32f0xx_hal_tim_ex.c ****   return HAL_OK;
 5726              		.loc 1 1952 10
 5727 00cc 0023     		movs	r3, #0
 5728              	.L373:
1953:Drivers/STM32F0xx_HAL_Driver/Src/stm32f0xx_hal_tim_ex.c **** }
 5729              		.loc 1 1953 1
 5730 00ce 1800     		movs	r0, r3
 5731 00d0 BD46     		mov	sp, r7
ARM GAS  /var/folders/d0/cymppscj10lcmm48h781wrc80000gn/T//cc0qcKWW.s 			page 135


 5732 00d2 04B0     		add	sp, sp, #16
 5733              		@ sp needed
 5734 00d4 80BD     		pop	{r7, pc}
 5735              	.L377:
 5736 00d6 C046     		.align	2
 5737              	.L376:
 5738 00d8 00000000 		.word	TIMEx_DMACommutationCplt
 5739 00dc 00000000 		.word	TIMEx_DMACommutationHalfCplt
 5740 00e0 00000000 		.word	TIM_DMAError
 5741              		.cfi_endproc
 5742              	.LFE68:
 5744              		.section	.text.HAL_TIMEx_MasterConfigSynchronization,"ax",%progbits
 5745              		.align	1
 5746              		.global	HAL_TIMEx_MasterConfigSynchronization
 5747              		.syntax unified
 5748              		.code	16
 5749              		.thumb_func
 5751              	HAL_TIMEx_MasterConfigSynchronization:
 5752              	.LFB69:
1954:Drivers/STM32F0xx_HAL_Driver/Src/stm32f0xx_hal_tim_ex.c **** 
1955:Drivers/STM32F0xx_HAL_Driver/Src/stm32f0xx_hal_tim_ex.c **** /**
1956:Drivers/STM32F0xx_HAL_Driver/Src/stm32f0xx_hal_tim_ex.c ****   * @brief  Configures the TIM in master mode.
1957:Drivers/STM32F0xx_HAL_Driver/Src/stm32f0xx_hal_tim_ex.c ****   * @param  htim TIM handle.
1958:Drivers/STM32F0xx_HAL_Driver/Src/stm32f0xx_hal_tim_ex.c ****   * @param  sMasterConfig pointer to a TIM_MasterConfigTypeDef structure that
1959:Drivers/STM32F0xx_HAL_Driver/Src/stm32f0xx_hal_tim_ex.c ****   *         contains the selected trigger output (TRGO) and the Master/Slave
1960:Drivers/STM32F0xx_HAL_Driver/Src/stm32f0xx_hal_tim_ex.c ****   *         mode.
1961:Drivers/STM32F0xx_HAL_Driver/Src/stm32f0xx_hal_tim_ex.c ****   * @retval HAL status
1962:Drivers/STM32F0xx_HAL_Driver/Src/stm32f0xx_hal_tim_ex.c ****   */
1963:Drivers/STM32F0xx_HAL_Driver/Src/stm32f0xx_hal_tim_ex.c **** HAL_StatusTypeDef HAL_TIMEx_MasterConfigSynchronization(TIM_HandleTypeDef *htim,
1964:Drivers/STM32F0xx_HAL_Driver/Src/stm32f0xx_hal_tim_ex.c ****                                                         TIM_MasterConfigTypeDef *sMasterConfig)
1965:Drivers/STM32F0xx_HAL_Driver/Src/stm32f0xx_hal_tim_ex.c **** {
 5753              		.loc 1 1965 1
 5754              		.cfi_startproc
 5755              		@ args = 0, pretend = 0, frame = 16
 5756              		@ frame_needed = 1, uses_anonymous_args = 0
 5757 0000 80B5     		push	{r7, lr}
 5758              	.LCFI87:
 5759              		.cfi_def_cfa_offset 8
 5760              		.cfi_offset 7, -8
 5761              		.cfi_offset 14, -4
 5762 0002 84B0     		sub	sp, sp, #16
 5763              	.LCFI88:
 5764              		.cfi_def_cfa_offset 24
 5765 0004 00AF     		add	r7, sp, #0
 5766              	.LCFI89:
 5767              		.cfi_def_cfa_register 7
 5768 0006 7860     		str	r0, [r7, #4]
 5769 0008 3960     		str	r1, [r7]
1966:Drivers/STM32F0xx_HAL_Driver/Src/stm32f0xx_hal_tim_ex.c ****   uint32_t tmpcr2;
1967:Drivers/STM32F0xx_HAL_Driver/Src/stm32f0xx_hal_tim_ex.c ****   uint32_t tmpsmcr;
1968:Drivers/STM32F0xx_HAL_Driver/Src/stm32f0xx_hal_tim_ex.c **** 
1969:Drivers/STM32F0xx_HAL_Driver/Src/stm32f0xx_hal_tim_ex.c ****   /* Check the parameters */
1970:Drivers/STM32F0xx_HAL_Driver/Src/stm32f0xx_hal_tim_ex.c ****   assert_param(IS_TIM_MASTER_INSTANCE(htim->Instance));
1971:Drivers/STM32F0xx_HAL_Driver/Src/stm32f0xx_hal_tim_ex.c ****   assert_param(IS_TIM_TRGO_SOURCE(sMasterConfig->MasterOutputTrigger));
1972:Drivers/STM32F0xx_HAL_Driver/Src/stm32f0xx_hal_tim_ex.c ****   assert_param(IS_TIM_MSM_STATE(sMasterConfig->MasterSlaveMode));
1973:Drivers/STM32F0xx_HAL_Driver/Src/stm32f0xx_hal_tim_ex.c **** 
1974:Drivers/STM32F0xx_HAL_Driver/Src/stm32f0xx_hal_tim_ex.c ****   /* Check input state */
ARM GAS  /var/folders/d0/cymppscj10lcmm48h781wrc80000gn/T//cc0qcKWW.s 			page 136


1975:Drivers/STM32F0xx_HAL_Driver/Src/stm32f0xx_hal_tim_ex.c ****   __HAL_LOCK(htim);
 5770              		.loc 1 1975 3
 5771 000a 7B68     		ldr	r3, [r7, #4]
 5772 000c 3C22     		movs	r2, #60
 5773 000e 9B5C     		ldrb	r3, [r3, r2]
 5774 0010 012B     		cmp	r3, #1
 5775 0012 01D1     		bne	.L379
 5776              		.loc 1 1975 3 is_stmt 0 discriminator 1
 5777 0014 0223     		movs	r3, #2
 5778 0016 41E0     		b	.L380
 5779              	.L379:
 5780              		.loc 1 1975 3 discriminator 2
 5781 0018 7B68     		ldr	r3, [r7, #4]
 5782 001a 3C22     		movs	r2, #60
 5783 001c 0121     		movs	r1, #1
 5784 001e 9954     		strb	r1, [r3, r2]
1976:Drivers/STM32F0xx_HAL_Driver/Src/stm32f0xx_hal_tim_ex.c **** 
1977:Drivers/STM32F0xx_HAL_Driver/Src/stm32f0xx_hal_tim_ex.c ****   /* Change the handler state */
1978:Drivers/STM32F0xx_HAL_Driver/Src/stm32f0xx_hal_tim_ex.c ****   htim->State = HAL_TIM_STATE_BUSY;
 5785              		.loc 1 1978 15 is_stmt 1 discriminator 2
 5786 0020 7B68     		ldr	r3, [r7, #4]
 5787 0022 3D22     		movs	r2, #61
 5788 0024 0221     		movs	r1, #2
 5789 0026 9954     		strb	r1, [r3, r2]
1979:Drivers/STM32F0xx_HAL_Driver/Src/stm32f0xx_hal_tim_ex.c **** 
1980:Drivers/STM32F0xx_HAL_Driver/Src/stm32f0xx_hal_tim_ex.c ****   /* Get the TIMx CR2 register value */
1981:Drivers/STM32F0xx_HAL_Driver/Src/stm32f0xx_hal_tim_ex.c ****   tmpcr2 = htim->Instance->CR2;
 5790              		.loc 1 1981 16 discriminator 2
 5791 0028 7B68     		ldr	r3, [r7, #4]
 5792 002a 1B68     		ldr	r3, [r3]
 5793              		.loc 1 1981 10 discriminator 2
 5794 002c 5B68     		ldr	r3, [r3, #4]
 5795 002e FB60     		str	r3, [r7, #12]
1982:Drivers/STM32F0xx_HAL_Driver/Src/stm32f0xx_hal_tim_ex.c **** 
1983:Drivers/STM32F0xx_HAL_Driver/Src/stm32f0xx_hal_tim_ex.c ****   /* Get the TIMx SMCR register value */
1984:Drivers/STM32F0xx_HAL_Driver/Src/stm32f0xx_hal_tim_ex.c ****   tmpsmcr = htim->Instance->SMCR;
 5796              		.loc 1 1984 17 discriminator 2
 5797 0030 7B68     		ldr	r3, [r7, #4]
 5798 0032 1B68     		ldr	r3, [r3]
 5799              		.loc 1 1984 11 discriminator 2
 5800 0034 9B68     		ldr	r3, [r3, #8]
 5801 0036 BB60     		str	r3, [r7, #8]
1985:Drivers/STM32F0xx_HAL_Driver/Src/stm32f0xx_hal_tim_ex.c **** 
1986:Drivers/STM32F0xx_HAL_Driver/Src/stm32f0xx_hal_tim_ex.c ****   /* Reset the MMS Bits */
1987:Drivers/STM32F0xx_HAL_Driver/Src/stm32f0xx_hal_tim_ex.c ****   tmpcr2 &= ~TIM_CR2_MMS;
 5802              		.loc 1 1987 10 discriminator 2
 5803 0038 FB68     		ldr	r3, [r7, #12]
 5804 003a 7022     		movs	r2, #112
 5805 003c 9343     		bics	r3, r2
 5806 003e FB60     		str	r3, [r7, #12]
1988:Drivers/STM32F0xx_HAL_Driver/Src/stm32f0xx_hal_tim_ex.c ****   /* Select the TRGO source */
1989:Drivers/STM32F0xx_HAL_Driver/Src/stm32f0xx_hal_tim_ex.c ****   tmpcr2 |=  sMasterConfig->MasterOutputTrigger;
 5807              		.loc 1 1989 27 discriminator 2
 5808 0040 3B68     		ldr	r3, [r7]
 5809 0042 1B68     		ldr	r3, [r3]
 5810              		.loc 1 1989 10 discriminator 2
 5811 0044 FA68     		ldr	r2, [r7, #12]
ARM GAS  /var/folders/d0/cymppscj10lcmm48h781wrc80000gn/T//cc0qcKWW.s 			page 137


 5812 0046 1343     		orrs	r3, r2
 5813 0048 FB60     		str	r3, [r7, #12]
1990:Drivers/STM32F0xx_HAL_Driver/Src/stm32f0xx_hal_tim_ex.c **** 
1991:Drivers/STM32F0xx_HAL_Driver/Src/stm32f0xx_hal_tim_ex.c ****   /* Update TIMx CR2 */
1992:Drivers/STM32F0xx_HAL_Driver/Src/stm32f0xx_hal_tim_ex.c ****   htim->Instance->CR2 = tmpcr2;
 5814              		.loc 1 1992 7 discriminator 2
 5815 004a 7B68     		ldr	r3, [r7, #4]
 5816 004c 1B68     		ldr	r3, [r3]
 5817              		.loc 1 1992 23 discriminator 2
 5818 004e FA68     		ldr	r2, [r7, #12]
 5819 0050 5A60     		str	r2, [r3, #4]
1993:Drivers/STM32F0xx_HAL_Driver/Src/stm32f0xx_hal_tim_ex.c **** 
1994:Drivers/STM32F0xx_HAL_Driver/Src/stm32f0xx_hal_tim_ex.c ****   if (IS_TIM_SLAVE_INSTANCE(htim->Instance))
 5820              		.loc 1 1994 7 discriminator 2
 5821 0052 7B68     		ldr	r3, [r7, #4]
 5822 0054 1B68     		ldr	r3, [r3]
 5823              		.loc 1 1994 6 discriminator 2
 5824 0056 134A     		ldr	r2, .L383
 5825 0058 9342     		cmp	r3, r2
 5826 005a 09D0     		beq	.L381
 5827              		.loc 1 1994 7 discriminator 1
 5828 005c 7B68     		ldr	r3, [r7, #4]
 5829 005e 1B68     		ldr	r3, [r3]
 5830 0060 114A     		ldr	r2, .L383+4
 5831 0062 9342     		cmp	r3, r2
 5832 0064 04D0     		beq	.L381
 5833              		.loc 1 1994 7 is_stmt 0 discriminator 2
 5834 0066 7B68     		ldr	r3, [r7, #4]
 5835 0068 1B68     		ldr	r3, [r3]
 5836 006a 104A     		ldr	r2, .L383+8
 5837 006c 9342     		cmp	r3, r2
 5838 006e 0CD1     		bne	.L382
 5839              	.L381:
1995:Drivers/STM32F0xx_HAL_Driver/Src/stm32f0xx_hal_tim_ex.c ****   {
1996:Drivers/STM32F0xx_HAL_Driver/Src/stm32f0xx_hal_tim_ex.c ****     /* Reset the MSM Bit */
1997:Drivers/STM32F0xx_HAL_Driver/Src/stm32f0xx_hal_tim_ex.c ****     tmpsmcr &= ~TIM_SMCR_MSM;
 5840              		.loc 1 1997 13 is_stmt 1
 5841 0070 BB68     		ldr	r3, [r7, #8]
 5842 0072 8022     		movs	r2, #128
 5843 0074 9343     		bics	r3, r2
 5844 0076 BB60     		str	r3, [r7, #8]
1998:Drivers/STM32F0xx_HAL_Driver/Src/stm32f0xx_hal_tim_ex.c ****     /* Set master mode */
1999:Drivers/STM32F0xx_HAL_Driver/Src/stm32f0xx_hal_tim_ex.c ****     tmpsmcr |= sMasterConfig->MasterSlaveMode;
 5845              		.loc 1 1999 29
 5846 0078 3B68     		ldr	r3, [r7]
 5847 007a 5B68     		ldr	r3, [r3, #4]
 5848              		.loc 1 1999 13
 5849 007c BA68     		ldr	r2, [r7, #8]
 5850 007e 1343     		orrs	r3, r2
 5851 0080 BB60     		str	r3, [r7, #8]
2000:Drivers/STM32F0xx_HAL_Driver/Src/stm32f0xx_hal_tim_ex.c **** 
2001:Drivers/STM32F0xx_HAL_Driver/Src/stm32f0xx_hal_tim_ex.c ****     /* Update TIMx SMCR */
2002:Drivers/STM32F0xx_HAL_Driver/Src/stm32f0xx_hal_tim_ex.c ****     htim->Instance->SMCR = tmpsmcr;
 5852              		.loc 1 2002 9
 5853 0082 7B68     		ldr	r3, [r7, #4]
 5854 0084 1B68     		ldr	r3, [r3]
 5855              		.loc 1 2002 26
ARM GAS  /var/folders/d0/cymppscj10lcmm48h781wrc80000gn/T//cc0qcKWW.s 			page 138


 5856 0086 BA68     		ldr	r2, [r7, #8]
 5857 0088 9A60     		str	r2, [r3, #8]
 5858              	.L382:
2003:Drivers/STM32F0xx_HAL_Driver/Src/stm32f0xx_hal_tim_ex.c ****   }
2004:Drivers/STM32F0xx_HAL_Driver/Src/stm32f0xx_hal_tim_ex.c **** 
2005:Drivers/STM32F0xx_HAL_Driver/Src/stm32f0xx_hal_tim_ex.c ****   /* Change the htim state */
2006:Drivers/STM32F0xx_HAL_Driver/Src/stm32f0xx_hal_tim_ex.c ****   htim->State = HAL_TIM_STATE_READY;
 5859              		.loc 1 2006 15
 5860 008a 7B68     		ldr	r3, [r7, #4]
 5861 008c 3D22     		movs	r2, #61
 5862 008e 0121     		movs	r1, #1
 5863 0090 9954     		strb	r1, [r3, r2]
2007:Drivers/STM32F0xx_HAL_Driver/Src/stm32f0xx_hal_tim_ex.c **** 
2008:Drivers/STM32F0xx_HAL_Driver/Src/stm32f0xx_hal_tim_ex.c ****   __HAL_UNLOCK(htim);
 5864              		.loc 1 2008 3
 5865 0092 7B68     		ldr	r3, [r7, #4]
 5866 0094 3C22     		movs	r2, #60
 5867 0096 0021     		movs	r1, #0
 5868 0098 9954     		strb	r1, [r3, r2]
2009:Drivers/STM32F0xx_HAL_Driver/Src/stm32f0xx_hal_tim_ex.c **** 
2010:Drivers/STM32F0xx_HAL_Driver/Src/stm32f0xx_hal_tim_ex.c ****   return HAL_OK;
 5869              		.loc 1 2010 10
 5870 009a 0023     		movs	r3, #0
 5871              	.L380:
2011:Drivers/STM32F0xx_HAL_Driver/Src/stm32f0xx_hal_tim_ex.c **** }
 5872              		.loc 1 2011 1
 5873 009c 1800     		movs	r0, r3
 5874 009e BD46     		mov	sp, r7
 5875 00a0 04B0     		add	sp, sp, #16
 5876              		@ sp needed
 5877 00a2 80BD     		pop	{r7, pc}
 5878              	.L384:
 5879              		.align	2
 5880              	.L383:
 5881 00a4 002C0140 		.word	1073818624
 5882 00a8 00040040 		.word	1073742848
 5883 00ac 00400140 		.word	1073823744
 5884              		.cfi_endproc
 5885              	.LFE69:
 5887              		.section	.text.HAL_TIMEx_ConfigBreakDeadTime,"ax",%progbits
 5888              		.align	1
 5889              		.global	HAL_TIMEx_ConfigBreakDeadTime
 5890              		.syntax unified
 5891              		.code	16
 5892              		.thumb_func
 5894              	HAL_TIMEx_ConfigBreakDeadTime:
 5895              	.LFB70:
2012:Drivers/STM32F0xx_HAL_Driver/Src/stm32f0xx_hal_tim_ex.c **** 
2013:Drivers/STM32F0xx_HAL_Driver/Src/stm32f0xx_hal_tim_ex.c **** /**
2014:Drivers/STM32F0xx_HAL_Driver/Src/stm32f0xx_hal_tim_ex.c ****   * @brief  Configures the Break feature, dead time, Lock level, OSSI/OSSR State
2015:Drivers/STM32F0xx_HAL_Driver/Src/stm32f0xx_hal_tim_ex.c ****   *         and the AOE(automatic output enable).
2016:Drivers/STM32F0xx_HAL_Driver/Src/stm32f0xx_hal_tim_ex.c ****   * @param  htim TIM handle
2017:Drivers/STM32F0xx_HAL_Driver/Src/stm32f0xx_hal_tim_ex.c ****   * @param  sBreakDeadTimeConfig pointer to a TIM_ConfigBreakDeadConfigTypeDef structure that
2018:Drivers/STM32F0xx_HAL_Driver/Src/stm32f0xx_hal_tim_ex.c ****   *         contains the BDTR Register configuration  information for the TIM peripheral.
2019:Drivers/STM32F0xx_HAL_Driver/Src/stm32f0xx_hal_tim_ex.c ****   * @note   Interrupts can be generated when an active level is detected on the
2020:Drivers/STM32F0xx_HAL_Driver/Src/stm32f0xx_hal_tim_ex.c ****   *         break input, the break 2 input or the system break input. Break
2021:Drivers/STM32F0xx_HAL_Driver/Src/stm32f0xx_hal_tim_ex.c ****   *         interrupt can be enabled by calling the @ref __HAL_TIM_ENABLE_IT macro.
ARM GAS  /var/folders/d0/cymppscj10lcmm48h781wrc80000gn/T//cc0qcKWW.s 			page 139


2022:Drivers/STM32F0xx_HAL_Driver/Src/stm32f0xx_hal_tim_ex.c ****   * @retval HAL status
2023:Drivers/STM32F0xx_HAL_Driver/Src/stm32f0xx_hal_tim_ex.c ****   */
2024:Drivers/STM32F0xx_HAL_Driver/Src/stm32f0xx_hal_tim_ex.c **** HAL_StatusTypeDef HAL_TIMEx_ConfigBreakDeadTime(TIM_HandleTypeDef *htim,
2025:Drivers/STM32F0xx_HAL_Driver/Src/stm32f0xx_hal_tim_ex.c ****                                                 TIM_BreakDeadTimeConfigTypeDef *sBreakDeadTimeConfi
2026:Drivers/STM32F0xx_HAL_Driver/Src/stm32f0xx_hal_tim_ex.c **** {
 5896              		.loc 1 2026 1
 5897              		.cfi_startproc
 5898              		@ args = 0, pretend = 0, frame = 16
 5899              		@ frame_needed = 1, uses_anonymous_args = 0
 5900 0000 80B5     		push	{r7, lr}
 5901              	.LCFI90:
 5902              		.cfi_def_cfa_offset 8
 5903              		.cfi_offset 7, -8
 5904              		.cfi_offset 14, -4
 5905 0002 84B0     		sub	sp, sp, #16
 5906              	.LCFI91:
 5907              		.cfi_def_cfa_offset 24
 5908 0004 00AF     		add	r7, sp, #0
 5909              	.LCFI92:
 5910              		.cfi_def_cfa_register 7
 5911 0006 7860     		str	r0, [r7, #4]
 5912 0008 3960     		str	r1, [r7]
2027:Drivers/STM32F0xx_HAL_Driver/Src/stm32f0xx_hal_tim_ex.c ****   /* Keep this variable initialized to 0 as it is used to configure BDTR register */
2028:Drivers/STM32F0xx_HAL_Driver/Src/stm32f0xx_hal_tim_ex.c ****   uint32_t tmpbdtr = 0U;
 5913              		.loc 1 2028 12
 5914 000a 0023     		movs	r3, #0
 5915 000c FB60     		str	r3, [r7, #12]
2029:Drivers/STM32F0xx_HAL_Driver/Src/stm32f0xx_hal_tim_ex.c **** 
2030:Drivers/STM32F0xx_HAL_Driver/Src/stm32f0xx_hal_tim_ex.c ****   /* Check the parameters */
2031:Drivers/STM32F0xx_HAL_Driver/Src/stm32f0xx_hal_tim_ex.c ****   assert_param(IS_TIM_BREAK_INSTANCE(htim->Instance));
2032:Drivers/STM32F0xx_HAL_Driver/Src/stm32f0xx_hal_tim_ex.c ****   assert_param(IS_TIM_OSSR_STATE(sBreakDeadTimeConfig->OffStateRunMode));
2033:Drivers/STM32F0xx_HAL_Driver/Src/stm32f0xx_hal_tim_ex.c ****   assert_param(IS_TIM_OSSI_STATE(sBreakDeadTimeConfig->OffStateIDLEMode));
2034:Drivers/STM32F0xx_HAL_Driver/Src/stm32f0xx_hal_tim_ex.c ****   assert_param(IS_TIM_LOCK_LEVEL(sBreakDeadTimeConfig->LockLevel));
2035:Drivers/STM32F0xx_HAL_Driver/Src/stm32f0xx_hal_tim_ex.c ****   assert_param(IS_TIM_DEADTIME(sBreakDeadTimeConfig->DeadTime));
2036:Drivers/STM32F0xx_HAL_Driver/Src/stm32f0xx_hal_tim_ex.c ****   assert_param(IS_TIM_BREAK_STATE(sBreakDeadTimeConfig->BreakState));
2037:Drivers/STM32F0xx_HAL_Driver/Src/stm32f0xx_hal_tim_ex.c ****   assert_param(IS_TIM_BREAK_POLARITY(sBreakDeadTimeConfig->BreakPolarity));
2038:Drivers/STM32F0xx_HAL_Driver/Src/stm32f0xx_hal_tim_ex.c ****   assert_param(IS_TIM_AUTOMATIC_OUTPUT_STATE(sBreakDeadTimeConfig->AutomaticOutput));
2039:Drivers/STM32F0xx_HAL_Driver/Src/stm32f0xx_hal_tim_ex.c **** 
2040:Drivers/STM32F0xx_HAL_Driver/Src/stm32f0xx_hal_tim_ex.c ****   /* Check input state */
2041:Drivers/STM32F0xx_HAL_Driver/Src/stm32f0xx_hal_tim_ex.c ****   __HAL_LOCK(htim);
 5916              		.loc 1 2041 3
 5917 000e 7B68     		ldr	r3, [r7, #4]
 5918 0010 3C22     		movs	r2, #60
 5919 0012 9B5C     		ldrb	r3, [r3, r2]
 5920 0014 012B     		cmp	r3, #1
 5921 0016 01D1     		bne	.L386
 5922              		.loc 1 2041 3 is_stmt 0 discriminator 1
 5923 0018 0223     		movs	r3, #2
 5924 001a 3EE0     		b	.L387
 5925              	.L386:
 5926              		.loc 1 2041 3 discriminator 2
 5927 001c 7B68     		ldr	r3, [r7, #4]
 5928 001e 3C22     		movs	r2, #60
 5929 0020 0121     		movs	r1, #1
 5930 0022 9954     		strb	r1, [r3, r2]
2042:Drivers/STM32F0xx_HAL_Driver/Src/stm32f0xx_hal_tim_ex.c **** 
2043:Drivers/STM32F0xx_HAL_Driver/Src/stm32f0xx_hal_tim_ex.c ****   /* Set the Lock level, the Break enable Bit and the Polarity, the OSSR State,
ARM GAS  /var/folders/d0/cymppscj10lcmm48h781wrc80000gn/T//cc0qcKWW.s 			page 140


2044:Drivers/STM32F0xx_HAL_Driver/Src/stm32f0xx_hal_tim_ex.c ****      the OSSI State, the dead time value and the Automatic Output Enable Bit */
2045:Drivers/STM32F0xx_HAL_Driver/Src/stm32f0xx_hal_tim_ex.c **** 
2046:Drivers/STM32F0xx_HAL_Driver/Src/stm32f0xx_hal_tim_ex.c ****   /* Set the BDTR bits */
2047:Drivers/STM32F0xx_HAL_Driver/Src/stm32f0xx_hal_tim_ex.c ****   MODIFY_REG(tmpbdtr, TIM_BDTR_DTG, sBreakDeadTimeConfig->DeadTime);
 5931              		.loc 1 2047 3 is_stmt 1 discriminator 2
 5932 0024 FB68     		ldr	r3, [r7, #12]
 5933 0026 FF22     		movs	r2, #255
 5934 0028 9343     		bics	r3, r2
 5935 002a 1A00     		movs	r2, r3
 5936 002c 3B68     		ldr	r3, [r7]
 5937 002e DB68     		ldr	r3, [r3, #12]
 5938 0030 1343     		orrs	r3, r2
 5939 0032 FB60     		str	r3, [r7, #12]
2048:Drivers/STM32F0xx_HAL_Driver/Src/stm32f0xx_hal_tim_ex.c ****   MODIFY_REG(tmpbdtr, TIM_BDTR_LOCK, sBreakDeadTimeConfig->LockLevel);
 5940              		.loc 1 2048 3 discriminator 2
 5941 0034 FB68     		ldr	r3, [r7, #12]
 5942 0036 1B4A     		ldr	r2, .L388
 5943 0038 1A40     		ands	r2, r3
 5944 003a 3B68     		ldr	r3, [r7]
 5945 003c 9B68     		ldr	r3, [r3, #8]
 5946 003e 1343     		orrs	r3, r2
 5947 0040 FB60     		str	r3, [r7, #12]
2049:Drivers/STM32F0xx_HAL_Driver/Src/stm32f0xx_hal_tim_ex.c ****   MODIFY_REG(tmpbdtr, TIM_BDTR_OSSI, sBreakDeadTimeConfig->OffStateIDLEMode);
 5948              		.loc 1 2049 3 discriminator 2
 5949 0042 FB68     		ldr	r3, [r7, #12]
 5950 0044 184A     		ldr	r2, .L388+4
 5951 0046 1A40     		ands	r2, r3
 5952 0048 3B68     		ldr	r3, [r7]
 5953 004a 5B68     		ldr	r3, [r3, #4]
 5954 004c 1343     		orrs	r3, r2
 5955 004e FB60     		str	r3, [r7, #12]
2050:Drivers/STM32F0xx_HAL_Driver/Src/stm32f0xx_hal_tim_ex.c ****   MODIFY_REG(tmpbdtr, TIM_BDTR_OSSR, sBreakDeadTimeConfig->OffStateRunMode);
 5956              		.loc 1 2050 3 discriminator 2
 5957 0050 FB68     		ldr	r3, [r7, #12]
 5958 0052 164A     		ldr	r2, .L388+8
 5959 0054 1A40     		ands	r2, r3
 5960 0056 3B68     		ldr	r3, [r7]
 5961 0058 1B68     		ldr	r3, [r3]
 5962 005a 1343     		orrs	r3, r2
 5963 005c FB60     		str	r3, [r7, #12]
2051:Drivers/STM32F0xx_HAL_Driver/Src/stm32f0xx_hal_tim_ex.c ****   MODIFY_REG(tmpbdtr, TIM_BDTR_BKE, sBreakDeadTimeConfig->BreakState);
 5964              		.loc 1 2051 3 discriminator 2
 5965 005e FB68     		ldr	r3, [r7, #12]
 5966 0060 134A     		ldr	r2, .L388+12
 5967 0062 1A40     		ands	r2, r3
 5968 0064 3B68     		ldr	r3, [r7]
 5969 0066 1B69     		ldr	r3, [r3, #16]
 5970 0068 1343     		orrs	r3, r2
 5971 006a FB60     		str	r3, [r7, #12]
2052:Drivers/STM32F0xx_HAL_Driver/Src/stm32f0xx_hal_tim_ex.c ****   MODIFY_REG(tmpbdtr, TIM_BDTR_BKP, sBreakDeadTimeConfig->BreakPolarity);
 5972              		.loc 1 2052 3 discriminator 2
 5973 006c FB68     		ldr	r3, [r7, #12]
 5974 006e 114A     		ldr	r2, .L388+16
 5975 0070 1A40     		ands	r2, r3
 5976 0072 3B68     		ldr	r3, [r7]
 5977 0074 5B69     		ldr	r3, [r3, #20]
 5978 0076 1343     		orrs	r3, r2
ARM GAS  /var/folders/d0/cymppscj10lcmm48h781wrc80000gn/T//cc0qcKWW.s 			page 141


 5979 0078 FB60     		str	r3, [r7, #12]
2053:Drivers/STM32F0xx_HAL_Driver/Src/stm32f0xx_hal_tim_ex.c ****   MODIFY_REG(tmpbdtr, TIM_BDTR_AOE, sBreakDeadTimeConfig->AutomaticOutput);
 5980              		.loc 1 2053 3 discriminator 2
 5981 007a FB68     		ldr	r3, [r7, #12]
 5982 007c 0E4A     		ldr	r2, .L388+20
 5983 007e 1A40     		ands	r2, r3
 5984 0080 3B68     		ldr	r3, [r7]
 5985 0082 DB69     		ldr	r3, [r3, #28]
 5986 0084 1343     		orrs	r3, r2
 5987 0086 FB60     		str	r3, [r7, #12]
2054:Drivers/STM32F0xx_HAL_Driver/Src/stm32f0xx_hal_tim_ex.c **** 
2055:Drivers/STM32F0xx_HAL_Driver/Src/stm32f0xx_hal_tim_ex.c **** 
2056:Drivers/STM32F0xx_HAL_Driver/Src/stm32f0xx_hal_tim_ex.c ****   /* Set TIMx_BDTR */
2057:Drivers/STM32F0xx_HAL_Driver/Src/stm32f0xx_hal_tim_ex.c ****   htim->Instance->BDTR = tmpbdtr;
 5988              		.loc 1 2057 7 discriminator 2
 5989 0088 7B68     		ldr	r3, [r7, #4]
 5990 008a 1B68     		ldr	r3, [r3]
 5991              		.loc 1 2057 24 discriminator 2
 5992 008c FA68     		ldr	r2, [r7, #12]
 5993 008e 5A64     		str	r2, [r3, #68]
2058:Drivers/STM32F0xx_HAL_Driver/Src/stm32f0xx_hal_tim_ex.c **** 
2059:Drivers/STM32F0xx_HAL_Driver/Src/stm32f0xx_hal_tim_ex.c ****   __HAL_UNLOCK(htim);
 5994              		.loc 1 2059 3 discriminator 2
 5995 0090 7B68     		ldr	r3, [r7, #4]
 5996 0092 3C22     		movs	r2, #60
 5997 0094 0021     		movs	r1, #0
 5998 0096 9954     		strb	r1, [r3, r2]
2060:Drivers/STM32F0xx_HAL_Driver/Src/stm32f0xx_hal_tim_ex.c **** 
2061:Drivers/STM32F0xx_HAL_Driver/Src/stm32f0xx_hal_tim_ex.c ****   return HAL_OK;
 5999              		.loc 1 2061 10 discriminator 2
 6000 0098 0023     		movs	r3, #0
 6001              	.L387:
2062:Drivers/STM32F0xx_HAL_Driver/Src/stm32f0xx_hal_tim_ex.c **** }
 6002              		.loc 1 2062 1
 6003 009a 1800     		movs	r0, r3
 6004 009c BD46     		mov	sp, r7
 6005 009e 04B0     		add	sp, sp, #16
 6006              		@ sp needed
 6007 00a0 80BD     		pop	{r7, pc}
 6008              	.L389:
 6009 00a2 C046     		.align	2
 6010              	.L388:
 6011 00a4 FFFCFFFF 		.word	-769
 6012 00a8 FFFBFFFF 		.word	-1025
 6013 00ac FFF7FFFF 		.word	-2049
 6014 00b0 FFEFFFFF 		.word	-4097
 6015 00b4 FFDFFFFF 		.word	-8193
 6016 00b8 FFBFFFFF 		.word	-16385
 6017              		.cfi_endproc
 6018              	.LFE70:
 6020              		.section	.text.HAL_TIMEx_RemapConfig,"ax",%progbits
 6021              		.align	1
 6022              		.global	HAL_TIMEx_RemapConfig
 6023              		.syntax unified
 6024              		.code	16
 6025              		.thumb_func
 6027              	HAL_TIMEx_RemapConfig:
ARM GAS  /var/folders/d0/cymppscj10lcmm48h781wrc80000gn/T//cc0qcKWW.s 			page 142


 6028              	.LFB71:
2063:Drivers/STM32F0xx_HAL_Driver/Src/stm32f0xx_hal_tim_ex.c **** 
2064:Drivers/STM32F0xx_HAL_Driver/Src/stm32f0xx_hal_tim_ex.c **** /**
2065:Drivers/STM32F0xx_HAL_Driver/Src/stm32f0xx_hal_tim_ex.c ****   * @brief  Configures the TIMx Remapping input capabilities.
2066:Drivers/STM32F0xx_HAL_Driver/Src/stm32f0xx_hal_tim_ex.c ****   * @param  htim TIM handle.
2067:Drivers/STM32F0xx_HAL_Driver/Src/stm32f0xx_hal_tim_ex.c ****   * @param  Remap specifies the TIM remapping source.
2068:Drivers/STM32F0xx_HAL_Driver/Src/stm32f0xx_hal_tim_ex.c ****   *         For TIM14, the parameter can have the following values:
2069:Drivers/STM32F0xx_HAL_Driver/Src/stm32f0xx_hal_tim_ex.c ****   *           @arg TIM_TIM14_GPIO:    TIM14 TI1 is connected to GPIO
2070:Drivers/STM32F0xx_HAL_Driver/Src/stm32f0xx_hal_tim_ex.c ****   *           @arg TIM_TIM14_RTC:     TIM14 TI1 is connected to RTC_clock
2071:Drivers/STM32F0xx_HAL_Driver/Src/stm32f0xx_hal_tim_ex.c ****   *           @arg TIM_TIM14_HSE:     TIM14 TI1 is connected to HSE/32
2072:Drivers/STM32F0xx_HAL_Driver/Src/stm32f0xx_hal_tim_ex.c ****   *           @arg TIM_TIM14_MCO:     TIM14 TI1 is connected to MCO
2073:Drivers/STM32F0xx_HAL_Driver/Src/stm32f0xx_hal_tim_ex.c ****   *
2074:Drivers/STM32F0xx_HAL_Driver/Src/stm32f0xx_hal_tim_ex.c ****   * @retval HAL status
2075:Drivers/STM32F0xx_HAL_Driver/Src/stm32f0xx_hal_tim_ex.c ****   */
2076:Drivers/STM32F0xx_HAL_Driver/Src/stm32f0xx_hal_tim_ex.c **** HAL_StatusTypeDef HAL_TIMEx_RemapConfig(TIM_HandleTypeDef *htim, uint32_t Remap)
2077:Drivers/STM32F0xx_HAL_Driver/Src/stm32f0xx_hal_tim_ex.c **** {
 6029              		.loc 1 2077 1
 6030              		.cfi_startproc
 6031              		@ args = 0, pretend = 0, frame = 8
 6032              		@ frame_needed = 1, uses_anonymous_args = 0
 6033 0000 80B5     		push	{r7, lr}
 6034              	.LCFI93:
 6035              		.cfi_def_cfa_offset 8
 6036              		.cfi_offset 7, -8
 6037              		.cfi_offset 14, -4
 6038 0002 82B0     		sub	sp, sp, #8
 6039              	.LCFI94:
 6040              		.cfi_def_cfa_offset 16
 6041 0004 00AF     		add	r7, sp, #0
 6042              	.LCFI95:
 6043              		.cfi_def_cfa_register 7
 6044 0006 7860     		str	r0, [r7, #4]
 6045 0008 3960     		str	r1, [r7]
2078:Drivers/STM32F0xx_HAL_Driver/Src/stm32f0xx_hal_tim_ex.c ****   __HAL_LOCK(htim);
 6046              		.loc 1 2078 3
 6047 000a 7B68     		ldr	r3, [r7, #4]
 6048 000c 3C22     		movs	r2, #60
 6049 000e 9B5C     		ldrb	r3, [r3, r2]
 6050 0010 012B     		cmp	r3, #1
 6051 0012 01D1     		bne	.L391
 6052              		.loc 1 2078 3 is_stmt 0 discriminator 1
 6053 0014 0223     		movs	r3, #2
 6054 0016 0CE0     		b	.L392
 6055              	.L391:
 6056              		.loc 1 2078 3 discriminator 2
 6057 0018 7B68     		ldr	r3, [r7, #4]
 6058 001a 3C22     		movs	r2, #60
 6059 001c 0121     		movs	r1, #1
 6060 001e 9954     		strb	r1, [r3, r2]
2079:Drivers/STM32F0xx_HAL_Driver/Src/stm32f0xx_hal_tim_ex.c **** 
2080:Drivers/STM32F0xx_HAL_Driver/Src/stm32f0xx_hal_tim_ex.c ****   /* Check parameters */
2081:Drivers/STM32F0xx_HAL_Driver/Src/stm32f0xx_hal_tim_ex.c ****   assert_param(IS_TIM_REMAP(htim->Instance, Remap));
2082:Drivers/STM32F0xx_HAL_Driver/Src/stm32f0xx_hal_tim_ex.c **** 
2083:Drivers/STM32F0xx_HAL_Driver/Src/stm32f0xx_hal_tim_ex.c ****   /* Set the Timer remapping configuration */
2084:Drivers/STM32F0xx_HAL_Driver/Src/stm32f0xx_hal_tim_ex.c ****   WRITE_REG(htim->Instance->OR, Remap);
 6061              		.loc 1 2084 3 is_stmt 1 discriminator 2
 6062 0020 7B68     		ldr	r3, [r7, #4]
ARM GAS  /var/folders/d0/cymppscj10lcmm48h781wrc80000gn/T//cc0qcKWW.s 			page 143


 6063 0022 1B68     		ldr	r3, [r3]
 6064 0024 3A68     		ldr	r2, [r7]
 6065 0026 1A65     		str	r2, [r3, #80]
2085:Drivers/STM32F0xx_HAL_Driver/Src/stm32f0xx_hal_tim_ex.c **** 
2086:Drivers/STM32F0xx_HAL_Driver/Src/stm32f0xx_hal_tim_ex.c ****   __HAL_UNLOCK(htim);
 6066              		.loc 1 2086 3 discriminator 2
 6067 0028 7B68     		ldr	r3, [r7, #4]
 6068 002a 3C22     		movs	r2, #60
 6069 002c 0021     		movs	r1, #0
 6070 002e 9954     		strb	r1, [r3, r2]
2087:Drivers/STM32F0xx_HAL_Driver/Src/stm32f0xx_hal_tim_ex.c **** 
2088:Drivers/STM32F0xx_HAL_Driver/Src/stm32f0xx_hal_tim_ex.c ****   return HAL_OK;
 6071              		.loc 1 2088 10 discriminator 2
 6072 0030 0023     		movs	r3, #0
 6073              	.L392:
2089:Drivers/STM32F0xx_HAL_Driver/Src/stm32f0xx_hal_tim_ex.c **** }
 6074              		.loc 1 2089 1
 6075 0032 1800     		movs	r0, r3
 6076 0034 BD46     		mov	sp, r7
 6077 0036 02B0     		add	sp, sp, #8
 6078              		@ sp needed
 6079 0038 80BD     		pop	{r7, pc}
 6080              		.cfi_endproc
 6081              	.LFE71:
 6083              		.section	.text.HAL_TIMEx_CommutCallback,"ax",%progbits
 6084              		.align	1
 6085              		.weak	HAL_TIMEx_CommutCallback
 6086              		.syntax unified
 6087              		.code	16
 6088              		.thumb_func
 6090              	HAL_TIMEx_CommutCallback:
 6091              	.LFB72:
2090:Drivers/STM32F0xx_HAL_Driver/Src/stm32f0xx_hal_tim_ex.c **** 
2091:Drivers/STM32F0xx_HAL_Driver/Src/stm32f0xx_hal_tim_ex.c **** /**
2092:Drivers/STM32F0xx_HAL_Driver/Src/stm32f0xx_hal_tim_ex.c ****   * @}
2093:Drivers/STM32F0xx_HAL_Driver/Src/stm32f0xx_hal_tim_ex.c ****   */
2094:Drivers/STM32F0xx_HAL_Driver/Src/stm32f0xx_hal_tim_ex.c **** 
2095:Drivers/STM32F0xx_HAL_Driver/Src/stm32f0xx_hal_tim_ex.c **** /** @defgroup TIMEx_Exported_Functions_Group6 Extended Callbacks functions
2096:Drivers/STM32F0xx_HAL_Driver/Src/stm32f0xx_hal_tim_ex.c ****   * @brief    Extended Callbacks functions
2097:Drivers/STM32F0xx_HAL_Driver/Src/stm32f0xx_hal_tim_ex.c ****   *
2098:Drivers/STM32F0xx_HAL_Driver/Src/stm32f0xx_hal_tim_ex.c **** @verbatim
2099:Drivers/STM32F0xx_HAL_Driver/Src/stm32f0xx_hal_tim_ex.c ****   ==============================================================================
2100:Drivers/STM32F0xx_HAL_Driver/Src/stm32f0xx_hal_tim_ex.c ****                     ##### Extended Callbacks functions #####
2101:Drivers/STM32F0xx_HAL_Driver/Src/stm32f0xx_hal_tim_ex.c ****   ==============================================================================
2102:Drivers/STM32F0xx_HAL_Driver/Src/stm32f0xx_hal_tim_ex.c ****   [..]
2103:Drivers/STM32F0xx_HAL_Driver/Src/stm32f0xx_hal_tim_ex.c ****     This section provides Extended TIM callback functions:
2104:Drivers/STM32F0xx_HAL_Driver/Src/stm32f0xx_hal_tim_ex.c ****     (+) Timer Commutation callback
2105:Drivers/STM32F0xx_HAL_Driver/Src/stm32f0xx_hal_tim_ex.c ****     (+) Timer Break callback
2106:Drivers/STM32F0xx_HAL_Driver/Src/stm32f0xx_hal_tim_ex.c **** 
2107:Drivers/STM32F0xx_HAL_Driver/Src/stm32f0xx_hal_tim_ex.c **** @endverbatim
2108:Drivers/STM32F0xx_HAL_Driver/Src/stm32f0xx_hal_tim_ex.c ****   * @{
2109:Drivers/STM32F0xx_HAL_Driver/Src/stm32f0xx_hal_tim_ex.c ****   */
2110:Drivers/STM32F0xx_HAL_Driver/Src/stm32f0xx_hal_tim_ex.c **** 
2111:Drivers/STM32F0xx_HAL_Driver/Src/stm32f0xx_hal_tim_ex.c **** /**
2112:Drivers/STM32F0xx_HAL_Driver/Src/stm32f0xx_hal_tim_ex.c ****   * @brief  Hall commutation changed callback in non-blocking mode
2113:Drivers/STM32F0xx_HAL_Driver/Src/stm32f0xx_hal_tim_ex.c ****   * @param  htim TIM handle
2114:Drivers/STM32F0xx_HAL_Driver/Src/stm32f0xx_hal_tim_ex.c ****   * @retval None
ARM GAS  /var/folders/d0/cymppscj10lcmm48h781wrc80000gn/T//cc0qcKWW.s 			page 144


2115:Drivers/STM32F0xx_HAL_Driver/Src/stm32f0xx_hal_tim_ex.c ****   */
2116:Drivers/STM32F0xx_HAL_Driver/Src/stm32f0xx_hal_tim_ex.c **** __weak void HAL_TIMEx_CommutCallback(TIM_HandleTypeDef *htim)
2117:Drivers/STM32F0xx_HAL_Driver/Src/stm32f0xx_hal_tim_ex.c **** {
 6092              		.loc 1 2117 1
 6093              		.cfi_startproc
 6094              		@ args = 0, pretend = 0, frame = 8
 6095              		@ frame_needed = 1, uses_anonymous_args = 0
 6096 0000 80B5     		push	{r7, lr}
 6097              	.LCFI96:
 6098              		.cfi_def_cfa_offset 8
 6099              		.cfi_offset 7, -8
 6100              		.cfi_offset 14, -4
 6101 0002 82B0     		sub	sp, sp, #8
 6102              	.LCFI97:
 6103              		.cfi_def_cfa_offset 16
 6104 0004 00AF     		add	r7, sp, #0
 6105              	.LCFI98:
 6106              		.cfi_def_cfa_register 7
 6107 0006 7860     		str	r0, [r7, #4]
2118:Drivers/STM32F0xx_HAL_Driver/Src/stm32f0xx_hal_tim_ex.c ****   /* Prevent unused argument(s) compilation warning */
2119:Drivers/STM32F0xx_HAL_Driver/Src/stm32f0xx_hal_tim_ex.c ****   UNUSED(htim);
2120:Drivers/STM32F0xx_HAL_Driver/Src/stm32f0xx_hal_tim_ex.c **** 
2121:Drivers/STM32F0xx_HAL_Driver/Src/stm32f0xx_hal_tim_ex.c ****   /* NOTE : This function should not be modified, when the callback is needed,
2122:Drivers/STM32F0xx_HAL_Driver/Src/stm32f0xx_hal_tim_ex.c ****             the HAL_TIMEx_CommutCallback could be implemented in the user file
2123:Drivers/STM32F0xx_HAL_Driver/Src/stm32f0xx_hal_tim_ex.c ****    */
2124:Drivers/STM32F0xx_HAL_Driver/Src/stm32f0xx_hal_tim_ex.c **** }
 6108              		.loc 1 2124 1
 6109 0008 C046     		nop
 6110 000a BD46     		mov	sp, r7
 6111 000c 02B0     		add	sp, sp, #8
 6112              		@ sp needed
 6113 000e 80BD     		pop	{r7, pc}
 6114              		.cfi_endproc
 6115              	.LFE72:
 6117              		.section	.text.HAL_TIMEx_CommutHalfCpltCallback,"ax",%progbits
 6118              		.align	1
 6119              		.weak	HAL_TIMEx_CommutHalfCpltCallback
 6120              		.syntax unified
 6121              		.code	16
 6122              		.thumb_func
 6124              	HAL_TIMEx_CommutHalfCpltCallback:
 6125              	.LFB73:
2125:Drivers/STM32F0xx_HAL_Driver/Src/stm32f0xx_hal_tim_ex.c **** /**
2126:Drivers/STM32F0xx_HAL_Driver/Src/stm32f0xx_hal_tim_ex.c ****   * @brief  Hall commutation changed half complete callback in non-blocking mode
2127:Drivers/STM32F0xx_HAL_Driver/Src/stm32f0xx_hal_tim_ex.c ****   * @param  htim TIM handle
2128:Drivers/STM32F0xx_HAL_Driver/Src/stm32f0xx_hal_tim_ex.c ****   * @retval None
2129:Drivers/STM32F0xx_HAL_Driver/Src/stm32f0xx_hal_tim_ex.c ****   */
2130:Drivers/STM32F0xx_HAL_Driver/Src/stm32f0xx_hal_tim_ex.c **** __weak void HAL_TIMEx_CommutHalfCpltCallback(TIM_HandleTypeDef *htim)
2131:Drivers/STM32F0xx_HAL_Driver/Src/stm32f0xx_hal_tim_ex.c **** {
 6126              		.loc 1 2131 1
 6127              		.cfi_startproc
 6128              		@ args = 0, pretend = 0, frame = 8
 6129              		@ frame_needed = 1, uses_anonymous_args = 0
 6130 0000 80B5     		push	{r7, lr}
 6131              	.LCFI99:
 6132              		.cfi_def_cfa_offset 8
 6133              		.cfi_offset 7, -8
ARM GAS  /var/folders/d0/cymppscj10lcmm48h781wrc80000gn/T//cc0qcKWW.s 			page 145


 6134              		.cfi_offset 14, -4
 6135 0002 82B0     		sub	sp, sp, #8
 6136              	.LCFI100:
 6137              		.cfi_def_cfa_offset 16
 6138 0004 00AF     		add	r7, sp, #0
 6139              	.LCFI101:
 6140              		.cfi_def_cfa_register 7
 6141 0006 7860     		str	r0, [r7, #4]
2132:Drivers/STM32F0xx_HAL_Driver/Src/stm32f0xx_hal_tim_ex.c ****   /* Prevent unused argument(s) compilation warning */
2133:Drivers/STM32F0xx_HAL_Driver/Src/stm32f0xx_hal_tim_ex.c ****   UNUSED(htim);
2134:Drivers/STM32F0xx_HAL_Driver/Src/stm32f0xx_hal_tim_ex.c **** 
2135:Drivers/STM32F0xx_HAL_Driver/Src/stm32f0xx_hal_tim_ex.c ****   /* NOTE : This function should not be modified, when the callback is needed,
2136:Drivers/STM32F0xx_HAL_Driver/Src/stm32f0xx_hal_tim_ex.c ****             the HAL_TIMEx_CommutHalfCpltCallback could be implemented in the user file
2137:Drivers/STM32F0xx_HAL_Driver/Src/stm32f0xx_hal_tim_ex.c ****    */
2138:Drivers/STM32F0xx_HAL_Driver/Src/stm32f0xx_hal_tim_ex.c **** }
 6142              		.loc 1 2138 1
 6143 0008 C046     		nop
 6144 000a BD46     		mov	sp, r7
 6145 000c 02B0     		add	sp, sp, #8
 6146              		@ sp needed
 6147 000e 80BD     		pop	{r7, pc}
 6148              		.cfi_endproc
 6149              	.LFE73:
 6151              		.section	.text.HAL_TIMEx_BreakCallback,"ax",%progbits
 6152              		.align	1
 6153              		.weak	HAL_TIMEx_BreakCallback
 6154              		.syntax unified
 6155              		.code	16
 6156              		.thumb_func
 6158              	HAL_TIMEx_BreakCallback:
 6159              	.LFB74:
2139:Drivers/STM32F0xx_HAL_Driver/Src/stm32f0xx_hal_tim_ex.c **** 
2140:Drivers/STM32F0xx_HAL_Driver/Src/stm32f0xx_hal_tim_ex.c **** /**
2141:Drivers/STM32F0xx_HAL_Driver/Src/stm32f0xx_hal_tim_ex.c ****   * @brief  Hall Break detection callback in non-blocking mode
2142:Drivers/STM32F0xx_HAL_Driver/Src/stm32f0xx_hal_tim_ex.c ****   * @param  htim TIM handle
2143:Drivers/STM32F0xx_HAL_Driver/Src/stm32f0xx_hal_tim_ex.c ****   * @retval None
2144:Drivers/STM32F0xx_HAL_Driver/Src/stm32f0xx_hal_tim_ex.c ****   */
2145:Drivers/STM32F0xx_HAL_Driver/Src/stm32f0xx_hal_tim_ex.c **** __weak void HAL_TIMEx_BreakCallback(TIM_HandleTypeDef *htim)
2146:Drivers/STM32F0xx_HAL_Driver/Src/stm32f0xx_hal_tim_ex.c **** {
 6160              		.loc 1 2146 1
 6161              		.cfi_startproc
 6162              		@ args = 0, pretend = 0, frame = 8
 6163              		@ frame_needed = 1, uses_anonymous_args = 0
 6164 0000 80B5     		push	{r7, lr}
 6165              	.LCFI102:
 6166              		.cfi_def_cfa_offset 8
 6167              		.cfi_offset 7, -8
 6168              		.cfi_offset 14, -4
 6169 0002 82B0     		sub	sp, sp, #8
 6170              	.LCFI103:
 6171              		.cfi_def_cfa_offset 16
 6172 0004 00AF     		add	r7, sp, #0
 6173              	.LCFI104:
 6174              		.cfi_def_cfa_register 7
 6175 0006 7860     		str	r0, [r7, #4]
2147:Drivers/STM32F0xx_HAL_Driver/Src/stm32f0xx_hal_tim_ex.c ****   /* Prevent unused argument(s) compilation warning */
2148:Drivers/STM32F0xx_HAL_Driver/Src/stm32f0xx_hal_tim_ex.c ****   UNUSED(htim);
ARM GAS  /var/folders/d0/cymppscj10lcmm48h781wrc80000gn/T//cc0qcKWW.s 			page 146


2149:Drivers/STM32F0xx_HAL_Driver/Src/stm32f0xx_hal_tim_ex.c **** 
2150:Drivers/STM32F0xx_HAL_Driver/Src/stm32f0xx_hal_tim_ex.c ****   /* NOTE : This function should not be modified, when the callback is needed,
2151:Drivers/STM32F0xx_HAL_Driver/Src/stm32f0xx_hal_tim_ex.c ****             the HAL_TIMEx_BreakCallback could be implemented in the user file
2152:Drivers/STM32F0xx_HAL_Driver/Src/stm32f0xx_hal_tim_ex.c ****    */
2153:Drivers/STM32F0xx_HAL_Driver/Src/stm32f0xx_hal_tim_ex.c **** }
 6176              		.loc 1 2153 1
 6177 0008 C046     		nop
 6178 000a BD46     		mov	sp, r7
 6179 000c 02B0     		add	sp, sp, #8
 6180              		@ sp needed
 6181 000e 80BD     		pop	{r7, pc}
 6182              		.cfi_endproc
 6183              	.LFE74:
 6185              		.section	.text.HAL_TIMEx_HallSensor_GetState,"ax",%progbits
 6186              		.align	1
 6187              		.global	HAL_TIMEx_HallSensor_GetState
 6188              		.syntax unified
 6189              		.code	16
 6190              		.thumb_func
 6192              	HAL_TIMEx_HallSensor_GetState:
 6193              	.LFB75:
2154:Drivers/STM32F0xx_HAL_Driver/Src/stm32f0xx_hal_tim_ex.c **** /**
2155:Drivers/STM32F0xx_HAL_Driver/Src/stm32f0xx_hal_tim_ex.c ****   * @}
2156:Drivers/STM32F0xx_HAL_Driver/Src/stm32f0xx_hal_tim_ex.c ****   */
2157:Drivers/STM32F0xx_HAL_Driver/Src/stm32f0xx_hal_tim_ex.c **** 
2158:Drivers/STM32F0xx_HAL_Driver/Src/stm32f0xx_hal_tim_ex.c **** /** @defgroup TIMEx_Exported_Functions_Group7 Extended Peripheral State functions
2159:Drivers/STM32F0xx_HAL_Driver/Src/stm32f0xx_hal_tim_ex.c ****   * @brief    Extended Peripheral State functions
2160:Drivers/STM32F0xx_HAL_Driver/Src/stm32f0xx_hal_tim_ex.c ****   *
2161:Drivers/STM32F0xx_HAL_Driver/Src/stm32f0xx_hal_tim_ex.c **** @verbatim
2162:Drivers/STM32F0xx_HAL_Driver/Src/stm32f0xx_hal_tim_ex.c ****   ==============================================================================
2163:Drivers/STM32F0xx_HAL_Driver/Src/stm32f0xx_hal_tim_ex.c ****                 ##### Extended Peripheral State functions #####
2164:Drivers/STM32F0xx_HAL_Driver/Src/stm32f0xx_hal_tim_ex.c ****   ==============================================================================
2165:Drivers/STM32F0xx_HAL_Driver/Src/stm32f0xx_hal_tim_ex.c ****   [..]
2166:Drivers/STM32F0xx_HAL_Driver/Src/stm32f0xx_hal_tim_ex.c ****     This subsection permits to get in run-time the status of the peripheral
2167:Drivers/STM32F0xx_HAL_Driver/Src/stm32f0xx_hal_tim_ex.c ****     and the data flow.
2168:Drivers/STM32F0xx_HAL_Driver/Src/stm32f0xx_hal_tim_ex.c **** 
2169:Drivers/STM32F0xx_HAL_Driver/Src/stm32f0xx_hal_tim_ex.c **** @endverbatim
2170:Drivers/STM32F0xx_HAL_Driver/Src/stm32f0xx_hal_tim_ex.c ****   * @{
2171:Drivers/STM32F0xx_HAL_Driver/Src/stm32f0xx_hal_tim_ex.c ****   */
2172:Drivers/STM32F0xx_HAL_Driver/Src/stm32f0xx_hal_tim_ex.c **** 
2173:Drivers/STM32F0xx_HAL_Driver/Src/stm32f0xx_hal_tim_ex.c **** /**
2174:Drivers/STM32F0xx_HAL_Driver/Src/stm32f0xx_hal_tim_ex.c ****   * @brief  Return the TIM Hall Sensor interface handle state.
2175:Drivers/STM32F0xx_HAL_Driver/Src/stm32f0xx_hal_tim_ex.c ****   * @param  htim TIM Hall Sensor handle
2176:Drivers/STM32F0xx_HAL_Driver/Src/stm32f0xx_hal_tim_ex.c ****   * @retval HAL state
2177:Drivers/STM32F0xx_HAL_Driver/Src/stm32f0xx_hal_tim_ex.c ****   */
2178:Drivers/STM32F0xx_HAL_Driver/Src/stm32f0xx_hal_tim_ex.c **** HAL_TIM_StateTypeDef HAL_TIMEx_HallSensor_GetState(TIM_HandleTypeDef *htim)
2179:Drivers/STM32F0xx_HAL_Driver/Src/stm32f0xx_hal_tim_ex.c **** {
 6194              		.loc 1 2179 1
 6195              		.cfi_startproc
 6196              		@ args = 0, pretend = 0, frame = 8
 6197              		@ frame_needed = 1, uses_anonymous_args = 0
 6198 0000 80B5     		push	{r7, lr}
 6199              	.LCFI105:
 6200              		.cfi_def_cfa_offset 8
 6201              		.cfi_offset 7, -8
 6202              		.cfi_offset 14, -4
 6203 0002 82B0     		sub	sp, sp, #8
ARM GAS  /var/folders/d0/cymppscj10lcmm48h781wrc80000gn/T//cc0qcKWW.s 			page 147


 6204              	.LCFI106:
 6205              		.cfi_def_cfa_offset 16
 6206 0004 00AF     		add	r7, sp, #0
 6207              	.LCFI107:
 6208              		.cfi_def_cfa_register 7
 6209 0006 7860     		str	r0, [r7, #4]
2180:Drivers/STM32F0xx_HAL_Driver/Src/stm32f0xx_hal_tim_ex.c ****   return htim->State;
 6210              		.loc 1 2180 14
 6211 0008 7B68     		ldr	r3, [r7, #4]
 6212 000a 3D22     		movs	r2, #61
 6213 000c 9B5C     		ldrb	r3, [r3, r2]
 6214 000e DBB2     		uxtb	r3, r3
2181:Drivers/STM32F0xx_HAL_Driver/Src/stm32f0xx_hal_tim_ex.c **** }
 6215              		.loc 1 2181 1
 6216 0010 1800     		movs	r0, r3
 6217 0012 BD46     		mov	sp, r7
 6218 0014 02B0     		add	sp, sp, #8
 6219              		@ sp needed
 6220 0016 80BD     		pop	{r7, pc}
 6221              		.cfi_endproc
 6222              	.LFE75:
 6224              		.section	.text.HAL_TIMEx_GetChannelNState,"ax",%progbits
 6225              		.align	1
 6226              		.global	HAL_TIMEx_GetChannelNState
 6227              		.syntax unified
 6228              		.code	16
 6229              		.thumb_func
 6231              	HAL_TIMEx_GetChannelNState:
 6232              	.LFB76:
2182:Drivers/STM32F0xx_HAL_Driver/Src/stm32f0xx_hal_tim_ex.c **** 
2183:Drivers/STM32F0xx_HAL_Driver/Src/stm32f0xx_hal_tim_ex.c **** /**
2184:Drivers/STM32F0xx_HAL_Driver/Src/stm32f0xx_hal_tim_ex.c ****   * @brief  Return actual state of the TIM complementary channel.
2185:Drivers/STM32F0xx_HAL_Driver/Src/stm32f0xx_hal_tim_ex.c ****   * @param  htim TIM handle
2186:Drivers/STM32F0xx_HAL_Driver/Src/stm32f0xx_hal_tim_ex.c ****   * @param  ChannelN TIM Complementary channel
2187:Drivers/STM32F0xx_HAL_Driver/Src/stm32f0xx_hal_tim_ex.c ****   *          This parameter can be one of the following values:
2188:Drivers/STM32F0xx_HAL_Driver/Src/stm32f0xx_hal_tim_ex.c ****   *            @arg TIM_CHANNEL_1: TIM Channel 1
2189:Drivers/STM32F0xx_HAL_Driver/Src/stm32f0xx_hal_tim_ex.c ****   *            @arg TIM_CHANNEL_2: TIM Channel 2
2190:Drivers/STM32F0xx_HAL_Driver/Src/stm32f0xx_hal_tim_ex.c ****   *            @arg TIM_CHANNEL_3: TIM Channel 3
2191:Drivers/STM32F0xx_HAL_Driver/Src/stm32f0xx_hal_tim_ex.c ****   * @retval TIM Complementary channel state
2192:Drivers/STM32F0xx_HAL_Driver/Src/stm32f0xx_hal_tim_ex.c ****   */
2193:Drivers/STM32F0xx_HAL_Driver/Src/stm32f0xx_hal_tim_ex.c **** HAL_TIM_ChannelStateTypeDef HAL_TIMEx_GetChannelNState(TIM_HandleTypeDef *htim,  uint32_t ChannelN)
2194:Drivers/STM32F0xx_HAL_Driver/Src/stm32f0xx_hal_tim_ex.c **** {
 6233              		.loc 1 2194 1
 6234              		.cfi_startproc
 6235              		@ args = 0, pretend = 0, frame = 16
 6236              		@ frame_needed = 1, uses_anonymous_args = 0
 6237 0000 80B5     		push	{r7, lr}
 6238              	.LCFI108:
 6239              		.cfi_def_cfa_offset 8
 6240              		.cfi_offset 7, -8
 6241              		.cfi_offset 14, -4
 6242 0002 84B0     		sub	sp, sp, #16
 6243              	.LCFI109:
 6244              		.cfi_def_cfa_offset 24
 6245 0004 00AF     		add	r7, sp, #0
 6246              	.LCFI110:
 6247              		.cfi_def_cfa_register 7
ARM GAS  /var/folders/d0/cymppscj10lcmm48h781wrc80000gn/T//cc0qcKWW.s 			page 148


 6248 0006 7860     		str	r0, [r7, #4]
 6249 0008 3960     		str	r1, [r7]
2195:Drivers/STM32F0xx_HAL_Driver/Src/stm32f0xx_hal_tim_ex.c ****   HAL_TIM_ChannelStateTypeDef channel_state;
2196:Drivers/STM32F0xx_HAL_Driver/Src/stm32f0xx_hal_tim_ex.c **** 
2197:Drivers/STM32F0xx_HAL_Driver/Src/stm32f0xx_hal_tim_ex.c ****   /* Check the parameters */
2198:Drivers/STM32F0xx_HAL_Driver/Src/stm32f0xx_hal_tim_ex.c ****   assert_param(IS_TIM_CCXN_INSTANCE(htim->Instance, ChannelN));
2199:Drivers/STM32F0xx_HAL_Driver/Src/stm32f0xx_hal_tim_ex.c **** 
2200:Drivers/STM32F0xx_HAL_Driver/Src/stm32f0xx_hal_tim_ex.c ****   channel_state = TIM_CHANNEL_N_STATE_GET(htim, ChannelN);
 6250              		.loc 1 2200 19
 6251 000a 3B68     		ldr	r3, [r7]
 6252 000c 002B     		cmp	r3, #0
 6253 000e 04D1     		bne	.L399
 6254              		.loc 1 2200 19 is_stmt 0 discriminator 1
 6255 0010 7B68     		ldr	r3, [r7, #4]
 6256 0012 4222     		movs	r2, #66
 6257 0014 9B5C     		ldrb	r3, [r3, r2]
 6258 0016 DBB2     		uxtb	r3, r3
 6259 0018 13E0     		b	.L400
 6260              	.L399:
 6261              		.loc 1 2200 19 discriminator 2
 6262 001a 3B68     		ldr	r3, [r7]
 6263 001c 042B     		cmp	r3, #4
 6264 001e 04D1     		bne	.L401
 6265              		.loc 1 2200 19 discriminator 4
 6266 0020 7B68     		ldr	r3, [r7, #4]
 6267 0022 4322     		movs	r2, #67
 6268 0024 9B5C     		ldrb	r3, [r3, r2]
 6269 0026 DBB2     		uxtb	r3, r3
 6270 0028 0BE0     		b	.L400
 6271              	.L401:
 6272              		.loc 1 2200 19 discriminator 5
 6273 002a 3B68     		ldr	r3, [r7]
 6274 002c 082B     		cmp	r3, #8
 6275 002e 04D1     		bne	.L403
 6276              		.loc 1 2200 19 discriminator 7
 6277 0030 7B68     		ldr	r3, [r7, #4]
 6278 0032 4422     		movs	r2, #68
 6279 0034 9B5C     		ldrb	r3, [r3, r2]
 6280 0036 DBB2     		uxtb	r3, r3
 6281 0038 03E0     		b	.L400
 6282              	.L403:
 6283              		.loc 1 2200 19 discriminator 8
 6284 003a 7B68     		ldr	r3, [r7, #4]
 6285 003c 4522     		movs	r2, #69
 6286 003e 9B5C     		ldrb	r3, [r3, r2]
 6287 0040 DBB2     		uxtb	r3, r3
 6288              	.L400:
 6289              		.loc 1 2200 17 is_stmt 1 discriminator 12
 6290 0042 0F21     		movs	r1, #15
 6291 0044 7A18     		adds	r2, r7, r1
 6292 0046 1370     		strb	r3, [r2]
2201:Drivers/STM32F0xx_HAL_Driver/Src/stm32f0xx_hal_tim_ex.c **** 
2202:Drivers/STM32F0xx_HAL_Driver/Src/stm32f0xx_hal_tim_ex.c ****   return channel_state;
 6293              		.loc 1 2202 10 discriminator 12
 6294 0048 7B18     		adds	r3, r7, r1
 6295 004a 1B78     		ldrb	r3, [r3]
2203:Drivers/STM32F0xx_HAL_Driver/Src/stm32f0xx_hal_tim_ex.c **** }
ARM GAS  /var/folders/d0/cymppscj10lcmm48h781wrc80000gn/T//cc0qcKWW.s 			page 149


 6296              		.loc 1 2203 1 discriminator 12
 6297 004c 1800     		movs	r0, r3
 6298 004e BD46     		mov	sp, r7
 6299 0050 04B0     		add	sp, sp, #16
 6300              		@ sp needed
 6301 0052 80BD     		pop	{r7, pc}
 6302              		.cfi_endproc
 6303              	.LFE76:
 6305              		.section	.text.TIMEx_DMACommutationCplt,"ax",%progbits
 6306              		.align	1
 6307              		.global	TIMEx_DMACommutationCplt
 6308              		.syntax unified
 6309              		.code	16
 6310              		.thumb_func
 6312              	TIMEx_DMACommutationCplt:
 6313              	.LFB77:
2204:Drivers/STM32F0xx_HAL_Driver/Src/stm32f0xx_hal_tim_ex.c **** /**
2205:Drivers/STM32F0xx_HAL_Driver/Src/stm32f0xx_hal_tim_ex.c ****   * @}
2206:Drivers/STM32F0xx_HAL_Driver/Src/stm32f0xx_hal_tim_ex.c ****   */
2207:Drivers/STM32F0xx_HAL_Driver/Src/stm32f0xx_hal_tim_ex.c **** 
2208:Drivers/STM32F0xx_HAL_Driver/Src/stm32f0xx_hal_tim_ex.c **** /**
2209:Drivers/STM32F0xx_HAL_Driver/Src/stm32f0xx_hal_tim_ex.c ****   * @}
2210:Drivers/STM32F0xx_HAL_Driver/Src/stm32f0xx_hal_tim_ex.c ****   */
2211:Drivers/STM32F0xx_HAL_Driver/Src/stm32f0xx_hal_tim_ex.c **** 
2212:Drivers/STM32F0xx_HAL_Driver/Src/stm32f0xx_hal_tim_ex.c **** /* Private functions ---------------------------------------------------------*/
2213:Drivers/STM32F0xx_HAL_Driver/Src/stm32f0xx_hal_tim_ex.c **** /** @defgroup TIMEx_Private_Functions TIMEx Private Functions
2214:Drivers/STM32F0xx_HAL_Driver/Src/stm32f0xx_hal_tim_ex.c ****   * @{
2215:Drivers/STM32F0xx_HAL_Driver/Src/stm32f0xx_hal_tim_ex.c ****   */
2216:Drivers/STM32F0xx_HAL_Driver/Src/stm32f0xx_hal_tim_ex.c **** 
2217:Drivers/STM32F0xx_HAL_Driver/Src/stm32f0xx_hal_tim_ex.c **** /**
2218:Drivers/STM32F0xx_HAL_Driver/Src/stm32f0xx_hal_tim_ex.c ****   * @brief  TIM DMA Commutation callback.
2219:Drivers/STM32F0xx_HAL_Driver/Src/stm32f0xx_hal_tim_ex.c ****   * @param  hdma pointer to DMA handle.
2220:Drivers/STM32F0xx_HAL_Driver/Src/stm32f0xx_hal_tim_ex.c ****   * @retval None
2221:Drivers/STM32F0xx_HAL_Driver/Src/stm32f0xx_hal_tim_ex.c ****   */
2222:Drivers/STM32F0xx_HAL_Driver/Src/stm32f0xx_hal_tim_ex.c **** void TIMEx_DMACommutationCplt(DMA_HandleTypeDef *hdma)
2223:Drivers/STM32F0xx_HAL_Driver/Src/stm32f0xx_hal_tim_ex.c **** {
 6314              		.loc 1 2223 1
 6315              		.cfi_startproc
 6316              		@ args = 0, pretend = 0, frame = 16
 6317              		@ frame_needed = 1, uses_anonymous_args = 0
 6318 0000 80B5     		push	{r7, lr}
 6319              	.LCFI111:
 6320              		.cfi_def_cfa_offset 8
 6321              		.cfi_offset 7, -8
 6322              		.cfi_offset 14, -4
 6323 0002 84B0     		sub	sp, sp, #16
 6324              	.LCFI112:
 6325              		.cfi_def_cfa_offset 24
 6326 0004 00AF     		add	r7, sp, #0
 6327              	.LCFI113:
 6328              		.cfi_def_cfa_register 7
 6329 0006 7860     		str	r0, [r7, #4]
2224:Drivers/STM32F0xx_HAL_Driver/Src/stm32f0xx_hal_tim_ex.c ****   TIM_HandleTypeDef *htim = (TIM_HandleTypeDef *)((DMA_HandleTypeDef *)hdma)->Parent;
 6330              		.loc 1 2224 22
 6331 0008 7B68     		ldr	r3, [r7, #4]
 6332 000a 5B6A     		ldr	r3, [r3, #36]
 6333 000c FB60     		str	r3, [r7, #12]
ARM GAS  /var/folders/d0/cymppscj10lcmm48h781wrc80000gn/T//cc0qcKWW.s 			page 150


2225:Drivers/STM32F0xx_HAL_Driver/Src/stm32f0xx_hal_tim_ex.c **** 
2226:Drivers/STM32F0xx_HAL_Driver/Src/stm32f0xx_hal_tim_ex.c ****   /* Change the htim state */
2227:Drivers/STM32F0xx_HAL_Driver/Src/stm32f0xx_hal_tim_ex.c ****   htim->State = HAL_TIM_STATE_READY;
 6334              		.loc 1 2227 15
 6335 000e FB68     		ldr	r3, [r7, #12]
 6336 0010 3D22     		movs	r2, #61
 6337 0012 0121     		movs	r1, #1
 6338 0014 9954     		strb	r1, [r3, r2]
2228:Drivers/STM32F0xx_HAL_Driver/Src/stm32f0xx_hal_tim_ex.c **** 
2229:Drivers/STM32F0xx_HAL_Driver/Src/stm32f0xx_hal_tim_ex.c **** #if (USE_HAL_TIM_REGISTER_CALLBACKS == 1)
2230:Drivers/STM32F0xx_HAL_Driver/Src/stm32f0xx_hal_tim_ex.c ****   htim->CommutationCallback(htim);
 6339              		.loc 1 2230 7
 6340 0016 FB68     		ldr	r3, [r7, #12]
 6341 0018 A822     		movs	r2, #168
 6342 001a 9B58     		ldr	r3, [r3, r2]
 6343              		.loc 1 2230 3
 6344 001c FA68     		ldr	r2, [r7, #12]
 6345 001e 1000     		movs	r0, r2
 6346 0020 9847     		blx	r3
 6347              	.LVL2:
2231:Drivers/STM32F0xx_HAL_Driver/Src/stm32f0xx_hal_tim_ex.c **** #else
2232:Drivers/STM32F0xx_HAL_Driver/Src/stm32f0xx_hal_tim_ex.c ****   HAL_TIMEx_CommutCallback(htim);
2233:Drivers/STM32F0xx_HAL_Driver/Src/stm32f0xx_hal_tim_ex.c **** #endif /* USE_HAL_TIM_REGISTER_CALLBACKS */
2234:Drivers/STM32F0xx_HAL_Driver/Src/stm32f0xx_hal_tim_ex.c **** }
 6348              		.loc 1 2234 1
 6349 0022 C046     		nop
 6350 0024 BD46     		mov	sp, r7
 6351 0026 04B0     		add	sp, sp, #16
 6352              		@ sp needed
 6353 0028 80BD     		pop	{r7, pc}
 6354              		.cfi_endproc
 6355              	.LFE77:
 6357              		.section	.text.TIMEx_DMACommutationHalfCplt,"ax",%progbits
 6358              		.align	1
 6359              		.global	TIMEx_DMACommutationHalfCplt
 6360              		.syntax unified
 6361              		.code	16
 6362              		.thumb_func
 6364              	TIMEx_DMACommutationHalfCplt:
 6365              	.LFB78:
2235:Drivers/STM32F0xx_HAL_Driver/Src/stm32f0xx_hal_tim_ex.c **** 
2236:Drivers/STM32F0xx_HAL_Driver/Src/stm32f0xx_hal_tim_ex.c **** /**
2237:Drivers/STM32F0xx_HAL_Driver/Src/stm32f0xx_hal_tim_ex.c ****   * @brief  TIM DMA Commutation half complete callback.
2238:Drivers/STM32F0xx_HAL_Driver/Src/stm32f0xx_hal_tim_ex.c ****   * @param  hdma pointer to DMA handle.
2239:Drivers/STM32F0xx_HAL_Driver/Src/stm32f0xx_hal_tim_ex.c ****   * @retval None
2240:Drivers/STM32F0xx_HAL_Driver/Src/stm32f0xx_hal_tim_ex.c ****   */
2241:Drivers/STM32F0xx_HAL_Driver/Src/stm32f0xx_hal_tim_ex.c **** void TIMEx_DMACommutationHalfCplt(DMA_HandleTypeDef *hdma)
2242:Drivers/STM32F0xx_HAL_Driver/Src/stm32f0xx_hal_tim_ex.c **** {
 6366              		.loc 1 2242 1
 6367              		.cfi_startproc
 6368              		@ args = 0, pretend = 0, frame = 16
 6369              		@ frame_needed = 1, uses_anonymous_args = 0
 6370 0000 80B5     		push	{r7, lr}
 6371              	.LCFI114:
 6372              		.cfi_def_cfa_offset 8
 6373              		.cfi_offset 7, -8
 6374              		.cfi_offset 14, -4
ARM GAS  /var/folders/d0/cymppscj10lcmm48h781wrc80000gn/T//cc0qcKWW.s 			page 151


 6375 0002 84B0     		sub	sp, sp, #16
 6376              	.LCFI115:
 6377              		.cfi_def_cfa_offset 24
 6378 0004 00AF     		add	r7, sp, #0
 6379              	.LCFI116:
 6380              		.cfi_def_cfa_register 7
 6381 0006 7860     		str	r0, [r7, #4]
2243:Drivers/STM32F0xx_HAL_Driver/Src/stm32f0xx_hal_tim_ex.c ****   TIM_HandleTypeDef *htim = (TIM_HandleTypeDef *)((DMA_HandleTypeDef *)hdma)->Parent;
 6382              		.loc 1 2243 22
 6383 0008 7B68     		ldr	r3, [r7, #4]
 6384 000a 5B6A     		ldr	r3, [r3, #36]
 6385 000c FB60     		str	r3, [r7, #12]
2244:Drivers/STM32F0xx_HAL_Driver/Src/stm32f0xx_hal_tim_ex.c **** 
2245:Drivers/STM32F0xx_HAL_Driver/Src/stm32f0xx_hal_tim_ex.c ****   /* Change the htim state */
2246:Drivers/STM32F0xx_HAL_Driver/Src/stm32f0xx_hal_tim_ex.c ****   htim->State = HAL_TIM_STATE_READY;
 6386              		.loc 1 2246 15
 6387 000e FB68     		ldr	r3, [r7, #12]
 6388 0010 3D22     		movs	r2, #61
 6389 0012 0121     		movs	r1, #1
 6390 0014 9954     		strb	r1, [r3, r2]
2247:Drivers/STM32F0xx_HAL_Driver/Src/stm32f0xx_hal_tim_ex.c **** 
2248:Drivers/STM32F0xx_HAL_Driver/Src/stm32f0xx_hal_tim_ex.c **** #if (USE_HAL_TIM_REGISTER_CALLBACKS == 1)
2249:Drivers/STM32F0xx_HAL_Driver/Src/stm32f0xx_hal_tim_ex.c ****   htim->CommutationHalfCpltCallback(htim);
 6391              		.loc 1 2249 7
 6392 0016 FB68     		ldr	r3, [r7, #12]
 6393 0018 AC22     		movs	r2, #172
 6394 001a 9B58     		ldr	r3, [r3, r2]
 6395              		.loc 1 2249 3
 6396 001c FA68     		ldr	r2, [r7, #12]
 6397 001e 1000     		movs	r0, r2
 6398 0020 9847     		blx	r3
 6399              	.LVL3:
2250:Drivers/STM32F0xx_HAL_Driver/Src/stm32f0xx_hal_tim_ex.c **** #else
2251:Drivers/STM32F0xx_HAL_Driver/Src/stm32f0xx_hal_tim_ex.c ****   HAL_TIMEx_CommutHalfCpltCallback(htim);
2252:Drivers/STM32F0xx_HAL_Driver/Src/stm32f0xx_hal_tim_ex.c **** #endif /* USE_HAL_TIM_REGISTER_CALLBACKS */
2253:Drivers/STM32F0xx_HAL_Driver/Src/stm32f0xx_hal_tim_ex.c **** }
 6400              		.loc 1 2253 1
 6401 0022 C046     		nop
 6402 0024 BD46     		mov	sp, r7
 6403 0026 04B0     		add	sp, sp, #16
 6404              		@ sp needed
 6405 0028 80BD     		pop	{r7, pc}
 6406              		.cfi_endproc
 6407              	.LFE78:
 6409              		.section	.text.TIM_DMADelayPulseNCplt,"ax",%progbits
 6410              		.align	1
 6411              		.syntax unified
 6412              		.code	16
 6413              		.thumb_func
 6415              	TIM_DMADelayPulseNCplt:
 6416              	.LFB79:
2254:Drivers/STM32F0xx_HAL_Driver/Src/stm32f0xx_hal_tim_ex.c **** 
2255:Drivers/STM32F0xx_HAL_Driver/Src/stm32f0xx_hal_tim_ex.c **** 
2256:Drivers/STM32F0xx_HAL_Driver/Src/stm32f0xx_hal_tim_ex.c **** /**
2257:Drivers/STM32F0xx_HAL_Driver/Src/stm32f0xx_hal_tim_ex.c ****   * @brief  TIM DMA Delay Pulse complete callback (complementary channel).
2258:Drivers/STM32F0xx_HAL_Driver/Src/stm32f0xx_hal_tim_ex.c ****   * @param  hdma pointer to DMA handle.
2259:Drivers/STM32F0xx_HAL_Driver/Src/stm32f0xx_hal_tim_ex.c ****   * @retval None
ARM GAS  /var/folders/d0/cymppscj10lcmm48h781wrc80000gn/T//cc0qcKWW.s 			page 152


2260:Drivers/STM32F0xx_HAL_Driver/Src/stm32f0xx_hal_tim_ex.c ****   */
2261:Drivers/STM32F0xx_HAL_Driver/Src/stm32f0xx_hal_tim_ex.c **** static void TIM_DMADelayPulseNCplt(DMA_HandleTypeDef *hdma)
2262:Drivers/STM32F0xx_HAL_Driver/Src/stm32f0xx_hal_tim_ex.c **** {
 6417              		.loc 1 2262 1
 6418              		.cfi_startproc
 6419              		@ args = 0, pretend = 0, frame = 16
 6420              		@ frame_needed = 1, uses_anonymous_args = 0
 6421 0000 80B5     		push	{r7, lr}
 6422              	.LCFI117:
 6423              		.cfi_def_cfa_offset 8
 6424              		.cfi_offset 7, -8
 6425              		.cfi_offset 14, -4
 6426 0002 84B0     		sub	sp, sp, #16
 6427              	.LCFI118:
 6428              		.cfi_def_cfa_offset 24
 6429 0004 00AF     		add	r7, sp, #0
 6430              	.LCFI119:
 6431              		.cfi_def_cfa_register 7
 6432 0006 7860     		str	r0, [r7, #4]
2263:Drivers/STM32F0xx_HAL_Driver/Src/stm32f0xx_hal_tim_ex.c ****   TIM_HandleTypeDef *htim = (TIM_HandleTypeDef *)((DMA_HandleTypeDef *)hdma)->Parent;
 6433              		.loc 1 2263 22
 6434 0008 7B68     		ldr	r3, [r7, #4]
 6435 000a 5B6A     		ldr	r3, [r3, #36]
 6436 000c FB60     		str	r3, [r7, #12]
2264:Drivers/STM32F0xx_HAL_Driver/Src/stm32f0xx_hal_tim_ex.c **** 
2265:Drivers/STM32F0xx_HAL_Driver/Src/stm32f0xx_hal_tim_ex.c ****   if (hdma == htim->hdma[TIM_DMA_ID_CC1])
 6437              		.loc 1 2265 25
 6438 000e FB68     		ldr	r3, [r7, #12]
 6439 0010 5B6A     		ldr	r3, [r3, #36]
 6440              		.loc 1 2265 6
 6441 0012 7A68     		ldr	r2, [r7, #4]
 6442 0014 9A42     		cmp	r2, r3
 6443 0016 0BD1     		bne	.L409
2266:Drivers/STM32F0xx_HAL_Driver/Src/stm32f0xx_hal_tim_ex.c ****   {
2267:Drivers/STM32F0xx_HAL_Driver/Src/stm32f0xx_hal_tim_ex.c ****     htim->Channel = HAL_TIM_ACTIVE_CHANNEL_1;
 6444              		.loc 1 2267 19
 6445 0018 FB68     		ldr	r3, [r7, #12]
 6446 001a 0122     		movs	r2, #1
 6447 001c 1A77     		strb	r2, [r3, #28]
2268:Drivers/STM32F0xx_HAL_Driver/Src/stm32f0xx_hal_tim_ex.c **** 
2269:Drivers/STM32F0xx_HAL_Driver/Src/stm32f0xx_hal_tim_ex.c ****     if (hdma->Init.Mode == DMA_NORMAL)
 6448              		.loc 1 2269 19
 6449 001e 7B68     		ldr	r3, [r7, #4]
 6450 0020 9B69     		ldr	r3, [r3, #24]
 6451              		.loc 1 2269 8
 6452 0022 002B     		cmp	r3, #0
 6453 0024 36D1     		bne	.L410
2270:Drivers/STM32F0xx_HAL_Driver/Src/stm32f0xx_hal_tim_ex.c ****     {
2271:Drivers/STM32F0xx_HAL_Driver/Src/stm32f0xx_hal_tim_ex.c ****       TIM_CHANNEL_N_STATE_SET(htim, TIM_CHANNEL_1, HAL_TIM_CHANNEL_STATE_READY);
 6454              		.loc 1 2271 7
 6455 0026 FB68     		ldr	r3, [r7, #12]
 6456 0028 4222     		movs	r2, #66
 6457 002a 0121     		movs	r1, #1
 6458 002c 9954     		strb	r1, [r3, r2]
 6459 002e 31E0     		b	.L410
 6460              	.L409:
2272:Drivers/STM32F0xx_HAL_Driver/Src/stm32f0xx_hal_tim_ex.c ****     }
ARM GAS  /var/folders/d0/cymppscj10lcmm48h781wrc80000gn/T//cc0qcKWW.s 			page 153


2273:Drivers/STM32F0xx_HAL_Driver/Src/stm32f0xx_hal_tim_ex.c ****   }
2274:Drivers/STM32F0xx_HAL_Driver/Src/stm32f0xx_hal_tim_ex.c ****   else if (hdma == htim->hdma[TIM_DMA_ID_CC2])
 6461              		.loc 1 2274 30
 6462 0030 FB68     		ldr	r3, [r7, #12]
 6463 0032 9B6A     		ldr	r3, [r3, #40]
 6464              		.loc 1 2274 11
 6465 0034 7A68     		ldr	r2, [r7, #4]
 6466 0036 9A42     		cmp	r2, r3
 6467 0038 0BD1     		bne	.L411
2275:Drivers/STM32F0xx_HAL_Driver/Src/stm32f0xx_hal_tim_ex.c ****   {
2276:Drivers/STM32F0xx_HAL_Driver/Src/stm32f0xx_hal_tim_ex.c ****     htim->Channel = HAL_TIM_ACTIVE_CHANNEL_2;
 6468              		.loc 1 2276 19
 6469 003a FB68     		ldr	r3, [r7, #12]
 6470 003c 0222     		movs	r2, #2
 6471 003e 1A77     		strb	r2, [r3, #28]
2277:Drivers/STM32F0xx_HAL_Driver/Src/stm32f0xx_hal_tim_ex.c **** 
2278:Drivers/STM32F0xx_HAL_Driver/Src/stm32f0xx_hal_tim_ex.c ****     if (hdma->Init.Mode == DMA_NORMAL)
 6472              		.loc 1 2278 19
 6473 0040 7B68     		ldr	r3, [r7, #4]
 6474 0042 9B69     		ldr	r3, [r3, #24]
 6475              		.loc 1 2278 8
 6476 0044 002B     		cmp	r3, #0
 6477 0046 25D1     		bne	.L410
2279:Drivers/STM32F0xx_HAL_Driver/Src/stm32f0xx_hal_tim_ex.c ****     {
2280:Drivers/STM32F0xx_HAL_Driver/Src/stm32f0xx_hal_tim_ex.c ****       TIM_CHANNEL_N_STATE_SET(htim, TIM_CHANNEL_2, HAL_TIM_CHANNEL_STATE_READY);
 6478              		.loc 1 2280 7
 6479 0048 FB68     		ldr	r3, [r7, #12]
 6480 004a 4322     		movs	r2, #67
 6481 004c 0121     		movs	r1, #1
 6482 004e 9954     		strb	r1, [r3, r2]
 6483 0050 20E0     		b	.L410
 6484              	.L411:
2281:Drivers/STM32F0xx_HAL_Driver/Src/stm32f0xx_hal_tim_ex.c ****     }
2282:Drivers/STM32F0xx_HAL_Driver/Src/stm32f0xx_hal_tim_ex.c ****   }
2283:Drivers/STM32F0xx_HAL_Driver/Src/stm32f0xx_hal_tim_ex.c ****   else if (hdma == htim->hdma[TIM_DMA_ID_CC3])
 6485              		.loc 1 2283 30
 6486 0052 FB68     		ldr	r3, [r7, #12]
 6487 0054 DB6A     		ldr	r3, [r3, #44]
 6488              		.loc 1 2283 11
 6489 0056 7A68     		ldr	r2, [r7, #4]
 6490 0058 9A42     		cmp	r2, r3
 6491 005a 0BD1     		bne	.L412
2284:Drivers/STM32F0xx_HAL_Driver/Src/stm32f0xx_hal_tim_ex.c ****   {
2285:Drivers/STM32F0xx_HAL_Driver/Src/stm32f0xx_hal_tim_ex.c ****     htim->Channel = HAL_TIM_ACTIVE_CHANNEL_3;
 6492              		.loc 1 2285 19
 6493 005c FB68     		ldr	r3, [r7, #12]
 6494 005e 0422     		movs	r2, #4
 6495 0060 1A77     		strb	r2, [r3, #28]
2286:Drivers/STM32F0xx_HAL_Driver/Src/stm32f0xx_hal_tim_ex.c **** 
2287:Drivers/STM32F0xx_HAL_Driver/Src/stm32f0xx_hal_tim_ex.c ****     if (hdma->Init.Mode == DMA_NORMAL)
 6496              		.loc 1 2287 19
 6497 0062 7B68     		ldr	r3, [r7, #4]
 6498 0064 9B69     		ldr	r3, [r3, #24]
 6499              		.loc 1 2287 8
 6500 0066 002B     		cmp	r3, #0
 6501 0068 14D1     		bne	.L410
2288:Drivers/STM32F0xx_HAL_Driver/Src/stm32f0xx_hal_tim_ex.c ****     {
ARM GAS  /var/folders/d0/cymppscj10lcmm48h781wrc80000gn/T//cc0qcKWW.s 			page 154


2289:Drivers/STM32F0xx_HAL_Driver/Src/stm32f0xx_hal_tim_ex.c ****       TIM_CHANNEL_N_STATE_SET(htim, TIM_CHANNEL_3, HAL_TIM_CHANNEL_STATE_READY);
 6502              		.loc 1 2289 7
 6503 006a FB68     		ldr	r3, [r7, #12]
 6504 006c 4422     		movs	r2, #68
 6505 006e 0121     		movs	r1, #1
 6506 0070 9954     		strb	r1, [r3, r2]
 6507 0072 0FE0     		b	.L410
 6508              	.L412:
2290:Drivers/STM32F0xx_HAL_Driver/Src/stm32f0xx_hal_tim_ex.c ****     }
2291:Drivers/STM32F0xx_HAL_Driver/Src/stm32f0xx_hal_tim_ex.c ****   }
2292:Drivers/STM32F0xx_HAL_Driver/Src/stm32f0xx_hal_tim_ex.c ****   else if (hdma == htim->hdma[TIM_DMA_ID_CC4])
 6509              		.loc 1 2292 30
 6510 0074 FB68     		ldr	r3, [r7, #12]
 6511 0076 1B6B     		ldr	r3, [r3, #48]
 6512              		.loc 1 2292 11
 6513 0078 7A68     		ldr	r2, [r7, #4]
 6514 007a 9A42     		cmp	r2, r3
 6515 007c 0AD1     		bne	.L410
2293:Drivers/STM32F0xx_HAL_Driver/Src/stm32f0xx_hal_tim_ex.c ****   {
2294:Drivers/STM32F0xx_HAL_Driver/Src/stm32f0xx_hal_tim_ex.c ****     htim->Channel = HAL_TIM_ACTIVE_CHANNEL_4;
 6516              		.loc 1 2294 19
 6517 007e FB68     		ldr	r3, [r7, #12]
 6518 0080 0822     		movs	r2, #8
 6519 0082 1A77     		strb	r2, [r3, #28]
2295:Drivers/STM32F0xx_HAL_Driver/Src/stm32f0xx_hal_tim_ex.c **** 
2296:Drivers/STM32F0xx_HAL_Driver/Src/stm32f0xx_hal_tim_ex.c ****     if (hdma->Init.Mode == DMA_NORMAL)
 6520              		.loc 1 2296 19
 6521 0084 7B68     		ldr	r3, [r7, #4]
 6522 0086 9B69     		ldr	r3, [r3, #24]
 6523              		.loc 1 2296 8
 6524 0088 002B     		cmp	r3, #0
 6525 008a 03D1     		bne	.L410
2297:Drivers/STM32F0xx_HAL_Driver/Src/stm32f0xx_hal_tim_ex.c ****     {
2298:Drivers/STM32F0xx_HAL_Driver/Src/stm32f0xx_hal_tim_ex.c ****       TIM_CHANNEL_N_STATE_SET(htim, TIM_CHANNEL_4, HAL_TIM_CHANNEL_STATE_READY);
 6526              		.loc 1 2298 7
 6527 008c FB68     		ldr	r3, [r7, #12]
 6528 008e 4522     		movs	r2, #69
 6529 0090 0121     		movs	r1, #1
 6530 0092 9954     		strb	r1, [r3, r2]
 6531              	.L410:
2299:Drivers/STM32F0xx_HAL_Driver/Src/stm32f0xx_hal_tim_ex.c ****     }
2300:Drivers/STM32F0xx_HAL_Driver/Src/stm32f0xx_hal_tim_ex.c ****   }
2301:Drivers/STM32F0xx_HAL_Driver/Src/stm32f0xx_hal_tim_ex.c ****   else
2302:Drivers/STM32F0xx_HAL_Driver/Src/stm32f0xx_hal_tim_ex.c ****   {
2303:Drivers/STM32F0xx_HAL_Driver/Src/stm32f0xx_hal_tim_ex.c ****     /* nothing to do */
2304:Drivers/STM32F0xx_HAL_Driver/Src/stm32f0xx_hal_tim_ex.c ****   }
2305:Drivers/STM32F0xx_HAL_Driver/Src/stm32f0xx_hal_tim_ex.c **** 
2306:Drivers/STM32F0xx_HAL_Driver/Src/stm32f0xx_hal_tim_ex.c **** #if (USE_HAL_TIM_REGISTER_CALLBACKS == 1)
2307:Drivers/STM32F0xx_HAL_Driver/Src/stm32f0xx_hal_tim_ex.c ****   htim->PWM_PulseFinishedCallback(htim);
 6532              		.loc 1 2307 7
 6533 0094 FB68     		ldr	r3, [r7, #12]
 6534 0096 9C22     		movs	r2, #156
 6535 0098 9B58     		ldr	r3, [r3, r2]
 6536              		.loc 1 2307 3
 6537 009a FA68     		ldr	r2, [r7, #12]
 6538 009c 1000     		movs	r0, r2
 6539 009e 9847     		blx	r3
ARM GAS  /var/folders/d0/cymppscj10lcmm48h781wrc80000gn/T//cc0qcKWW.s 			page 155


 6540              	.LVL4:
2308:Drivers/STM32F0xx_HAL_Driver/Src/stm32f0xx_hal_tim_ex.c **** #else
2309:Drivers/STM32F0xx_HAL_Driver/Src/stm32f0xx_hal_tim_ex.c ****   HAL_TIM_PWM_PulseFinishedCallback(htim);
2310:Drivers/STM32F0xx_HAL_Driver/Src/stm32f0xx_hal_tim_ex.c **** #endif /* USE_HAL_TIM_REGISTER_CALLBACKS */
2311:Drivers/STM32F0xx_HAL_Driver/Src/stm32f0xx_hal_tim_ex.c **** 
2312:Drivers/STM32F0xx_HAL_Driver/Src/stm32f0xx_hal_tim_ex.c ****   htim->Channel = HAL_TIM_ACTIVE_CHANNEL_CLEARED;
 6541              		.loc 1 2312 17
 6542 00a0 FB68     		ldr	r3, [r7, #12]
 6543 00a2 0022     		movs	r2, #0
 6544 00a4 1A77     		strb	r2, [r3, #28]
2313:Drivers/STM32F0xx_HAL_Driver/Src/stm32f0xx_hal_tim_ex.c **** }
 6545              		.loc 1 2313 1
 6546 00a6 C046     		nop
 6547 00a8 BD46     		mov	sp, r7
 6548 00aa 04B0     		add	sp, sp, #16
 6549              		@ sp needed
 6550 00ac 80BD     		pop	{r7, pc}
 6551              		.cfi_endproc
 6552              	.LFE79:
 6554              		.section	.text.TIM_DMAErrorCCxN,"ax",%progbits
 6555              		.align	1
 6556              		.syntax unified
 6557              		.code	16
 6558              		.thumb_func
 6560              	TIM_DMAErrorCCxN:
 6561              	.LFB80:
2314:Drivers/STM32F0xx_HAL_Driver/Src/stm32f0xx_hal_tim_ex.c **** 
2315:Drivers/STM32F0xx_HAL_Driver/Src/stm32f0xx_hal_tim_ex.c **** /**
2316:Drivers/STM32F0xx_HAL_Driver/Src/stm32f0xx_hal_tim_ex.c ****   * @brief  TIM DMA error callback (complementary channel)
2317:Drivers/STM32F0xx_HAL_Driver/Src/stm32f0xx_hal_tim_ex.c ****   * @param  hdma pointer to DMA handle.
2318:Drivers/STM32F0xx_HAL_Driver/Src/stm32f0xx_hal_tim_ex.c ****   * @retval None
2319:Drivers/STM32F0xx_HAL_Driver/Src/stm32f0xx_hal_tim_ex.c ****   */
2320:Drivers/STM32F0xx_HAL_Driver/Src/stm32f0xx_hal_tim_ex.c **** static void TIM_DMAErrorCCxN(DMA_HandleTypeDef *hdma)
2321:Drivers/STM32F0xx_HAL_Driver/Src/stm32f0xx_hal_tim_ex.c **** {
 6562              		.loc 1 2321 1
 6563              		.cfi_startproc
 6564              		@ args = 0, pretend = 0, frame = 16
 6565              		@ frame_needed = 1, uses_anonymous_args = 0
 6566 0000 80B5     		push	{r7, lr}
 6567              	.LCFI120:
 6568              		.cfi_def_cfa_offset 8
 6569              		.cfi_offset 7, -8
 6570              		.cfi_offset 14, -4
 6571 0002 84B0     		sub	sp, sp, #16
 6572              	.LCFI121:
 6573              		.cfi_def_cfa_offset 24
 6574 0004 00AF     		add	r7, sp, #0
 6575              	.LCFI122:
 6576              		.cfi_def_cfa_register 7
 6577 0006 7860     		str	r0, [r7, #4]
2322:Drivers/STM32F0xx_HAL_Driver/Src/stm32f0xx_hal_tim_ex.c ****   TIM_HandleTypeDef *htim = (TIM_HandleTypeDef *)((DMA_HandleTypeDef *)hdma)->Parent;
 6578              		.loc 1 2322 22
 6579 0008 7B68     		ldr	r3, [r7, #4]
 6580 000a 5B6A     		ldr	r3, [r3, #36]
 6581 000c FB60     		str	r3, [r7, #12]
2323:Drivers/STM32F0xx_HAL_Driver/Src/stm32f0xx_hal_tim_ex.c **** 
2324:Drivers/STM32F0xx_HAL_Driver/Src/stm32f0xx_hal_tim_ex.c ****   if (hdma == htim->hdma[TIM_DMA_ID_CC1])
ARM GAS  /var/folders/d0/cymppscj10lcmm48h781wrc80000gn/T//cc0qcKWW.s 			page 156


 6582              		.loc 1 2324 25
 6583 000e FB68     		ldr	r3, [r7, #12]
 6584 0010 5B6A     		ldr	r3, [r3, #36]
 6585              		.loc 1 2324 6
 6586 0012 7A68     		ldr	r2, [r7, #4]
 6587 0014 9A42     		cmp	r2, r3
 6588 0016 07D1     		bne	.L414
2325:Drivers/STM32F0xx_HAL_Driver/Src/stm32f0xx_hal_tim_ex.c ****   {
2326:Drivers/STM32F0xx_HAL_Driver/Src/stm32f0xx_hal_tim_ex.c ****     htim->Channel = HAL_TIM_ACTIVE_CHANNEL_1;
 6589              		.loc 1 2326 19
 6590 0018 FB68     		ldr	r3, [r7, #12]
 6591 001a 0122     		movs	r2, #1
 6592 001c 1A77     		strb	r2, [r3, #28]
2327:Drivers/STM32F0xx_HAL_Driver/Src/stm32f0xx_hal_tim_ex.c ****     TIM_CHANNEL_N_STATE_SET(htim, TIM_CHANNEL_1, HAL_TIM_CHANNEL_STATE_READY);
 6593              		.loc 1 2327 5
 6594 001e FB68     		ldr	r3, [r7, #12]
 6595 0020 4222     		movs	r2, #66
 6596 0022 0121     		movs	r1, #1
 6597 0024 9954     		strb	r1, [r3, r2]
 6598 0026 18E0     		b	.L415
 6599              	.L414:
2328:Drivers/STM32F0xx_HAL_Driver/Src/stm32f0xx_hal_tim_ex.c ****   }
2329:Drivers/STM32F0xx_HAL_Driver/Src/stm32f0xx_hal_tim_ex.c ****   else if (hdma == htim->hdma[TIM_DMA_ID_CC2])
 6600              		.loc 1 2329 30
 6601 0028 FB68     		ldr	r3, [r7, #12]
 6602 002a 9B6A     		ldr	r3, [r3, #40]
 6603              		.loc 1 2329 11
 6604 002c 7A68     		ldr	r2, [r7, #4]
 6605 002e 9A42     		cmp	r2, r3
 6606 0030 07D1     		bne	.L416
2330:Drivers/STM32F0xx_HAL_Driver/Src/stm32f0xx_hal_tim_ex.c ****   {
2331:Drivers/STM32F0xx_HAL_Driver/Src/stm32f0xx_hal_tim_ex.c ****     htim->Channel = HAL_TIM_ACTIVE_CHANNEL_2;
 6607              		.loc 1 2331 19
 6608 0032 FB68     		ldr	r3, [r7, #12]
 6609 0034 0222     		movs	r2, #2
 6610 0036 1A77     		strb	r2, [r3, #28]
2332:Drivers/STM32F0xx_HAL_Driver/Src/stm32f0xx_hal_tim_ex.c ****     TIM_CHANNEL_N_STATE_SET(htim, TIM_CHANNEL_2, HAL_TIM_CHANNEL_STATE_READY);
 6611              		.loc 1 2332 5
 6612 0038 FB68     		ldr	r3, [r7, #12]
 6613 003a 4322     		movs	r2, #67
 6614 003c 0121     		movs	r1, #1
 6615 003e 9954     		strb	r1, [r3, r2]
 6616 0040 0BE0     		b	.L415
 6617              	.L416:
2333:Drivers/STM32F0xx_HAL_Driver/Src/stm32f0xx_hal_tim_ex.c ****   }
2334:Drivers/STM32F0xx_HAL_Driver/Src/stm32f0xx_hal_tim_ex.c ****   else if (hdma == htim->hdma[TIM_DMA_ID_CC3])
 6618              		.loc 1 2334 30
 6619 0042 FB68     		ldr	r3, [r7, #12]
 6620 0044 DB6A     		ldr	r3, [r3, #44]
 6621              		.loc 1 2334 11
 6622 0046 7A68     		ldr	r2, [r7, #4]
 6623 0048 9A42     		cmp	r2, r3
 6624 004a 06D1     		bne	.L415
2335:Drivers/STM32F0xx_HAL_Driver/Src/stm32f0xx_hal_tim_ex.c ****   {
2336:Drivers/STM32F0xx_HAL_Driver/Src/stm32f0xx_hal_tim_ex.c ****     htim->Channel = HAL_TIM_ACTIVE_CHANNEL_3;
 6625              		.loc 1 2336 19
 6626 004c FB68     		ldr	r3, [r7, #12]
ARM GAS  /var/folders/d0/cymppscj10lcmm48h781wrc80000gn/T//cc0qcKWW.s 			page 157


 6627 004e 0422     		movs	r2, #4
 6628 0050 1A77     		strb	r2, [r3, #28]
2337:Drivers/STM32F0xx_HAL_Driver/Src/stm32f0xx_hal_tim_ex.c ****     TIM_CHANNEL_N_STATE_SET(htim, TIM_CHANNEL_3, HAL_TIM_CHANNEL_STATE_READY);
 6629              		.loc 1 2337 5
 6630 0052 FB68     		ldr	r3, [r7, #12]
 6631 0054 4422     		movs	r2, #68
 6632 0056 0121     		movs	r1, #1
 6633 0058 9954     		strb	r1, [r3, r2]
 6634              	.L415:
2338:Drivers/STM32F0xx_HAL_Driver/Src/stm32f0xx_hal_tim_ex.c ****   }
2339:Drivers/STM32F0xx_HAL_Driver/Src/stm32f0xx_hal_tim_ex.c ****   else
2340:Drivers/STM32F0xx_HAL_Driver/Src/stm32f0xx_hal_tim_ex.c ****   {
2341:Drivers/STM32F0xx_HAL_Driver/Src/stm32f0xx_hal_tim_ex.c ****     /* nothing to do */
2342:Drivers/STM32F0xx_HAL_Driver/Src/stm32f0xx_hal_tim_ex.c ****   }
2343:Drivers/STM32F0xx_HAL_Driver/Src/stm32f0xx_hal_tim_ex.c **** 
2344:Drivers/STM32F0xx_HAL_Driver/Src/stm32f0xx_hal_tim_ex.c **** #if (USE_HAL_TIM_REGISTER_CALLBACKS == 1)
2345:Drivers/STM32F0xx_HAL_Driver/Src/stm32f0xx_hal_tim_ex.c ****   htim->ErrorCallback(htim);
 6635              		.loc 1 2345 7
 6636 005a FB68     		ldr	r3, [r7, #12]
 6637 005c A422     		movs	r2, #164
 6638 005e 9B58     		ldr	r3, [r3, r2]
 6639              		.loc 1 2345 3
 6640 0060 FA68     		ldr	r2, [r7, #12]
 6641 0062 1000     		movs	r0, r2
 6642 0064 9847     		blx	r3
 6643              	.LVL5:
2346:Drivers/STM32F0xx_HAL_Driver/Src/stm32f0xx_hal_tim_ex.c **** #else
2347:Drivers/STM32F0xx_HAL_Driver/Src/stm32f0xx_hal_tim_ex.c ****   HAL_TIM_ErrorCallback(htim);
2348:Drivers/STM32F0xx_HAL_Driver/Src/stm32f0xx_hal_tim_ex.c **** #endif /* USE_HAL_TIM_REGISTER_CALLBACKS */
2349:Drivers/STM32F0xx_HAL_Driver/Src/stm32f0xx_hal_tim_ex.c **** 
2350:Drivers/STM32F0xx_HAL_Driver/Src/stm32f0xx_hal_tim_ex.c ****   htim->Channel = HAL_TIM_ACTIVE_CHANNEL_CLEARED;
 6644              		.loc 1 2350 17
 6645 0066 FB68     		ldr	r3, [r7, #12]
 6646 0068 0022     		movs	r2, #0
 6647 006a 1A77     		strb	r2, [r3, #28]
2351:Drivers/STM32F0xx_HAL_Driver/Src/stm32f0xx_hal_tim_ex.c **** }
 6648              		.loc 1 2351 1
 6649 006c C046     		nop
 6650 006e BD46     		mov	sp, r7
 6651 0070 04B0     		add	sp, sp, #16
 6652              		@ sp needed
 6653 0072 80BD     		pop	{r7, pc}
 6654              		.cfi_endproc
 6655              	.LFE80:
 6657              		.section	.text.TIM_CCxNChannelCmd,"ax",%progbits
 6658              		.align	1
 6659              		.syntax unified
 6660              		.code	16
 6661              		.thumb_func
 6663              	TIM_CCxNChannelCmd:
 6664              	.LFB81:
2352:Drivers/STM32F0xx_HAL_Driver/Src/stm32f0xx_hal_tim_ex.c **** 
2353:Drivers/STM32F0xx_HAL_Driver/Src/stm32f0xx_hal_tim_ex.c **** /**
2354:Drivers/STM32F0xx_HAL_Driver/Src/stm32f0xx_hal_tim_ex.c ****   * @brief  Enables or disables the TIM Capture Compare Channel xN.
2355:Drivers/STM32F0xx_HAL_Driver/Src/stm32f0xx_hal_tim_ex.c ****   * @param  TIMx to select the TIM peripheral
2356:Drivers/STM32F0xx_HAL_Driver/Src/stm32f0xx_hal_tim_ex.c ****   * @param  Channel specifies the TIM Channel
2357:Drivers/STM32F0xx_HAL_Driver/Src/stm32f0xx_hal_tim_ex.c ****   *          This parameter can be one of the following values:
ARM GAS  /var/folders/d0/cymppscj10lcmm48h781wrc80000gn/T//cc0qcKWW.s 			page 158


2358:Drivers/STM32F0xx_HAL_Driver/Src/stm32f0xx_hal_tim_ex.c ****   *            @arg TIM_CHANNEL_1: TIM Channel 1
2359:Drivers/STM32F0xx_HAL_Driver/Src/stm32f0xx_hal_tim_ex.c ****   *            @arg TIM_CHANNEL_2: TIM Channel 2
2360:Drivers/STM32F0xx_HAL_Driver/Src/stm32f0xx_hal_tim_ex.c ****   *            @arg TIM_CHANNEL_3: TIM Channel 3
2361:Drivers/STM32F0xx_HAL_Driver/Src/stm32f0xx_hal_tim_ex.c ****   * @param  ChannelNState specifies the TIM Channel CCxNE bit new state.
2362:Drivers/STM32F0xx_HAL_Driver/Src/stm32f0xx_hal_tim_ex.c ****   *          This parameter can be: TIM_CCxN_ENABLE or TIM_CCxN_Disable.
2363:Drivers/STM32F0xx_HAL_Driver/Src/stm32f0xx_hal_tim_ex.c ****   * @retval None
2364:Drivers/STM32F0xx_HAL_Driver/Src/stm32f0xx_hal_tim_ex.c ****   */
2365:Drivers/STM32F0xx_HAL_Driver/Src/stm32f0xx_hal_tim_ex.c **** static void TIM_CCxNChannelCmd(TIM_TypeDef *TIMx, uint32_t Channel, uint32_t ChannelNState)
2366:Drivers/STM32F0xx_HAL_Driver/Src/stm32f0xx_hal_tim_ex.c **** {
 6665              		.loc 1 2366 1
 6666              		.cfi_startproc
 6667              		@ args = 0, pretend = 0, frame = 24
 6668              		@ frame_needed = 1, uses_anonymous_args = 0
 6669 0000 80B5     		push	{r7, lr}
 6670              	.LCFI123:
 6671              		.cfi_def_cfa_offset 8
 6672              		.cfi_offset 7, -8
 6673              		.cfi_offset 14, -4
 6674 0002 86B0     		sub	sp, sp, #24
 6675              	.LCFI124:
 6676              		.cfi_def_cfa_offset 32
 6677 0004 00AF     		add	r7, sp, #0
 6678              	.LCFI125:
 6679              		.cfi_def_cfa_register 7
 6680 0006 F860     		str	r0, [r7, #12]
 6681 0008 B960     		str	r1, [r7, #8]
 6682 000a 7A60     		str	r2, [r7, #4]
2367:Drivers/STM32F0xx_HAL_Driver/Src/stm32f0xx_hal_tim_ex.c ****   uint32_t tmp;
2368:Drivers/STM32F0xx_HAL_Driver/Src/stm32f0xx_hal_tim_ex.c **** 
2369:Drivers/STM32F0xx_HAL_Driver/Src/stm32f0xx_hal_tim_ex.c ****   tmp = TIM_CCER_CC1NE << (Channel & 0x1FU); /* 0x1FU = 31 bits max shift */
 6683              		.loc 1 2369 36
 6684 000c BB68     		ldr	r3, [r7, #8]
 6685 000e 1F22     		movs	r2, #31
 6686 0010 1340     		ands	r3, r2
 6687              		.loc 1 2369 7
 6688 0012 0422     		movs	r2, #4
 6689 0014 9A40     		lsls	r2, r2, r3
 6690 0016 1300     		movs	r3, r2
 6691 0018 7B61     		str	r3, [r7, #20]
2370:Drivers/STM32F0xx_HAL_Driver/Src/stm32f0xx_hal_tim_ex.c **** 
2371:Drivers/STM32F0xx_HAL_Driver/Src/stm32f0xx_hal_tim_ex.c ****   /* Reset the CCxNE Bit */
2372:Drivers/STM32F0xx_HAL_Driver/Src/stm32f0xx_hal_tim_ex.c ****   TIMx->CCER &=  ~tmp;
 6692              		.loc 1 2372 14
 6693 001a FB68     		ldr	r3, [r7, #12]
 6694 001c 1B6A     		ldr	r3, [r3, #32]
 6695              		.loc 1 2372 18
 6696 001e 7A69     		ldr	r2, [r7, #20]
 6697 0020 D243     		mvns	r2, r2
 6698              		.loc 1 2372 14
 6699 0022 1A40     		ands	r2, r3
 6700 0024 FB68     		ldr	r3, [r7, #12]
 6701 0026 1A62     		str	r2, [r3, #32]
2373:Drivers/STM32F0xx_HAL_Driver/Src/stm32f0xx_hal_tim_ex.c **** 
2374:Drivers/STM32F0xx_HAL_Driver/Src/stm32f0xx_hal_tim_ex.c ****   /* Set or reset the CCxNE Bit */
2375:Drivers/STM32F0xx_HAL_Driver/Src/stm32f0xx_hal_tim_ex.c ****   TIMx->CCER |= (uint32_t)(ChannelNState << (Channel & 0x1FU)); /* 0x1FU = 31 bits max shift */
 6702              		.loc 1 2375 14
 6703 0028 FB68     		ldr	r3, [r7, #12]
ARM GAS  /var/folders/d0/cymppscj10lcmm48h781wrc80000gn/T//cc0qcKWW.s 			page 159


 6704 002a 1A6A     		ldr	r2, [r3, #32]
 6705              		.loc 1 2375 54
 6706 002c BB68     		ldr	r3, [r7, #8]
 6707 002e 1F21     		movs	r1, #31
 6708 0030 0B40     		ands	r3, r1
 6709              		.loc 1 2375 42
 6710 0032 7968     		ldr	r1, [r7, #4]
 6711 0034 9940     		lsls	r1, r1, r3
 6712 0036 0B00     		movs	r3, r1
 6713              		.loc 1 2375 14
 6714 0038 1A43     		orrs	r2, r3
 6715 003a FB68     		ldr	r3, [r7, #12]
 6716 003c 1A62     		str	r2, [r3, #32]
2376:Drivers/STM32F0xx_HAL_Driver/Src/stm32f0xx_hal_tim_ex.c **** }
 6717              		.loc 1 2376 1
 6718 003e C046     		nop
 6719 0040 BD46     		mov	sp, r7
 6720 0042 06B0     		add	sp, sp, #24
 6721              		@ sp needed
 6722 0044 80BD     		pop	{r7, pc}
 6723              		.cfi_endproc
 6724              	.LFE81:
 6726              		.text
 6727              	.Letext0:
 6728              		.file 2 "/Users/seojisu/Library/Arm-GCC-xPack/arm-none-eabi/include/machine/_default_types.h"
 6729              		.file 3 "/Users/seojisu/Library/Arm-GCC-xPack/arm-none-eabi/include/sys/_stdint.h"
 6730              		.file 4 "Drivers/CMSIS/Device/ST/STM32F0xx/Include/stm32f030x8.h"
 6731              		.file 5 "Drivers/CMSIS/Device/ST/STM32F0xx/Include/stm32f0xx.h"
 6732              		.file 6 "Drivers/STM32F0xx_HAL_Driver/Inc/stm32f0xx_hal_def.h"
 6733              		.file 7 "Drivers/STM32F0xx_HAL_Driver/Inc/stm32f0xx_hal_dma.h"
 6734              		.file 8 "Drivers/STM32F0xx_HAL_Driver/Inc/stm32f0xx_hal_tim.h"
 6735              		.file 9 "Drivers/STM32F0xx_HAL_Driver/Inc/stm32f0xx_hal_tim_ex.h"
ARM GAS  /var/folders/d0/cymppscj10lcmm48h781wrc80000gn/T//cc0qcKWW.s 			page 160


DEFINED SYMBOLS
                            *ABS*:0000000000000000 stm32f0xx_hal_tim_ex.c
/var/folders/d0/cymppscj10lcmm48h781wrc80000gn/T//cc0qcKWW.s:18     .text.HAL_TIMEx_HallSensor_Init:0000000000000000 $t
/var/folders/d0/cymppscj10lcmm48h781wrc80000gn/T//cc0qcKWW.s:24     .text.HAL_TIMEx_HallSensor_Init:0000000000000000 HAL_TIMEx_HallSensor_Init
/var/folders/d0/cymppscj10lcmm48h781wrc80000gn/T//cc0qcKWW.s:301    .text.HAL_TIMEx_HallSensor_Init:000000000000017c $d
/var/folders/d0/cymppscj10lcmm48h781wrc80000gn/T//cc0qcKWW.s:437    .text.HAL_TIMEx_HallSensor_MspInit:0000000000000000 HAL_TIMEx_HallSensor_MspInit
/var/folders/d0/cymppscj10lcmm48h781wrc80000gn/T//cc0qcKWW.s:306    .text.HAL_TIMEx_HallSensor_DeInit:0000000000000000 $t
/var/folders/d0/cymppscj10lcmm48h781wrc80000gn/T//cc0qcKWW.s:312    .text.HAL_TIMEx_HallSensor_DeInit:0000000000000000 HAL_TIMEx_HallSensor_DeInit
/var/folders/d0/cymppscj10lcmm48h781wrc80000gn/T//cc0qcKWW.s:424    .text.HAL_TIMEx_HallSensor_DeInit:0000000000000094 $d
/var/folders/d0/cymppscj10lcmm48h781wrc80000gn/T//cc0qcKWW.s:471    .text.HAL_TIMEx_HallSensor_MspDeInit:0000000000000000 HAL_TIMEx_HallSensor_MspDeInit
/var/folders/d0/cymppscj10lcmm48h781wrc80000gn/T//cc0qcKWW.s:431    .text.HAL_TIMEx_HallSensor_MspInit:0000000000000000 $t
/var/folders/d0/cymppscj10lcmm48h781wrc80000gn/T//cc0qcKWW.s:465    .text.HAL_TIMEx_HallSensor_MspDeInit:0000000000000000 $t
/var/folders/d0/cymppscj10lcmm48h781wrc80000gn/T//cc0qcKWW.s:499    .text.HAL_TIMEx_HallSensor_Start:0000000000000000 $t
/var/folders/d0/cymppscj10lcmm48h781wrc80000gn/T//cc0qcKWW.s:505    .text.HAL_TIMEx_HallSensor_Start:0000000000000000 HAL_TIMEx_HallSensor_Start
/var/folders/d0/cymppscj10lcmm48h781wrc80000gn/T//cc0qcKWW.s:673    .text.HAL_TIMEx_HallSensor_Start:00000000000000e8 $d
/var/folders/d0/cymppscj10lcmm48h781wrc80000gn/T//cc0qcKWW.s:680    .text.HAL_TIMEx_HallSensor_Stop:0000000000000000 $t
/var/folders/d0/cymppscj10lcmm48h781wrc80000gn/T//cc0qcKWW.s:686    .text.HAL_TIMEx_HallSensor_Stop:0000000000000000 HAL_TIMEx_HallSensor_Stop
/var/folders/d0/cymppscj10lcmm48h781wrc80000gn/T//cc0qcKWW.s:766    .text.HAL_TIMEx_HallSensor_Stop:0000000000000068 $d
/var/folders/d0/cymppscj10lcmm48h781wrc80000gn/T//cc0qcKWW.s:772    .text.HAL_TIMEx_HallSensor_Start_IT:0000000000000000 $t
/var/folders/d0/cymppscj10lcmm48h781wrc80000gn/T//cc0qcKWW.s:778    .text.HAL_TIMEx_HallSensor_Start_IT:0000000000000000 HAL_TIMEx_HallSensor_Start_IT
/var/folders/d0/cymppscj10lcmm48h781wrc80000gn/T//cc0qcKWW.s:955    .text.HAL_TIMEx_HallSensor_Start_IT:00000000000000f8 $d
/var/folders/d0/cymppscj10lcmm48h781wrc80000gn/T//cc0qcKWW.s:962    .text.HAL_TIMEx_HallSensor_Stop_IT:0000000000000000 $t
/var/folders/d0/cymppscj10lcmm48h781wrc80000gn/T//cc0qcKWW.s:968    .text.HAL_TIMEx_HallSensor_Stop_IT:0000000000000000 HAL_TIMEx_HallSensor_Stop_IT
/var/folders/d0/cymppscj10lcmm48h781wrc80000gn/T//cc0qcKWW.s:1057   .text.HAL_TIMEx_HallSensor_Stop_IT:0000000000000078 $d
/var/folders/d0/cymppscj10lcmm48h781wrc80000gn/T//cc0qcKWW.s:1063   .text.HAL_TIMEx_HallSensor_Start_DMA:0000000000000000 $t
/var/folders/d0/cymppscj10lcmm48h781wrc80000gn/T//cc0qcKWW.s:1069   .text.HAL_TIMEx_HallSensor_Start_DMA:0000000000000000 HAL_TIMEx_HallSensor_Start_DMA
/var/folders/d0/cymppscj10lcmm48h781wrc80000gn/T//cc0qcKWW.s:1286   .text.HAL_TIMEx_HallSensor_Start_DMA:000000000000012c $d
/var/folders/d0/cymppscj10lcmm48h781wrc80000gn/T//cc0qcKWW.s:1296   .text.HAL_TIMEx_HallSensor_Stop_DMA:0000000000000000 $t
/var/folders/d0/cymppscj10lcmm48h781wrc80000gn/T//cc0qcKWW.s:1302   .text.HAL_TIMEx_HallSensor_Stop_DMA:0000000000000000 HAL_TIMEx_HallSensor_Stop_DMA
/var/folders/d0/cymppscj10lcmm48h781wrc80000gn/T//cc0qcKWW.s:1386   .text.HAL_TIMEx_HallSensor_Stop_DMA:0000000000000074 $d
/var/folders/d0/cymppscj10lcmm48h781wrc80000gn/T//cc0qcKWW.s:1393   .text.HAL_TIMEx_OCN_Start:0000000000000000 $t
/var/folders/d0/cymppscj10lcmm48h781wrc80000gn/T//cc0qcKWW.s:1399   .text.HAL_TIMEx_OCN_Start:0000000000000000 HAL_TIMEx_OCN_Start
/var/folders/d0/cymppscj10lcmm48h781wrc80000gn/T//cc0qcKWW.s:6663   .text.TIM_CCxNChannelCmd:0000000000000000 TIM_CCxNChannelCmd
/var/folders/d0/cymppscj10lcmm48h781wrc80000gn/T//cc0qcKWW.s:1607   .text.HAL_TIMEx_OCN_Start:0000000000000120 $d
/var/folders/d0/cymppscj10lcmm48h781wrc80000gn/T//cc0qcKWW.s:1614   .text.HAL_TIMEx_OCN_Stop:0000000000000000 $t
/var/folders/d0/cymppscj10lcmm48h781wrc80000gn/T//cc0qcKWW.s:1620   .text.HAL_TIMEx_OCN_Stop:0000000000000000 HAL_TIMEx_OCN_Stop
/var/folders/d0/cymppscj10lcmm48h781wrc80000gn/T//cc0qcKWW.s:1744   .text.HAL_TIMEx_OCN_Stop:00000000000000ac $d
/var/folders/d0/cymppscj10lcmm48h781wrc80000gn/T//cc0qcKWW.s:1751   .text.HAL_TIMEx_OCN_Start_IT:0000000000000000 $t
/var/folders/d0/cymppscj10lcmm48h781wrc80000gn/T//cc0qcKWW.s:1757   .text.HAL_TIMEx_OCN_Start_IT:0000000000000000 HAL_TIMEx_OCN_Start_IT
/var/folders/d0/cymppscj10lcmm48h781wrc80000gn/T//cc0qcKWW.s:2046   .text.HAL_TIMEx_OCN_Start_IT:00000000000001a0 $d
/var/folders/d0/cymppscj10lcmm48h781wrc80000gn/T//cc0qcKWW.s:2053   .text.HAL_TIMEx_OCN_Stop_IT:0000000000000000 $t
/var/folders/d0/cymppscj10lcmm48h781wrc80000gn/T//cc0qcKWW.s:2059   .text.HAL_TIMEx_OCN_Stop_IT:0000000000000000 HAL_TIMEx_OCN_Stop_IT
/var/folders/d0/cymppscj10lcmm48h781wrc80000gn/T//cc0qcKWW.s:2277   .text.HAL_TIMEx_OCN_Stop_IT:000000000000013c $d
/var/folders/d0/cymppscj10lcmm48h781wrc80000gn/T//cc0qcKWW.s:2284   .text.HAL_TIMEx_OCN_Start_DMA:0000000000000000 $t
/var/folders/d0/cymppscj10lcmm48h781wrc80000gn/T//cc0qcKWW.s:2290   .text.HAL_TIMEx_OCN_Start_DMA:0000000000000000 HAL_TIMEx_OCN_Start_DMA
/var/folders/d0/cymppscj10lcmm48h781wrc80000gn/T//cc0qcKWW.s:2776   .text.HAL_TIMEx_OCN_Start_DMA:00000000000002b4 $d
/var/folders/d0/cymppscj10lcmm48h781wrc80000gn/T//cc0qcKWW.s:6415   .text.TIM_DMADelayPulseNCplt:0000000000000000 TIM_DMADelayPulseNCplt
/var/folders/d0/cymppscj10lcmm48h781wrc80000gn/T//cc0qcKWW.s:6560   .text.TIM_DMAErrorCCxN:0000000000000000 TIM_DMAErrorCCxN
/var/folders/d0/cymppscj10lcmm48h781wrc80000gn/T//cc0qcKWW.s:2786   .text.HAL_TIMEx_OCN_Stop_DMA:0000000000000000 $t
/var/folders/d0/cymppscj10lcmm48h781wrc80000gn/T//cc0qcKWW.s:2792   .text.HAL_TIMEx_OCN_Stop_DMA:0000000000000000 HAL_TIMEx_OCN_Stop_DMA
/var/folders/d0/cymppscj10lcmm48h781wrc80000gn/T//cc0qcKWW.s:3003   .text.HAL_TIMEx_OCN_Stop_DMA:0000000000000138 $d
/var/folders/d0/cymppscj10lcmm48h781wrc80000gn/T//cc0qcKWW.s:3013   .text.HAL_TIMEx_PWMN_Start:0000000000000000 $t
/var/folders/d0/cymppscj10lcmm48h781wrc80000gn/T//cc0qcKWW.s:3019   .text.HAL_TIMEx_PWMN_Start:0000000000000000 HAL_TIMEx_PWMN_Start
/var/folders/d0/cymppscj10lcmm48h781wrc80000gn/T//cc0qcKWW.s:3227   .text.HAL_TIMEx_PWMN_Start:0000000000000120 $d
/var/folders/d0/cymppscj10lcmm48h781wrc80000gn/T//cc0qcKWW.s:3234   .text.HAL_TIMEx_PWMN_Stop:0000000000000000 $t
/var/folders/d0/cymppscj10lcmm48h781wrc80000gn/T//cc0qcKWW.s:3240   .text.HAL_TIMEx_PWMN_Stop:0000000000000000 HAL_TIMEx_PWMN_Stop
/var/folders/d0/cymppscj10lcmm48h781wrc80000gn/T//cc0qcKWW.s:3364   .text.HAL_TIMEx_PWMN_Stop:00000000000000ac $d
ARM GAS  /var/folders/d0/cymppscj10lcmm48h781wrc80000gn/T//cc0qcKWW.s 			page 161


/var/folders/d0/cymppscj10lcmm48h781wrc80000gn/T//cc0qcKWW.s:3371   .text.HAL_TIMEx_PWMN_Start_IT:0000000000000000 $t
/var/folders/d0/cymppscj10lcmm48h781wrc80000gn/T//cc0qcKWW.s:3377   .text.HAL_TIMEx_PWMN_Start_IT:0000000000000000 HAL_TIMEx_PWMN_Start_IT
/var/folders/d0/cymppscj10lcmm48h781wrc80000gn/T//cc0qcKWW.s:3666   .text.HAL_TIMEx_PWMN_Start_IT:00000000000001a0 $d
/var/folders/d0/cymppscj10lcmm48h781wrc80000gn/T//cc0qcKWW.s:3673   .text.HAL_TIMEx_PWMN_Stop_IT:0000000000000000 $t
/var/folders/d0/cymppscj10lcmm48h781wrc80000gn/T//cc0qcKWW.s:3679   .text.HAL_TIMEx_PWMN_Stop_IT:0000000000000000 HAL_TIMEx_PWMN_Stop_IT
/var/folders/d0/cymppscj10lcmm48h781wrc80000gn/T//cc0qcKWW.s:3897   .text.HAL_TIMEx_PWMN_Stop_IT:000000000000013c $d
/var/folders/d0/cymppscj10lcmm48h781wrc80000gn/T//cc0qcKWW.s:3904   .text.HAL_TIMEx_PWMN_Start_DMA:0000000000000000 $t
/var/folders/d0/cymppscj10lcmm48h781wrc80000gn/T//cc0qcKWW.s:3910   .text.HAL_TIMEx_PWMN_Start_DMA:0000000000000000 HAL_TIMEx_PWMN_Start_DMA
/var/folders/d0/cymppscj10lcmm48h781wrc80000gn/T//cc0qcKWW.s:4396   .text.HAL_TIMEx_PWMN_Start_DMA:00000000000002b4 $d
/var/folders/d0/cymppscj10lcmm48h781wrc80000gn/T//cc0qcKWW.s:4406   .text.HAL_TIMEx_PWMN_Stop_DMA:0000000000000000 $t
/var/folders/d0/cymppscj10lcmm48h781wrc80000gn/T//cc0qcKWW.s:4412   .text.HAL_TIMEx_PWMN_Stop_DMA:0000000000000000 HAL_TIMEx_PWMN_Stop_DMA
/var/folders/d0/cymppscj10lcmm48h781wrc80000gn/T//cc0qcKWW.s:4623   .text.HAL_TIMEx_PWMN_Stop_DMA:0000000000000138 $d
/var/folders/d0/cymppscj10lcmm48h781wrc80000gn/T//cc0qcKWW.s:4633   .text.HAL_TIMEx_OnePulseN_Start:0000000000000000 $t
/var/folders/d0/cymppscj10lcmm48h781wrc80000gn/T//cc0qcKWW.s:4639   .text.HAL_TIMEx_OnePulseN_Start:0000000000000000 HAL_TIMEx_OnePulseN_Start
/var/folders/d0/cymppscj10lcmm48h781wrc80000gn/T//cc0qcKWW.s:4784   .text.HAL_TIMEx_OnePulseN_Stop:0000000000000000 $t
/var/folders/d0/cymppscj10lcmm48h781wrc80000gn/T//cc0qcKWW.s:4790   .text.HAL_TIMEx_OnePulseN_Stop:0000000000000000 HAL_TIMEx_OnePulseN_Stop
/var/folders/d0/cymppscj10lcmm48h781wrc80000gn/T//cc0qcKWW.s:4915   .text.HAL_TIMEx_OnePulseN_Stop:00000000000000b0 $d
/var/folders/d0/cymppscj10lcmm48h781wrc80000gn/T//cc0qcKWW.s:4922   .text.HAL_TIMEx_OnePulseN_Start_IT:0000000000000000 $t
/var/folders/d0/cymppscj10lcmm48h781wrc80000gn/T//cc0qcKWW.s:4928   .text.HAL_TIMEx_OnePulseN_Start_IT:0000000000000000 HAL_TIMEx_OnePulseN_Start_IT
/var/folders/d0/cymppscj10lcmm48h781wrc80000gn/T//cc0qcKWW.s:5091   .text.HAL_TIMEx_OnePulseN_Stop_IT:0000000000000000 $t
/var/folders/d0/cymppscj10lcmm48h781wrc80000gn/T//cc0qcKWW.s:5097   .text.HAL_TIMEx_OnePulseN_Stop_IT:0000000000000000 HAL_TIMEx_OnePulseN_Stop_IT
/var/folders/d0/cymppscj10lcmm48h781wrc80000gn/T//cc0qcKWW.s:5240   .text.HAL_TIMEx_OnePulseN_Stop_IT:00000000000000d0 $d
/var/folders/d0/cymppscj10lcmm48h781wrc80000gn/T//cc0qcKWW.s:5247   .text.HAL_TIMEx_ConfigCommutEvent:0000000000000000 $t
/var/folders/d0/cymppscj10lcmm48h781wrc80000gn/T//cc0qcKWW.s:5253   .text.HAL_TIMEx_ConfigCommutEvent:0000000000000000 HAL_TIMEx_ConfigCommutEvent
/var/folders/d0/cymppscj10lcmm48h781wrc80000gn/T//cc0qcKWW.s:5401   .text.HAL_TIMEx_ConfigCommutEvent:00000000000000bc $d
/var/folders/d0/cymppscj10lcmm48h781wrc80000gn/T//cc0qcKWW.s:5406   .text.HAL_TIMEx_ConfigCommutEvent_IT:0000000000000000 $t
/var/folders/d0/cymppscj10lcmm48h781wrc80000gn/T//cc0qcKWW.s:5412   .text.HAL_TIMEx_ConfigCommutEvent_IT:0000000000000000 HAL_TIMEx_ConfigCommutEvent_IT
/var/folders/d0/cymppscj10lcmm48h781wrc80000gn/T//cc0qcKWW.s:5560   .text.HAL_TIMEx_ConfigCommutEvent_IT:00000000000000bc $d
/var/folders/d0/cymppscj10lcmm48h781wrc80000gn/T//cc0qcKWW.s:5565   .text.HAL_TIMEx_ConfigCommutEvent_DMA:0000000000000000 $t
/var/folders/d0/cymppscj10lcmm48h781wrc80000gn/T//cc0qcKWW.s:5571   .text.HAL_TIMEx_ConfigCommutEvent_DMA:0000000000000000 HAL_TIMEx_ConfigCommutEvent_DMA
/var/folders/d0/cymppscj10lcmm48h781wrc80000gn/T//cc0qcKWW.s:5738   .text.HAL_TIMEx_ConfigCommutEvent_DMA:00000000000000d8 $d
/var/folders/d0/cymppscj10lcmm48h781wrc80000gn/T//cc0qcKWW.s:6312   .text.TIMEx_DMACommutationCplt:0000000000000000 TIMEx_DMACommutationCplt
/var/folders/d0/cymppscj10lcmm48h781wrc80000gn/T//cc0qcKWW.s:6364   .text.TIMEx_DMACommutationHalfCplt:0000000000000000 TIMEx_DMACommutationHalfCplt
/var/folders/d0/cymppscj10lcmm48h781wrc80000gn/T//cc0qcKWW.s:5745   .text.HAL_TIMEx_MasterConfigSynchronization:0000000000000000 $t
/var/folders/d0/cymppscj10lcmm48h781wrc80000gn/T//cc0qcKWW.s:5751   .text.HAL_TIMEx_MasterConfigSynchronization:0000000000000000 HAL_TIMEx_MasterConfigSynchronization
/var/folders/d0/cymppscj10lcmm48h781wrc80000gn/T//cc0qcKWW.s:5881   .text.HAL_TIMEx_MasterConfigSynchronization:00000000000000a4 $d
/var/folders/d0/cymppscj10lcmm48h781wrc80000gn/T//cc0qcKWW.s:5888   .text.HAL_TIMEx_ConfigBreakDeadTime:0000000000000000 $t
/var/folders/d0/cymppscj10lcmm48h781wrc80000gn/T//cc0qcKWW.s:5894   .text.HAL_TIMEx_ConfigBreakDeadTime:0000000000000000 HAL_TIMEx_ConfigBreakDeadTime
/var/folders/d0/cymppscj10lcmm48h781wrc80000gn/T//cc0qcKWW.s:6011   .text.HAL_TIMEx_ConfigBreakDeadTime:00000000000000a4 $d
/var/folders/d0/cymppscj10lcmm48h781wrc80000gn/T//cc0qcKWW.s:6021   .text.HAL_TIMEx_RemapConfig:0000000000000000 $t
/var/folders/d0/cymppscj10lcmm48h781wrc80000gn/T//cc0qcKWW.s:6027   .text.HAL_TIMEx_RemapConfig:0000000000000000 HAL_TIMEx_RemapConfig
/var/folders/d0/cymppscj10lcmm48h781wrc80000gn/T//cc0qcKWW.s:6084   .text.HAL_TIMEx_CommutCallback:0000000000000000 $t
/var/folders/d0/cymppscj10lcmm48h781wrc80000gn/T//cc0qcKWW.s:6090   .text.HAL_TIMEx_CommutCallback:0000000000000000 HAL_TIMEx_CommutCallback
/var/folders/d0/cymppscj10lcmm48h781wrc80000gn/T//cc0qcKWW.s:6118   .text.HAL_TIMEx_CommutHalfCpltCallback:0000000000000000 $t
/var/folders/d0/cymppscj10lcmm48h781wrc80000gn/T//cc0qcKWW.s:6124   .text.HAL_TIMEx_CommutHalfCpltCallback:0000000000000000 HAL_TIMEx_CommutHalfCpltCallback
/var/folders/d0/cymppscj10lcmm48h781wrc80000gn/T//cc0qcKWW.s:6152   .text.HAL_TIMEx_BreakCallback:0000000000000000 $t
/var/folders/d0/cymppscj10lcmm48h781wrc80000gn/T//cc0qcKWW.s:6158   .text.HAL_TIMEx_BreakCallback:0000000000000000 HAL_TIMEx_BreakCallback
/var/folders/d0/cymppscj10lcmm48h781wrc80000gn/T//cc0qcKWW.s:6186   .text.HAL_TIMEx_HallSensor_GetState:0000000000000000 $t
/var/folders/d0/cymppscj10lcmm48h781wrc80000gn/T//cc0qcKWW.s:6192   .text.HAL_TIMEx_HallSensor_GetState:0000000000000000 HAL_TIMEx_HallSensor_GetState
/var/folders/d0/cymppscj10lcmm48h781wrc80000gn/T//cc0qcKWW.s:6225   .text.HAL_TIMEx_GetChannelNState:0000000000000000 $t
/var/folders/d0/cymppscj10lcmm48h781wrc80000gn/T//cc0qcKWW.s:6231   .text.HAL_TIMEx_GetChannelNState:0000000000000000 HAL_TIMEx_GetChannelNState
/var/folders/d0/cymppscj10lcmm48h781wrc80000gn/T//cc0qcKWW.s:6306   .text.TIMEx_DMACommutationCplt:0000000000000000 $t
/var/folders/d0/cymppscj10lcmm48h781wrc80000gn/T//cc0qcKWW.s:6358   .text.TIMEx_DMACommutationHalfCplt:0000000000000000 $t
/var/folders/d0/cymppscj10lcmm48h781wrc80000gn/T//cc0qcKWW.s:6410   .text.TIM_DMADelayPulseNCplt:0000000000000000 $t
/var/folders/d0/cymppscj10lcmm48h781wrc80000gn/T//cc0qcKWW.s:6555   .text.TIM_DMAErrorCCxN:0000000000000000 $t
/var/folders/d0/cymppscj10lcmm48h781wrc80000gn/T//cc0qcKWW.s:6658   .text.TIM_CCxNChannelCmd:0000000000000000 $t

ARM GAS  /var/folders/d0/cymppscj10lcmm48h781wrc80000gn/T//cc0qcKWW.s 			page 162


UNDEFINED SYMBOLS
TIM_ResetCallback
TIM_Base_SetConfig
TIM_TI1_SetConfig
TIM_OC2_SetConfig
TIM_CCxChannelCmd
HAL_DMA_Start_IT
TIM_DMACaptureCplt
TIM_DMACaptureHalfCplt
TIM_DMAError
HAL_DMA_Abort_IT
TIM_DMADelayPulseHalfCplt
