ARM GAS  /var/folders/d0/cymppscj10lcmm48h781wrc80000gn/T//cc0qcKWW.s 			page 1


   1              		.cpu cortex-m0
   2              		.arch armv6s-m
   3              		.fpu softvfp
   4              		.eabi_attribute 20, 1
   5              		.eabi_attribute 21, 1
   6              		.eabi_attribute 23, 3
   7              		.eabi_attribute 24, 1
   8              		.eabi_attribute 25, 1
   9              		.eabi_attribute 26, 1
  10              		.eabi_attribute 30, 6
  11              		.eabi_attribute 34, 0
  12              		.eabi_attribute 18, 4
  13              		.file	"stm32f0xx_hal_tim_ex.c"
  14              		.text
  15              	.Ltext0:
  16              		.cfi_sections	.debug_frame
  17              		.section	.text.HAL_TIMEx_HallSensor_Init,"ax",%progbits
  18              		.align	1
  19              		.global	HAL_TIMEx_HallSensor_Init
  20              		.syntax unified
  21              		.code	16
  22              		.thumb_func
  24              	HAL_TIMEx_HallSensor_Init:
  25              	.LFB40:
  26              		.file 1 "Drivers/STM32F0xx_HAL_Driver/Src/stm32f0xx_hal_tim_ex.c"
   1:Drivers/STM32F0xx_HAL_Driver/Src/stm32f0xx_hal_tim_ex.c **** /**
   2:Drivers/STM32F0xx_HAL_Driver/Src/stm32f0xx_hal_tim_ex.c ****   ******************************************************************************
   3:Drivers/STM32F0xx_HAL_Driver/Src/stm32f0xx_hal_tim_ex.c ****   * @file    stm32f0xx_hal_tim_ex.c
   4:Drivers/STM32F0xx_HAL_Driver/Src/stm32f0xx_hal_tim_ex.c ****   * @author  MCD Application Team
   5:Drivers/STM32F0xx_HAL_Driver/Src/stm32f0xx_hal_tim_ex.c ****   * @brief   TIM HAL module driver.
   6:Drivers/STM32F0xx_HAL_Driver/Src/stm32f0xx_hal_tim_ex.c ****   *          This file provides firmware functions to manage the following
   7:Drivers/STM32F0xx_HAL_Driver/Src/stm32f0xx_hal_tim_ex.c ****   *          functionalities of the Timer Extended peripheral:
   8:Drivers/STM32F0xx_HAL_Driver/Src/stm32f0xx_hal_tim_ex.c ****   *           + Time Hall Sensor Interface Initialization
   9:Drivers/STM32F0xx_HAL_Driver/Src/stm32f0xx_hal_tim_ex.c ****   *           + Time Hall Sensor Interface Start
  10:Drivers/STM32F0xx_HAL_Driver/Src/stm32f0xx_hal_tim_ex.c ****   *           + Time Complementary signal break and dead time configuration
  11:Drivers/STM32F0xx_HAL_Driver/Src/stm32f0xx_hal_tim_ex.c ****   *           + Time Master and Slave synchronization configuration
  12:Drivers/STM32F0xx_HAL_Driver/Src/stm32f0xx_hal_tim_ex.c ****   *           + Time OCRef clear configuration
  13:Drivers/STM32F0xx_HAL_Driver/Src/stm32f0xx_hal_tim_ex.c ****   *           + Timer remapping capabilities configuration
  14:Drivers/STM32F0xx_HAL_Driver/Src/stm32f0xx_hal_tim_ex.c ****   @verbatim
  15:Drivers/STM32F0xx_HAL_Driver/Src/stm32f0xx_hal_tim_ex.c ****   ==============================================================================
  16:Drivers/STM32F0xx_HAL_Driver/Src/stm32f0xx_hal_tim_ex.c ****                       ##### TIMER Extended features #####
  17:Drivers/STM32F0xx_HAL_Driver/Src/stm32f0xx_hal_tim_ex.c ****   ==============================================================================
  18:Drivers/STM32F0xx_HAL_Driver/Src/stm32f0xx_hal_tim_ex.c ****   [..]
  19:Drivers/STM32F0xx_HAL_Driver/Src/stm32f0xx_hal_tim_ex.c ****     The Timer Extended features include:
  20:Drivers/STM32F0xx_HAL_Driver/Src/stm32f0xx_hal_tim_ex.c ****     (#) Complementary outputs with programmable dead-time for :
  21:Drivers/STM32F0xx_HAL_Driver/Src/stm32f0xx_hal_tim_ex.c ****         (++) Output Compare
  22:Drivers/STM32F0xx_HAL_Driver/Src/stm32f0xx_hal_tim_ex.c ****         (++) PWM generation (Edge and Center-aligned Mode)
  23:Drivers/STM32F0xx_HAL_Driver/Src/stm32f0xx_hal_tim_ex.c ****         (++) One-pulse mode output
  24:Drivers/STM32F0xx_HAL_Driver/Src/stm32f0xx_hal_tim_ex.c ****     (#) Synchronization circuit to control the timer with external signals and to
  25:Drivers/STM32F0xx_HAL_Driver/Src/stm32f0xx_hal_tim_ex.c ****         interconnect several timers together.
  26:Drivers/STM32F0xx_HAL_Driver/Src/stm32f0xx_hal_tim_ex.c ****     (#) Break input to put the timer output signals in reset state or in a known state.
  27:Drivers/STM32F0xx_HAL_Driver/Src/stm32f0xx_hal_tim_ex.c ****     (#) Supports incremental (quadrature) encoder and hall-sensor circuitry for
  28:Drivers/STM32F0xx_HAL_Driver/Src/stm32f0xx_hal_tim_ex.c ****         positioning purposes
  29:Drivers/STM32F0xx_HAL_Driver/Src/stm32f0xx_hal_tim_ex.c **** 
  30:Drivers/STM32F0xx_HAL_Driver/Src/stm32f0xx_hal_tim_ex.c ****             ##### How to use this driver #####
  31:Drivers/STM32F0xx_HAL_Driver/Src/stm32f0xx_hal_tim_ex.c ****   ==============================================================================
  32:Drivers/STM32F0xx_HAL_Driver/Src/stm32f0xx_hal_tim_ex.c ****     [..]
ARM GAS  /var/folders/d0/cymppscj10lcmm48h781wrc80000gn/T//cc0qcKWW.s 			page 2


  33:Drivers/STM32F0xx_HAL_Driver/Src/stm32f0xx_hal_tim_ex.c ****      (#) Initialize the TIM low level resources by implementing the following functions
  34:Drivers/STM32F0xx_HAL_Driver/Src/stm32f0xx_hal_tim_ex.c ****          depending on the selected feature:
  35:Drivers/STM32F0xx_HAL_Driver/Src/stm32f0xx_hal_tim_ex.c ****            (++) Hall Sensor output : HAL_TIMEx_HallSensor_MspInit()
  36:Drivers/STM32F0xx_HAL_Driver/Src/stm32f0xx_hal_tim_ex.c **** 
  37:Drivers/STM32F0xx_HAL_Driver/Src/stm32f0xx_hal_tim_ex.c ****      (#) Initialize the TIM low level resources :
  38:Drivers/STM32F0xx_HAL_Driver/Src/stm32f0xx_hal_tim_ex.c ****         (##) Enable the TIM interface clock using __HAL_RCC_TIMx_CLK_ENABLE();
  39:Drivers/STM32F0xx_HAL_Driver/Src/stm32f0xx_hal_tim_ex.c ****         (##) TIM pins configuration
  40:Drivers/STM32F0xx_HAL_Driver/Src/stm32f0xx_hal_tim_ex.c ****             (+++) Enable the clock for the TIM GPIOs using the following function:
  41:Drivers/STM32F0xx_HAL_Driver/Src/stm32f0xx_hal_tim_ex.c ****               __HAL_RCC_GPIOx_CLK_ENABLE();
  42:Drivers/STM32F0xx_HAL_Driver/Src/stm32f0xx_hal_tim_ex.c ****             (+++) Configure these TIM pins in Alternate function mode using HAL_GPIO_Init();
  43:Drivers/STM32F0xx_HAL_Driver/Src/stm32f0xx_hal_tim_ex.c **** 
  44:Drivers/STM32F0xx_HAL_Driver/Src/stm32f0xx_hal_tim_ex.c ****      (#) The external Clock can be configured, if needed (the default clock is the
  45:Drivers/STM32F0xx_HAL_Driver/Src/stm32f0xx_hal_tim_ex.c ****          internal clock from the APBx), using the following function:
  46:Drivers/STM32F0xx_HAL_Driver/Src/stm32f0xx_hal_tim_ex.c ****          HAL_TIM_ConfigClockSource, the clock configuration should be done before
  47:Drivers/STM32F0xx_HAL_Driver/Src/stm32f0xx_hal_tim_ex.c ****          any start function.
  48:Drivers/STM32F0xx_HAL_Driver/Src/stm32f0xx_hal_tim_ex.c **** 
  49:Drivers/STM32F0xx_HAL_Driver/Src/stm32f0xx_hal_tim_ex.c ****      (#) Configure the TIM in the desired functioning mode using one of the
  50:Drivers/STM32F0xx_HAL_Driver/Src/stm32f0xx_hal_tim_ex.c ****          initialization function of this driver:
  51:Drivers/STM32F0xx_HAL_Driver/Src/stm32f0xx_hal_tim_ex.c ****           (++) HAL_TIMEx_HallSensor_Init() and HAL_TIMEx_ConfigCommutEvent(): to use the
  52:Drivers/STM32F0xx_HAL_Driver/Src/stm32f0xx_hal_tim_ex.c ****                Timer Hall Sensor Interface and the commutation event with the corresponding
  53:Drivers/STM32F0xx_HAL_Driver/Src/stm32f0xx_hal_tim_ex.c ****                Interrupt and DMA request if needed (Note that One Timer is used to interface
  54:Drivers/STM32F0xx_HAL_Driver/Src/stm32f0xx_hal_tim_ex.c ****                with the Hall sensor Interface and another Timer should be used to use
  55:Drivers/STM32F0xx_HAL_Driver/Src/stm32f0xx_hal_tim_ex.c ****                the commutation event).
  56:Drivers/STM32F0xx_HAL_Driver/Src/stm32f0xx_hal_tim_ex.c **** 
  57:Drivers/STM32F0xx_HAL_Driver/Src/stm32f0xx_hal_tim_ex.c ****      (#) Activate the TIM peripheral using one of the start functions:
  58:Drivers/STM32F0xx_HAL_Driver/Src/stm32f0xx_hal_tim_ex.c ****            (++) Complementary Output Compare : HAL_TIMEx_OCN_Start(), HAL_TIMEx_OCN_Start_DMA(),
  59:Drivers/STM32F0xx_HAL_Driver/Src/stm32f0xx_hal_tim_ex.c ****                 HAL_TIMEx_OCN_Start_IT()
  60:Drivers/STM32F0xx_HAL_Driver/Src/stm32f0xx_hal_tim_ex.c ****            (++) Complementary PWM generation : HAL_TIMEx_PWMN_Start(), HAL_TIMEx_PWMN_Start_DMA(),
  61:Drivers/STM32F0xx_HAL_Driver/Src/stm32f0xx_hal_tim_ex.c ****                 HAL_TIMEx_PWMN_Start_IT()
  62:Drivers/STM32F0xx_HAL_Driver/Src/stm32f0xx_hal_tim_ex.c ****            (++) Complementary One-pulse mode output : HAL_TIMEx_OnePulseN_Start(), HAL_TIMEx_OnePul
  63:Drivers/STM32F0xx_HAL_Driver/Src/stm32f0xx_hal_tim_ex.c ****            (++) Hall Sensor output : HAL_TIMEx_HallSensor_Start(), HAL_TIMEx_HallSensor_Start_DMA()
  64:Drivers/STM32F0xx_HAL_Driver/Src/stm32f0xx_hal_tim_ex.c ****                 HAL_TIMEx_HallSensor_Start_IT().
  65:Drivers/STM32F0xx_HAL_Driver/Src/stm32f0xx_hal_tim_ex.c **** 
  66:Drivers/STM32F0xx_HAL_Driver/Src/stm32f0xx_hal_tim_ex.c ****   @endverbatim
  67:Drivers/STM32F0xx_HAL_Driver/Src/stm32f0xx_hal_tim_ex.c ****   ******************************************************************************
  68:Drivers/STM32F0xx_HAL_Driver/Src/stm32f0xx_hal_tim_ex.c ****   * @attention
  69:Drivers/STM32F0xx_HAL_Driver/Src/stm32f0xx_hal_tim_ex.c ****   *
  70:Drivers/STM32F0xx_HAL_Driver/Src/stm32f0xx_hal_tim_ex.c ****   * <h2><center>&copy; Copyright (c) 2016 STMicroelectronics.
  71:Drivers/STM32F0xx_HAL_Driver/Src/stm32f0xx_hal_tim_ex.c ****   * All rights reserved.</center></h2>
  72:Drivers/STM32F0xx_HAL_Driver/Src/stm32f0xx_hal_tim_ex.c ****   *
  73:Drivers/STM32F0xx_HAL_Driver/Src/stm32f0xx_hal_tim_ex.c ****   * This software component is licensed by ST under BSD 3-Clause license,
  74:Drivers/STM32F0xx_HAL_Driver/Src/stm32f0xx_hal_tim_ex.c ****   * the "License"; You may not use this file except in compliance with the
  75:Drivers/STM32F0xx_HAL_Driver/Src/stm32f0xx_hal_tim_ex.c ****   * License. You may obtain a copy of the License at:
  76:Drivers/STM32F0xx_HAL_Driver/Src/stm32f0xx_hal_tim_ex.c ****   *                        opensource.org/licenses/BSD-3-Clause
  77:Drivers/STM32F0xx_HAL_Driver/Src/stm32f0xx_hal_tim_ex.c ****   *
  78:Drivers/STM32F0xx_HAL_Driver/Src/stm32f0xx_hal_tim_ex.c ****   ******************************************************************************
  79:Drivers/STM32F0xx_HAL_Driver/Src/stm32f0xx_hal_tim_ex.c ****   */
  80:Drivers/STM32F0xx_HAL_Driver/Src/stm32f0xx_hal_tim_ex.c **** 
  81:Drivers/STM32F0xx_HAL_Driver/Src/stm32f0xx_hal_tim_ex.c **** /* Includes ------------------------------------------------------------------*/
  82:Drivers/STM32F0xx_HAL_Driver/Src/stm32f0xx_hal_tim_ex.c **** #include "stm32f0xx_hal.h"
  83:Drivers/STM32F0xx_HAL_Driver/Src/stm32f0xx_hal_tim_ex.c **** 
  84:Drivers/STM32F0xx_HAL_Driver/Src/stm32f0xx_hal_tim_ex.c **** /** @addtogroup STM32F0xx_HAL_Driver
  85:Drivers/STM32F0xx_HAL_Driver/Src/stm32f0xx_hal_tim_ex.c ****   * @{
  86:Drivers/STM32F0xx_HAL_Driver/Src/stm32f0xx_hal_tim_ex.c ****   */
  87:Drivers/STM32F0xx_HAL_Driver/Src/stm32f0xx_hal_tim_ex.c **** 
  88:Drivers/STM32F0xx_HAL_Driver/Src/stm32f0xx_hal_tim_ex.c **** /** @defgroup TIMEx TIMEx
  89:Drivers/STM32F0xx_HAL_Driver/Src/stm32f0xx_hal_tim_ex.c ****   * @brief TIM Extended HAL module driver
ARM GAS  /var/folders/d0/cymppscj10lcmm48h781wrc80000gn/T//cc0qcKWW.s 			page 3


  90:Drivers/STM32F0xx_HAL_Driver/Src/stm32f0xx_hal_tim_ex.c ****   * @{
  91:Drivers/STM32F0xx_HAL_Driver/Src/stm32f0xx_hal_tim_ex.c ****   */
  92:Drivers/STM32F0xx_HAL_Driver/Src/stm32f0xx_hal_tim_ex.c **** 
  93:Drivers/STM32F0xx_HAL_Driver/Src/stm32f0xx_hal_tim_ex.c **** #ifdef HAL_TIM_MODULE_ENABLED
  94:Drivers/STM32F0xx_HAL_Driver/Src/stm32f0xx_hal_tim_ex.c **** 
  95:Drivers/STM32F0xx_HAL_Driver/Src/stm32f0xx_hal_tim_ex.c **** /* Private typedef -----------------------------------------------------------*/
  96:Drivers/STM32F0xx_HAL_Driver/Src/stm32f0xx_hal_tim_ex.c **** /* Private define ------------------------------------------------------------*/
  97:Drivers/STM32F0xx_HAL_Driver/Src/stm32f0xx_hal_tim_ex.c **** /* Private macros ------------------------------------------------------------*/
  98:Drivers/STM32F0xx_HAL_Driver/Src/stm32f0xx_hal_tim_ex.c **** /* Private variables ---------------------------------------------------------*/
  99:Drivers/STM32F0xx_HAL_Driver/Src/stm32f0xx_hal_tim_ex.c **** /* Private function prototypes -----------------------------------------------*/
 100:Drivers/STM32F0xx_HAL_Driver/Src/stm32f0xx_hal_tim_ex.c **** static void TIM_DMADelayPulseNCplt(DMA_HandleTypeDef *hdma);
 101:Drivers/STM32F0xx_HAL_Driver/Src/stm32f0xx_hal_tim_ex.c **** static void TIM_DMAErrorCCxN(DMA_HandleTypeDef *hdma);
 102:Drivers/STM32F0xx_HAL_Driver/Src/stm32f0xx_hal_tim_ex.c **** static void TIM_CCxNChannelCmd(TIM_TypeDef *TIMx, uint32_t Channel, uint32_t ChannelNState);
 103:Drivers/STM32F0xx_HAL_Driver/Src/stm32f0xx_hal_tim_ex.c **** 
 104:Drivers/STM32F0xx_HAL_Driver/Src/stm32f0xx_hal_tim_ex.c **** /* Exported functions --------------------------------------------------------*/
 105:Drivers/STM32F0xx_HAL_Driver/Src/stm32f0xx_hal_tim_ex.c **** /** @defgroup TIMEx_Exported_Functions TIM Extended Exported Functions
 106:Drivers/STM32F0xx_HAL_Driver/Src/stm32f0xx_hal_tim_ex.c ****   * @{
 107:Drivers/STM32F0xx_HAL_Driver/Src/stm32f0xx_hal_tim_ex.c ****   */
 108:Drivers/STM32F0xx_HAL_Driver/Src/stm32f0xx_hal_tim_ex.c **** 
 109:Drivers/STM32F0xx_HAL_Driver/Src/stm32f0xx_hal_tim_ex.c **** /** @defgroup TIMEx_Exported_Functions_Group1 Extended Timer Hall Sensor functions
 110:Drivers/STM32F0xx_HAL_Driver/Src/stm32f0xx_hal_tim_ex.c ****   * @brief    Timer Hall Sensor functions
 111:Drivers/STM32F0xx_HAL_Driver/Src/stm32f0xx_hal_tim_ex.c ****   *
 112:Drivers/STM32F0xx_HAL_Driver/Src/stm32f0xx_hal_tim_ex.c **** @verbatim
 113:Drivers/STM32F0xx_HAL_Driver/Src/stm32f0xx_hal_tim_ex.c ****   ==============================================================================
 114:Drivers/STM32F0xx_HAL_Driver/Src/stm32f0xx_hal_tim_ex.c ****                       ##### Timer Hall Sensor functions #####
 115:Drivers/STM32F0xx_HAL_Driver/Src/stm32f0xx_hal_tim_ex.c ****   ==============================================================================
 116:Drivers/STM32F0xx_HAL_Driver/Src/stm32f0xx_hal_tim_ex.c ****   [..]
 117:Drivers/STM32F0xx_HAL_Driver/Src/stm32f0xx_hal_tim_ex.c ****     This section provides functions allowing to:
 118:Drivers/STM32F0xx_HAL_Driver/Src/stm32f0xx_hal_tim_ex.c ****     (+) Initialize and configure TIM HAL Sensor.
 119:Drivers/STM32F0xx_HAL_Driver/Src/stm32f0xx_hal_tim_ex.c ****     (+) De-initialize TIM HAL Sensor.
 120:Drivers/STM32F0xx_HAL_Driver/Src/stm32f0xx_hal_tim_ex.c ****     (+) Start the Hall Sensor Interface.
 121:Drivers/STM32F0xx_HAL_Driver/Src/stm32f0xx_hal_tim_ex.c ****     (+) Stop the Hall Sensor Interface.
 122:Drivers/STM32F0xx_HAL_Driver/Src/stm32f0xx_hal_tim_ex.c ****     (+) Start the Hall Sensor Interface and enable interrupts.
 123:Drivers/STM32F0xx_HAL_Driver/Src/stm32f0xx_hal_tim_ex.c ****     (+) Stop the Hall Sensor Interface and disable interrupts.
 124:Drivers/STM32F0xx_HAL_Driver/Src/stm32f0xx_hal_tim_ex.c ****     (+) Start the Hall Sensor Interface and enable DMA transfers.
 125:Drivers/STM32F0xx_HAL_Driver/Src/stm32f0xx_hal_tim_ex.c ****     (+) Stop the Hall Sensor Interface and disable DMA transfers.
 126:Drivers/STM32F0xx_HAL_Driver/Src/stm32f0xx_hal_tim_ex.c **** 
 127:Drivers/STM32F0xx_HAL_Driver/Src/stm32f0xx_hal_tim_ex.c **** @endverbatim
 128:Drivers/STM32F0xx_HAL_Driver/Src/stm32f0xx_hal_tim_ex.c ****   * @{
 129:Drivers/STM32F0xx_HAL_Driver/Src/stm32f0xx_hal_tim_ex.c ****   */
 130:Drivers/STM32F0xx_HAL_Driver/Src/stm32f0xx_hal_tim_ex.c **** /**
 131:Drivers/STM32F0xx_HAL_Driver/Src/stm32f0xx_hal_tim_ex.c ****   * @brief  Initializes the TIM Hall Sensor Interface and initialize the associated handle.
 132:Drivers/STM32F0xx_HAL_Driver/Src/stm32f0xx_hal_tim_ex.c ****   * @note   When the timer instance is initialized in Hall Sensor Interface mode,
 133:Drivers/STM32F0xx_HAL_Driver/Src/stm32f0xx_hal_tim_ex.c ****   *         timer channels 1 and channel 2 are reserved and cannot be used for
 134:Drivers/STM32F0xx_HAL_Driver/Src/stm32f0xx_hal_tim_ex.c ****   *         other purpose.
 135:Drivers/STM32F0xx_HAL_Driver/Src/stm32f0xx_hal_tim_ex.c ****   * @param  htim TIM Hall Sensor Interface handle
 136:Drivers/STM32F0xx_HAL_Driver/Src/stm32f0xx_hal_tim_ex.c ****   * @param  sConfig TIM Hall Sensor configuration structure
 137:Drivers/STM32F0xx_HAL_Driver/Src/stm32f0xx_hal_tim_ex.c ****   * @retval HAL status
 138:Drivers/STM32F0xx_HAL_Driver/Src/stm32f0xx_hal_tim_ex.c ****   */
 139:Drivers/STM32F0xx_HAL_Driver/Src/stm32f0xx_hal_tim_ex.c **** HAL_StatusTypeDef HAL_TIMEx_HallSensor_Init(TIM_HandleTypeDef *htim, TIM_HallSensor_InitTypeDef *sC
 140:Drivers/STM32F0xx_HAL_Driver/Src/stm32f0xx_hal_tim_ex.c **** {
  27              		.loc 1 140 1
  28              		.cfi_startproc
  29              		@ args = 0, pretend = 0, frame = 40
  30              		@ frame_needed = 1, uses_anonymous_args = 0
  31 0000 80B5     		push	{r7, lr}
  32              	.LCFI0:
ARM GAS  /var/folders/d0/cymppscj10lcmm48h781wrc80000gn/T//cc0qcKWW.s 			page 4


  33              		.cfi_def_cfa_offset 8
  34              		.cfi_offset 7, -8
  35              		.cfi_offset 14, -4
  36 0002 8AB0     		sub	sp, sp, #40
  37              	.LCFI1:
  38              		.cfi_def_cfa_offset 48
  39 0004 00AF     		add	r7, sp, #0
  40              	.LCFI2:
  41              		.cfi_def_cfa_register 7
  42 0006 7860     		str	r0, [r7, #4]
  43 0008 3960     		str	r1, [r7]
 141:Drivers/STM32F0xx_HAL_Driver/Src/stm32f0xx_hal_tim_ex.c ****   TIM_OC_InitTypeDef OC_Config;
 142:Drivers/STM32F0xx_HAL_Driver/Src/stm32f0xx_hal_tim_ex.c **** 
 143:Drivers/STM32F0xx_HAL_Driver/Src/stm32f0xx_hal_tim_ex.c ****   /* Check the TIM handle allocation */
 144:Drivers/STM32F0xx_HAL_Driver/Src/stm32f0xx_hal_tim_ex.c ****   if (htim == NULL)
  44              		.loc 1 144 6
  45 000a 7B68     		ldr	r3, [r7, #4]
  46 000c 002B     		cmp	r3, #0
  47 000e 01D1     		bne	.L2
 145:Drivers/STM32F0xx_HAL_Driver/Src/stm32f0xx_hal_tim_ex.c ****   {
 146:Drivers/STM32F0xx_HAL_Driver/Src/stm32f0xx_hal_tim_ex.c ****     return HAL_ERROR;
  48              		.loc 1 146 12
  49 0010 0123     		movs	r3, #1
  50 0012 AEE0     		b	.L6
  51              	.L2:
 147:Drivers/STM32F0xx_HAL_Driver/Src/stm32f0xx_hal_tim_ex.c ****   }
 148:Drivers/STM32F0xx_HAL_Driver/Src/stm32f0xx_hal_tim_ex.c **** 
 149:Drivers/STM32F0xx_HAL_Driver/Src/stm32f0xx_hal_tim_ex.c ****   /* Check the parameters */
 150:Drivers/STM32F0xx_HAL_Driver/Src/stm32f0xx_hal_tim_ex.c ****   assert_param(IS_TIM_HALL_SENSOR_INTERFACE_INSTANCE(htim->Instance));
 151:Drivers/STM32F0xx_HAL_Driver/Src/stm32f0xx_hal_tim_ex.c ****   assert_param(IS_TIM_COUNTER_MODE(htim->Init.CounterMode));
 152:Drivers/STM32F0xx_HAL_Driver/Src/stm32f0xx_hal_tim_ex.c ****   assert_param(IS_TIM_CLOCKDIVISION_DIV(htim->Init.ClockDivision));
 153:Drivers/STM32F0xx_HAL_Driver/Src/stm32f0xx_hal_tim_ex.c ****   assert_param(IS_TIM_AUTORELOAD_PRELOAD(htim->Init.AutoReloadPreload));
 154:Drivers/STM32F0xx_HAL_Driver/Src/stm32f0xx_hal_tim_ex.c ****   assert_param(IS_TIM_IC_POLARITY(sConfig->IC1Polarity));
 155:Drivers/STM32F0xx_HAL_Driver/Src/stm32f0xx_hal_tim_ex.c ****   assert_param(IS_TIM_IC_PRESCALER(sConfig->IC1Prescaler));
 156:Drivers/STM32F0xx_HAL_Driver/Src/stm32f0xx_hal_tim_ex.c ****   assert_param(IS_TIM_IC_FILTER(sConfig->IC1Filter));
 157:Drivers/STM32F0xx_HAL_Driver/Src/stm32f0xx_hal_tim_ex.c **** 
 158:Drivers/STM32F0xx_HAL_Driver/Src/stm32f0xx_hal_tim_ex.c ****   if (htim->State == HAL_TIM_STATE_RESET)
  52              		.loc 1 158 11
  53 0014 7B68     		ldr	r3, [r7, #4]
  54 0016 3D22     		movs	r2, #61
  55 0018 9B5C     		ldrb	r3, [r3, r2]
  56 001a DBB2     		uxtb	r3, r3
  57              		.loc 1 158 6
  58 001c 002B     		cmp	r3, #0
  59 001e 13D1     		bne	.L4
 159:Drivers/STM32F0xx_HAL_Driver/Src/stm32f0xx_hal_tim_ex.c ****   {
 160:Drivers/STM32F0xx_HAL_Driver/Src/stm32f0xx_hal_tim_ex.c ****     /* Allocate lock resource and initialize it */
 161:Drivers/STM32F0xx_HAL_Driver/Src/stm32f0xx_hal_tim_ex.c ****     htim->Lock = HAL_UNLOCKED;
  60              		.loc 1 161 16
  61 0020 7B68     		ldr	r3, [r7, #4]
  62 0022 3C22     		movs	r2, #60
  63 0024 0021     		movs	r1, #0
  64 0026 9954     		strb	r1, [r3, r2]
 162:Drivers/STM32F0xx_HAL_Driver/Src/stm32f0xx_hal_tim_ex.c **** 
 163:Drivers/STM32F0xx_HAL_Driver/Src/stm32f0xx_hal_tim_ex.c **** #if (USE_HAL_TIM_REGISTER_CALLBACKS == 1)
 164:Drivers/STM32F0xx_HAL_Driver/Src/stm32f0xx_hal_tim_ex.c ****     /* Reset interrupt callbacks to legacy week callbacks */
 165:Drivers/STM32F0xx_HAL_Driver/Src/stm32f0xx_hal_tim_ex.c ****     TIM_ResetCallback(htim);
ARM GAS  /var/folders/d0/cymppscj10lcmm48h781wrc80000gn/T//cc0qcKWW.s 			page 5


  65              		.loc 1 165 5
  66 0028 7B68     		ldr	r3, [r7, #4]
  67 002a 1800     		movs	r0, r3
  68 002c FFF7FEFF 		bl	TIM_ResetCallback
 166:Drivers/STM32F0xx_HAL_Driver/Src/stm32f0xx_hal_tim_ex.c **** 
 167:Drivers/STM32F0xx_HAL_Driver/Src/stm32f0xx_hal_tim_ex.c ****     if (htim->HallSensor_MspInitCallback == NULL)
  69              		.loc 1 167 13
  70 0030 7B68     		ldr	r3, [r7, #4]
  71 0032 9B6F     		ldr	r3, [r3, #120]
  72              		.loc 1 167 8
  73 0034 002B     		cmp	r3, #0
  74 0036 02D1     		bne	.L5
 168:Drivers/STM32F0xx_HAL_Driver/Src/stm32f0xx_hal_tim_ex.c ****     {
 169:Drivers/STM32F0xx_HAL_Driver/Src/stm32f0xx_hal_tim_ex.c ****       htim->HallSensor_MspInitCallback = HAL_TIMEx_HallSensor_MspInit;
  75              		.loc 1 169 40
  76 0038 7B68     		ldr	r3, [r7, #4]
  77 003a 504A     		ldr	r2, .L7
  78 003c 9A67     		str	r2, [r3, #120]
  79              	.L5:
 170:Drivers/STM32F0xx_HAL_Driver/Src/stm32f0xx_hal_tim_ex.c ****     }
 171:Drivers/STM32F0xx_HAL_Driver/Src/stm32f0xx_hal_tim_ex.c ****     /* Init the low level hardware : GPIO, CLOCK, NVIC */
 172:Drivers/STM32F0xx_HAL_Driver/Src/stm32f0xx_hal_tim_ex.c ****     htim->HallSensor_MspInitCallback(htim);
  80              		.loc 1 172 9
  81 003e 7B68     		ldr	r3, [r7, #4]
  82 0040 9B6F     		ldr	r3, [r3, #120]
  83              		.loc 1 172 5
  84 0042 7A68     		ldr	r2, [r7, #4]
  85 0044 1000     		movs	r0, r2
  86 0046 9847     		blx	r3
  87              	.LVL0:
  88              	.L4:
 173:Drivers/STM32F0xx_HAL_Driver/Src/stm32f0xx_hal_tim_ex.c **** #else
 174:Drivers/STM32F0xx_HAL_Driver/Src/stm32f0xx_hal_tim_ex.c ****     /* Init the low level hardware : GPIO, CLOCK, NVIC and DMA */
 175:Drivers/STM32F0xx_HAL_Driver/Src/stm32f0xx_hal_tim_ex.c ****     HAL_TIMEx_HallSensor_MspInit(htim);
 176:Drivers/STM32F0xx_HAL_Driver/Src/stm32f0xx_hal_tim_ex.c **** #endif /* USE_HAL_TIM_REGISTER_CALLBACKS */
 177:Drivers/STM32F0xx_HAL_Driver/Src/stm32f0xx_hal_tim_ex.c ****   }
 178:Drivers/STM32F0xx_HAL_Driver/Src/stm32f0xx_hal_tim_ex.c **** 
 179:Drivers/STM32F0xx_HAL_Driver/Src/stm32f0xx_hal_tim_ex.c ****   /* Set the TIM state */
 180:Drivers/STM32F0xx_HAL_Driver/Src/stm32f0xx_hal_tim_ex.c ****   htim->State = HAL_TIM_STATE_BUSY;
  89              		.loc 1 180 15
  90 0048 7B68     		ldr	r3, [r7, #4]
  91 004a 3D22     		movs	r2, #61
  92 004c 0221     		movs	r1, #2
  93 004e 9954     		strb	r1, [r3, r2]
 181:Drivers/STM32F0xx_HAL_Driver/Src/stm32f0xx_hal_tim_ex.c **** 
 182:Drivers/STM32F0xx_HAL_Driver/Src/stm32f0xx_hal_tim_ex.c ****   /* Configure the Time base in the Encoder Mode */
 183:Drivers/STM32F0xx_HAL_Driver/Src/stm32f0xx_hal_tim_ex.c ****   TIM_Base_SetConfig(htim->Instance, &htim->Init);
  94              		.loc 1 183 3
  95 0050 7B68     		ldr	r3, [r7, #4]
  96 0052 1A68     		ldr	r2, [r3]
  97 0054 7B68     		ldr	r3, [r7, #4]
  98 0056 0433     		adds	r3, r3, #4
  99 0058 1900     		movs	r1, r3
 100 005a 1000     		movs	r0, r2
 101 005c FFF7FEFF 		bl	TIM_Base_SetConfig
 184:Drivers/STM32F0xx_HAL_Driver/Src/stm32f0xx_hal_tim_ex.c **** 
 185:Drivers/STM32F0xx_HAL_Driver/Src/stm32f0xx_hal_tim_ex.c ****   /* Configure the Channel 1 as Input Channel to interface with the three Outputs of the  Hall sens
ARM GAS  /var/folders/d0/cymppscj10lcmm48h781wrc80000gn/T//cc0qcKWW.s 			page 6


 186:Drivers/STM32F0xx_HAL_Driver/Src/stm32f0xx_hal_tim_ex.c ****   TIM_TI1_SetConfig(htim->Instance, sConfig->IC1Polarity, TIM_ICSELECTION_TRC, sConfig->IC1Filter);
 102              		.loc 1 186 3
 103 0060 7B68     		ldr	r3, [r7, #4]
 104 0062 1868     		ldr	r0, [r3]
 105 0064 3B68     		ldr	r3, [r7]
 106 0066 1968     		ldr	r1, [r3]
 107 0068 3B68     		ldr	r3, [r7]
 108 006a 9B68     		ldr	r3, [r3, #8]
 109 006c 0322     		movs	r2, #3
 110 006e FFF7FEFF 		bl	TIM_TI1_SetConfig
 187:Drivers/STM32F0xx_HAL_Driver/Src/stm32f0xx_hal_tim_ex.c **** 
 188:Drivers/STM32F0xx_HAL_Driver/Src/stm32f0xx_hal_tim_ex.c ****   /* Reset the IC1PSC Bits */
 189:Drivers/STM32F0xx_HAL_Driver/Src/stm32f0xx_hal_tim_ex.c ****   htim->Instance->CCMR1 &= ~TIM_CCMR1_IC1PSC;
 111              		.loc 1 189 7
 112 0072 7B68     		ldr	r3, [r7, #4]
 113 0074 1B68     		ldr	r3, [r3]
 114              		.loc 1 189 25
 115 0076 9A69     		ldr	r2, [r3, #24]
 116              		.loc 1 189 7
 117 0078 7B68     		ldr	r3, [r7, #4]
 118 007a 1B68     		ldr	r3, [r3]
 119              		.loc 1 189 25
 120 007c 0C21     		movs	r1, #12
 121 007e 8A43     		bics	r2, r1
 122 0080 9A61     		str	r2, [r3, #24]
 190:Drivers/STM32F0xx_HAL_Driver/Src/stm32f0xx_hal_tim_ex.c ****   /* Set the IC1PSC value */
 191:Drivers/STM32F0xx_HAL_Driver/Src/stm32f0xx_hal_tim_ex.c ****   htim->Instance->CCMR1 |= sConfig->IC1Prescaler;
 123              		.loc 1 191 7
 124 0082 7B68     		ldr	r3, [r7, #4]
 125 0084 1B68     		ldr	r3, [r3]
 126              		.loc 1 191 25
 127 0086 9969     		ldr	r1, [r3, #24]
 128              		.loc 1 191 35
 129 0088 3B68     		ldr	r3, [r7]
 130 008a 5A68     		ldr	r2, [r3, #4]
 131              		.loc 1 191 7
 132 008c 7B68     		ldr	r3, [r7, #4]
 133 008e 1B68     		ldr	r3, [r3]
 134              		.loc 1 191 25
 135 0090 0A43     		orrs	r2, r1
 136 0092 9A61     		str	r2, [r3, #24]
 192:Drivers/STM32F0xx_HAL_Driver/Src/stm32f0xx_hal_tim_ex.c **** 
 193:Drivers/STM32F0xx_HAL_Driver/Src/stm32f0xx_hal_tim_ex.c ****   /* Enable the Hall sensor interface (XOR function of the three inputs) */
 194:Drivers/STM32F0xx_HAL_Driver/Src/stm32f0xx_hal_tim_ex.c ****   htim->Instance->CR2 |= TIM_CR2_TI1S;
 137              		.loc 1 194 7
 138 0094 7B68     		ldr	r3, [r7, #4]
 139 0096 1B68     		ldr	r3, [r3]
 140              		.loc 1 194 23
 141 0098 5A68     		ldr	r2, [r3, #4]
 142              		.loc 1 194 7
 143 009a 7B68     		ldr	r3, [r7, #4]
 144 009c 1B68     		ldr	r3, [r3]
 145              		.loc 1 194 23
 146 009e 8021     		movs	r1, #128
 147 00a0 0A43     		orrs	r2, r1
 148 00a2 5A60     		str	r2, [r3, #4]
 195:Drivers/STM32F0xx_HAL_Driver/Src/stm32f0xx_hal_tim_ex.c **** 
ARM GAS  /var/folders/d0/cymppscj10lcmm48h781wrc80000gn/T//cc0qcKWW.s 			page 7


 196:Drivers/STM32F0xx_HAL_Driver/Src/stm32f0xx_hal_tim_ex.c ****   /* Select the TIM_TS_TI1F_ED signal as Input trigger for the TIM */
 197:Drivers/STM32F0xx_HAL_Driver/Src/stm32f0xx_hal_tim_ex.c ****   htim->Instance->SMCR &= ~TIM_SMCR_TS;
 149              		.loc 1 197 7
 150 00a4 7B68     		ldr	r3, [r7, #4]
 151 00a6 1B68     		ldr	r3, [r3]
 152              		.loc 1 197 24
 153 00a8 9A68     		ldr	r2, [r3, #8]
 154              		.loc 1 197 7
 155 00aa 7B68     		ldr	r3, [r7, #4]
 156 00ac 1B68     		ldr	r3, [r3]
 157              		.loc 1 197 24
 158 00ae 7021     		movs	r1, #112
 159 00b0 8A43     		bics	r2, r1
 160 00b2 9A60     		str	r2, [r3, #8]
 198:Drivers/STM32F0xx_HAL_Driver/Src/stm32f0xx_hal_tim_ex.c ****   htim->Instance->SMCR |= TIM_TS_TI1F_ED;
 161              		.loc 1 198 7
 162 00b4 7B68     		ldr	r3, [r7, #4]
 163 00b6 1B68     		ldr	r3, [r3]
 164              		.loc 1 198 24
 165 00b8 9A68     		ldr	r2, [r3, #8]
 166              		.loc 1 198 7
 167 00ba 7B68     		ldr	r3, [r7, #4]
 168 00bc 1B68     		ldr	r3, [r3]
 169              		.loc 1 198 24
 170 00be 4021     		movs	r1, #64
 171 00c0 0A43     		orrs	r2, r1
 172 00c2 9A60     		str	r2, [r3, #8]
 199:Drivers/STM32F0xx_HAL_Driver/Src/stm32f0xx_hal_tim_ex.c **** 
 200:Drivers/STM32F0xx_HAL_Driver/Src/stm32f0xx_hal_tim_ex.c ****   /* Use the TIM_TS_TI1F_ED signal to reset the TIM counter each edge detection */
 201:Drivers/STM32F0xx_HAL_Driver/Src/stm32f0xx_hal_tim_ex.c ****   htim->Instance->SMCR &= ~TIM_SMCR_SMS;
 173              		.loc 1 201 7
 174 00c4 7B68     		ldr	r3, [r7, #4]
 175 00c6 1B68     		ldr	r3, [r3]
 176              		.loc 1 201 24
 177 00c8 9A68     		ldr	r2, [r3, #8]
 178              		.loc 1 201 7
 179 00ca 7B68     		ldr	r3, [r7, #4]
 180 00cc 1B68     		ldr	r3, [r3]
 181              		.loc 1 201 24
 182 00ce 0721     		movs	r1, #7
 183 00d0 8A43     		bics	r2, r1
 184 00d2 9A60     		str	r2, [r3, #8]
 202:Drivers/STM32F0xx_HAL_Driver/Src/stm32f0xx_hal_tim_ex.c ****   htim->Instance->SMCR |= TIM_SLAVEMODE_RESET;
 185              		.loc 1 202 7
 186 00d4 7B68     		ldr	r3, [r7, #4]
 187 00d6 1B68     		ldr	r3, [r3]
 188              		.loc 1 202 24
 189 00d8 9A68     		ldr	r2, [r3, #8]
 190              		.loc 1 202 7
 191 00da 7B68     		ldr	r3, [r7, #4]
 192 00dc 1B68     		ldr	r3, [r3]
 193              		.loc 1 202 24
 194 00de 0421     		movs	r1, #4
 195 00e0 0A43     		orrs	r2, r1
 196 00e2 9A60     		str	r2, [r3, #8]
 203:Drivers/STM32F0xx_HAL_Driver/Src/stm32f0xx_hal_tim_ex.c **** 
 204:Drivers/STM32F0xx_HAL_Driver/Src/stm32f0xx_hal_tim_ex.c ****   /* Program channel 2 in PWM 2 mode with the desired Commutation_Delay*/
ARM GAS  /var/folders/d0/cymppscj10lcmm48h781wrc80000gn/T//cc0qcKWW.s 			page 8


 205:Drivers/STM32F0xx_HAL_Driver/Src/stm32f0xx_hal_tim_ex.c ****   OC_Config.OCFastMode = TIM_OCFAST_DISABLE;
 197              		.loc 1 205 24
 198 00e4 0C21     		movs	r1, #12
 199 00e6 7B18     		adds	r3, r7, r1
 200 00e8 0022     		movs	r2, #0
 201 00ea 1A61     		str	r2, [r3, #16]
 206:Drivers/STM32F0xx_HAL_Driver/Src/stm32f0xx_hal_tim_ex.c ****   OC_Config.OCIdleState = TIM_OCIDLESTATE_RESET;
 202              		.loc 1 206 25
 203 00ec 7B18     		adds	r3, r7, r1
 204 00ee 0022     		movs	r2, #0
 205 00f0 5A61     		str	r2, [r3, #20]
 207:Drivers/STM32F0xx_HAL_Driver/Src/stm32f0xx_hal_tim_ex.c ****   OC_Config.OCMode = TIM_OCMODE_PWM2;
 206              		.loc 1 207 20
 207 00f2 7B18     		adds	r3, r7, r1
 208 00f4 7022     		movs	r2, #112
 209 00f6 1A60     		str	r2, [r3]
 208:Drivers/STM32F0xx_HAL_Driver/Src/stm32f0xx_hal_tim_ex.c ****   OC_Config.OCNIdleState = TIM_OCNIDLESTATE_RESET;
 210              		.loc 1 208 26
 211 00f8 7B18     		adds	r3, r7, r1
 212 00fa 0022     		movs	r2, #0
 213 00fc 9A61     		str	r2, [r3, #24]
 209:Drivers/STM32F0xx_HAL_Driver/Src/stm32f0xx_hal_tim_ex.c ****   OC_Config.OCNPolarity = TIM_OCNPOLARITY_HIGH;
 214              		.loc 1 209 25
 215 00fe 7B18     		adds	r3, r7, r1
 216 0100 0022     		movs	r2, #0
 217 0102 DA60     		str	r2, [r3, #12]
 210:Drivers/STM32F0xx_HAL_Driver/Src/stm32f0xx_hal_tim_ex.c ****   OC_Config.OCPolarity = TIM_OCPOLARITY_HIGH;
 218              		.loc 1 210 24
 219 0104 7B18     		adds	r3, r7, r1
 220 0106 0022     		movs	r2, #0
 221 0108 9A60     		str	r2, [r3, #8]
 211:Drivers/STM32F0xx_HAL_Driver/Src/stm32f0xx_hal_tim_ex.c ****   OC_Config.Pulse = sConfig->Commutation_Delay;
 222              		.loc 1 211 28
 223 010a 3B68     		ldr	r3, [r7]
 224 010c DA68     		ldr	r2, [r3, #12]
 225              		.loc 1 211 19
 226 010e 7B18     		adds	r3, r7, r1
 227 0110 5A60     		str	r2, [r3, #4]
 212:Drivers/STM32F0xx_HAL_Driver/Src/stm32f0xx_hal_tim_ex.c **** 
 213:Drivers/STM32F0xx_HAL_Driver/Src/stm32f0xx_hal_tim_ex.c ****   TIM_OC2_SetConfig(htim->Instance, &OC_Config);
 228              		.loc 1 213 3
 229 0112 7B68     		ldr	r3, [r7, #4]
 230 0114 1B68     		ldr	r3, [r3]
 231 0116 7A18     		adds	r2, r7, r1
 232 0118 1100     		movs	r1, r2
 233 011a 1800     		movs	r0, r3
 234 011c FFF7FEFF 		bl	TIM_OC2_SetConfig
 214:Drivers/STM32F0xx_HAL_Driver/Src/stm32f0xx_hal_tim_ex.c **** 
 215:Drivers/STM32F0xx_HAL_Driver/Src/stm32f0xx_hal_tim_ex.c ****   /* Select OC2REF as trigger output on TRGO: write the MMS bits in the TIMx_CR2
 216:Drivers/STM32F0xx_HAL_Driver/Src/stm32f0xx_hal_tim_ex.c ****     register to 101 */
 217:Drivers/STM32F0xx_HAL_Driver/Src/stm32f0xx_hal_tim_ex.c ****   htim->Instance->CR2 &= ~TIM_CR2_MMS;
 235              		.loc 1 217 7
 236 0120 7B68     		ldr	r3, [r7, #4]
 237 0122 1B68     		ldr	r3, [r3]
 238              		.loc 1 217 23
 239 0124 5A68     		ldr	r2, [r3, #4]
 240              		.loc 1 217 7
ARM GAS  /var/folders/d0/cymppscj10lcmm48h781wrc80000gn/T//cc0qcKWW.s 			page 9


 241 0126 7B68     		ldr	r3, [r7, #4]
 242 0128 1B68     		ldr	r3, [r3]
 243              		.loc 1 217 23
 244 012a 7021     		movs	r1, #112
 245 012c 8A43     		bics	r2, r1
 246 012e 5A60     		str	r2, [r3, #4]
 218:Drivers/STM32F0xx_HAL_Driver/Src/stm32f0xx_hal_tim_ex.c ****   htim->Instance->CR2 |= TIM_TRGO_OC2REF;
 247              		.loc 1 218 7
 248 0130 7B68     		ldr	r3, [r7, #4]
 249 0132 1B68     		ldr	r3, [r3]
 250              		.loc 1 218 23
 251 0134 5A68     		ldr	r2, [r3, #4]
 252              		.loc 1 218 7
 253 0136 7B68     		ldr	r3, [r7, #4]
 254 0138 1B68     		ldr	r3, [r3]
 255              		.loc 1 218 23
 256 013a 5021     		movs	r1, #80
 257 013c 0A43     		orrs	r2, r1
 258 013e 5A60     		str	r2, [r3, #4]
 219:Drivers/STM32F0xx_HAL_Driver/Src/stm32f0xx_hal_tim_ex.c **** 
 220:Drivers/STM32F0xx_HAL_Driver/Src/stm32f0xx_hal_tim_ex.c ****   /* Initialize the DMA burst operation state */
 221:Drivers/STM32F0xx_HAL_Driver/Src/stm32f0xx_hal_tim_ex.c ****   htim->DMABurstState = HAL_DMA_BURST_STATE_READY;
 259              		.loc 1 221 23
 260 0140 7B68     		ldr	r3, [r7, #4]
 261 0142 4622     		movs	r2, #70
 262 0144 0121     		movs	r1, #1
 263 0146 9954     		strb	r1, [r3, r2]
 222:Drivers/STM32F0xx_HAL_Driver/Src/stm32f0xx_hal_tim_ex.c **** 
 223:Drivers/STM32F0xx_HAL_Driver/Src/stm32f0xx_hal_tim_ex.c ****   /* Initialize the TIM channels state */
 224:Drivers/STM32F0xx_HAL_Driver/Src/stm32f0xx_hal_tim_ex.c ****   TIM_CHANNEL_STATE_SET(htim, TIM_CHANNEL_1, HAL_TIM_CHANNEL_STATE_READY);
 264              		.loc 1 224 3
 265 0148 7B68     		ldr	r3, [r7, #4]
 266 014a 3E22     		movs	r2, #62
 267 014c 0121     		movs	r1, #1
 268 014e 9954     		strb	r1, [r3, r2]
 225:Drivers/STM32F0xx_HAL_Driver/Src/stm32f0xx_hal_tim_ex.c ****   TIM_CHANNEL_STATE_SET(htim, TIM_CHANNEL_2, HAL_TIM_CHANNEL_STATE_READY);
 269              		.loc 1 225 3
 270 0150 7B68     		ldr	r3, [r7, #4]
 271 0152 3F22     		movs	r2, #63
 272 0154 0121     		movs	r1, #1
 273 0156 9954     		strb	r1, [r3, r2]
 226:Drivers/STM32F0xx_HAL_Driver/Src/stm32f0xx_hal_tim_ex.c ****   TIM_CHANNEL_N_STATE_SET(htim, TIM_CHANNEL_1, HAL_TIM_CHANNEL_STATE_READY);
 274              		.loc 1 226 3
 275 0158 7B68     		ldr	r3, [r7, #4]
 276 015a 4222     		movs	r2, #66
 277 015c 0121     		movs	r1, #1
 278 015e 9954     		strb	r1, [r3, r2]
 227:Drivers/STM32F0xx_HAL_Driver/Src/stm32f0xx_hal_tim_ex.c ****   TIM_CHANNEL_N_STATE_SET(htim, TIM_CHANNEL_2, HAL_TIM_CHANNEL_STATE_READY);
 279              		.loc 1 227 3
 280 0160 7B68     		ldr	r3, [r7, #4]
 281 0162 4322     		movs	r2, #67
 282 0164 0121     		movs	r1, #1
 283 0166 9954     		strb	r1, [r3, r2]
 228:Drivers/STM32F0xx_HAL_Driver/Src/stm32f0xx_hal_tim_ex.c **** 
 229:Drivers/STM32F0xx_HAL_Driver/Src/stm32f0xx_hal_tim_ex.c ****   /* Initialize the TIM state*/
 230:Drivers/STM32F0xx_HAL_Driver/Src/stm32f0xx_hal_tim_ex.c ****   htim->State = HAL_TIM_STATE_READY;
 284              		.loc 1 230 15
ARM GAS  /var/folders/d0/cymppscj10lcmm48h781wrc80000gn/T//cc0qcKWW.s 			page 10


 285 0168 7B68     		ldr	r3, [r7, #4]
 286 016a 3D22     		movs	r2, #61
 287 016c 0121     		movs	r1, #1
 288 016e 9954     		strb	r1, [r3, r2]
 231:Drivers/STM32F0xx_HAL_Driver/Src/stm32f0xx_hal_tim_ex.c **** 
 232:Drivers/STM32F0xx_HAL_Driver/Src/stm32f0xx_hal_tim_ex.c ****   return HAL_OK;
 289              		.loc 1 232 10
 290 0170 0023     		movs	r3, #0
 291              	.L6:
 233:Drivers/STM32F0xx_HAL_Driver/Src/stm32f0xx_hal_tim_ex.c **** }
 292              		.loc 1 233 1 discriminator 1
 293 0172 1800     		movs	r0, r3
 294 0174 BD46     		mov	sp, r7
 295 0176 0AB0     		add	sp, sp, #40
 296              		@ sp needed
 297 0178 80BD     		pop	{r7, pc}
 298              	.L8:
 299 017a C046     		.align	2
 300              	.L7:
 301 017c 00000000 		.word	HAL_TIMEx_HallSensor_MspInit
 302              		.cfi_endproc
 303              	.LFE40:
 305              		.section	.text.HAL_TIMEx_HallSensor_DeInit,"ax",%progbits
 306              		.align	1
 307              		.global	HAL_TIMEx_HallSensor_DeInit
 308              		.syntax unified
 309              		.code	16
 310              		.thumb_func
 312              	HAL_TIMEx_HallSensor_DeInit:
 313              	.LFB41:
 234:Drivers/STM32F0xx_HAL_Driver/Src/stm32f0xx_hal_tim_ex.c **** 
 235:Drivers/STM32F0xx_HAL_Driver/Src/stm32f0xx_hal_tim_ex.c **** /**
 236:Drivers/STM32F0xx_HAL_Driver/Src/stm32f0xx_hal_tim_ex.c ****   * @brief  DeInitializes the TIM Hall Sensor interface
 237:Drivers/STM32F0xx_HAL_Driver/Src/stm32f0xx_hal_tim_ex.c ****   * @param  htim TIM Hall Sensor Interface handle
 238:Drivers/STM32F0xx_HAL_Driver/Src/stm32f0xx_hal_tim_ex.c ****   * @retval HAL status
 239:Drivers/STM32F0xx_HAL_Driver/Src/stm32f0xx_hal_tim_ex.c ****   */
 240:Drivers/STM32F0xx_HAL_Driver/Src/stm32f0xx_hal_tim_ex.c **** HAL_StatusTypeDef HAL_TIMEx_HallSensor_DeInit(TIM_HandleTypeDef *htim)
 241:Drivers/STM32F0xx_HAL_Driver/Src/stm32f0xx_hal_tim_ex.c **** {
 314              		.loc 1 241 1
 315              		.cfi_startproc
 316              		@ args = 0, pretend = 0, frame = 8
 317              		@ frame_needed = 1, uses_anonymous_args = 0
 318 0000 80B5     		push	{r7, lr}
 319              	.LCFI3:
 320              		.cfi_def_cfa_offset 8
 321              		.cfi_offset 7, -8
 322              		.cfi_offset 14, -4
 323 0002 82B0     		sub	sp, sp, #8
 324              	.LCFI4:
 325              		.cfi_def_cfa_offset 16
 326 0004 00AF     		add	r7, sp, #0
 327              	.LCFI5:
 328              		.cfi_def_cfa_register 7
 329 0006 7860     		str	r0, [r7, #4]
 242:Drivers/STM32F0xx_HAL_Driver/Src/stm32f0xx_hal_tim_ex.c ****   /* Check the parameters */
 243:Drivers/STM32F0xx_HAL_Driver/Src/stm32f0xx_hal_tim_ex.c ****   assert_param(IS_TIM_INSTANCE(htim->Instance));
 244:Drivers/STM32F0xx_HAL_Driver/Src/stm32f0xx_hal_tim_ex.c **** 
ARM GAS  /var/folders/d0/cymppscj10lcmm48h781wrc80000gn/T//cc0qcKWW.s 			page 11


 245:Drivers/STM32F0xx_HAL_Driver/Src/stm32f0xx_hal_tim_ex.c ****   htim->State = HAL_TIM_STATE_BUSY;
 330              		.loc 1 245 15
 331 0008 7B68     		ldr	r3, [r7, #4]
 332 000a 3D22     		movs	r2, #61
 333 000c 0221     		movs	r1, #2
 334 000e 9954     		strb	r1, [r3, r2]
 246:Drivers/STM32F0xx_HAL_Driver/Src/stm32f0xx_hal_tim_ex.c **** 
 247:Drivers/STM32F0xx_HAL_Driver/Src/stm32f0xx_hal_tim_ex.c ****   /* Disable the TIM Peripheral Clock */
 248:Drivers/STM32F0xx_HAL_Driver/Src/stm32f0xx_hal_tim_ex.c ****   __HAL_TIM_DISABLE(htim);
 335              		.loc 1 248 3
 336 0010 7B68     		ldr	r3, [r7, #4]
 337 0012 1B68     		ldr	r3, [r3]
 338 0014 1B6A     		ldr	r3, [r3, #32]
 339 0016 1F4A     		ldr	r2, .L13
 340 0018 1340     		ands	r3, r2
 341 001a 0DD1     		bne	.L10
 342              		.loc 1 248 3 is_stmt 0 discriminator 1
 343 001c 7B68     		ldr	r3, [r7, #4]
 344 001e 1B68     		ldr	r3, [r3]
 345 0020 1B6A     		ldr	r3, [r3, #32]
 346 0022 1D4A     		ldr	r2, .L13+4
 347 0024 1340     		ands	r3, r2
 348 0026 07D1     		bne	.L10
 349              		.loc 1 248 3 discriminator 2
 350 0028 7B68     		ldr	r3, [r7, #4]
 351 002a 1B68     		ldr	r3, [r3]
 352 002c 1A68     		ldr	r2, [r3]
 353 002e 7B68     		ldr	r3, [r7, #4]
 354 0030 1B68     		ldr	r3, [r3]
 355 0032 0121     		movs	r1, #1
 356 0034 8A43     		bics	r2, r1
 357 0036 1A60     		str	r2, [r3]
 358              	.L10:
 249:Drivers/STM32F0xx_HAL_Driver/Src/stm32f0xx_hal_tim_ex.c **** 
 250:Drivers/STM32F0xx_HAL_Driver/Src/stm32f0xx_hal_tim_ex.c **** #if (USE_HAL_TIM_REGISTER_CALLBACKS == 1)
 251:Drivers/STM32F0xx_HAL_Driver/Src/stm32f0xx_hal_tim_ex.c ****   if (htim->HallSensor_MspDeInitCallback == NULL)
 359              		.loc 1 251 11 is_stmt 1
 360 0038 7B68     		ldr	r3, [r7, #4]
 361 003a DB6F     		ldr	r3, [r3, #124]
 362              		.loc 1 251 6
 363 003c 002B     		cmp	r3, #0
 364 003e 02D1     		bne	.L11
 252:Drivers/STM32F0xx_HAL_Driver/Src/stm32f0xx_hal_tim_ex.c ****   {
 253:Drivers/STM32F0xx_HAL_Driver/Src/stm32f0xx_hal_tim_ex.c ****     htim->HallSensor_MspDeInitCallback = HAL_TIMEx_HallSensor_MspDeInit;
 365              		.loc 1 253 40
 366 0040 7B68     		ldr	r3, [r7, #4]
 367 0042 164A     		ldr	r2, .L13+8
 368 0044 DA67     		str	r2, [r3, #124]
 369              	.L11:
 254:Drivers/STM32F0xx_HAL_Driver/Src/stm32f0xx_hal_tim_ex.c ****   }
 255:Drivers/STM32F0xx_HAL_Driver/Src/stm32f0xx_hal_tim_ex.c ****   /* DeInit the low level hardware */
 256:Drivers/STM32F0xx_HAL_Driver/Src/stm32f0xx_hal_tim_ex.c ****   htim->HallSensor_MspDeInitCallback(htim);
 370              		.loc 1 256 7
 371 0046 7B68     		ldr	r3, [r7, #4]
 372 0048 DB6F     		ldr	r3, [r3, #124]
 373              		.loc 1 256 3
 374 004a 7A68     		ldr	r2, [r7, #4]
ARM GAS  /var/folders/d0/cymppscj10lcmm48h781wrc80000gn/T//cc0qcKWW.s 			page 12


 375 004c 1000     		movs	r0, r2
 376 004e 9847     		blx	r3
 377              	.LVL1:
 257:Drivers/STM32F0xx_HAL_Driver/Src/stm32f0xx_hal_tim_ex.c **** #else
 258:Drivers/STM32F0xx_HAL_Driver/Src/stm32f0xx_hal_tim_ex.c ****   /* DeInit the low level hardware: GPIO, CLOCK, NVIC */
 259:Drivers/STM32F0xx_HAL_Driver/Src/stm32f0xx_hal_tim_ex.c ****   HAL_TIMEx_HallSensor_MspDeInit(htim);
 260:Drivers/STM32F0xx_HAL_Driver/Src/stm32f0xx_hal_tim_ex.c **** #endif /* USE_HAL_TIM_REGISTER_CALLBACKS */
 261:Drivers/STM32F0xx_HAL_Driver/Src/stm32f0xx_hal_tim_ex.c **** 
 262:Drivers/STM32F0xx_HAL_Driver/Src/stm32f0xx_hal_tim_ex.c ****   /* Change the DMA burst operation state */
 263:Drivers/STM32F0xx_HAL_Driver/Src/stm32f0xx_hal_tim_ex.c ****   htim->DMABurstState = HAL_DMA_BURST_STATE_RESET;
 378              		.loc 1 263 23
 379 0050 7B68     		ldr	r3, [r7, #4]
 380 0052 4622     		movs	r2, #70
 381 0054 0021     		movs	r1, #0
 382 0056 9954     		strb	r1, [r3, r2]
 264:Drivers/STM32F0xx_HAL_Driver/Src/stm32f0xx_hal_tim_ex.c **** 
 265:Drivers/STM32F0xx_HAL_Driver/Src/stm32f0xx_hal_tim_ex.c ****   /* Change the TIM channels state */
 266:Drivers/STM32F0xx_HAL_Driver/Src/stm32f0xx_hal_tim_ex.c ****   TIM_CHANNEL_STATE_SET(htim, TIM_CHANNEL_1, HAL_TIM_CHANNEL_STATE_RESET);
 383              		.loc 1 266 3
 384 0058 7B68     		ldr	r3, [r7, #4]
 385 005a 3E22     		movs	r2, #62
 386 005c 0021     		movs	r1, #0
 387 005e 9954     		strb	r1, [r3, r2]
 267:Drivers/STM32F0xx_HAL_Driver/Src/stm32f0xx_hal_tim_ex.c ****   TIM_CHANNEL_STATE_SET(htim, TIM_CHANNEL_2, HAL_TIM_CHANNEL_STATE_RESET);
 388              		.loc 1 267 3
 389 0060 7B68     		ldr	r3, [r7, #4]
 390 0062 3F22     		movs	r2, #63
 391 0064 0021     		movs	r1, #0
 392 0066 9954     		strb	r1, [r3, r2]
 268:Drivers/STM32F0xx_HAL_Driver/Src/stm32f0xx_hal_tim_ex.c ****   TIM_CHANNEL_N_STATE_SET(htim, TIM_CHANNEL_1, HAL_TIM_CHANNEL_STATE_RESET);
 393              		.loc 1 268 3
 394 0068 7B68     		ldr	r3, [r7, #4]
 395 006a 4222     		movs	r2, #66
 396 006c 0021     		movs	r1, #0
 397 006e 9954     		strb	r1, [r3, r2]
 269:Drivers/STM32F0xx_HAL_Driver/Src/stm32f0xx_hal_tim_ex.c ****   TIM_CHANNEL_N_STATE_SET(htim, TIM_CHANNEL_2, HAL_TIM_CHANNEL_STATE_RESET);
 398              		.loc 1 269 3
 399 0070 7B68     		ldr	r3, [r7, #4]
 400 0072 4322     		movs	r2, #67
 401 0074 0021     		movs	r1, #0
 402 0076 9954     		strb	r1, [r3, r2]
 270:Drivers/STM32F0xx_HAL_Driver/Src/stm32f0xx_hal_tim_ex.c **** 
 271:Drivers/STM32F0xx_HAL_Driver/Src/stm32f0xx_hal_tim_ex.c ****   /* Change TIM state */
 272:Drivers/STM32F0xx_HAL_Driver/Src/stm32f0xx_hal_tim_ex.c ****   htim->State = HAL_TIM_STATE_RESET;
 403              		.loc 1 272 15
 404 0078 7B68     		ldr	r3, [r7, #4]
 405 007a 3D22     		movs	r2, #61
 406 007c 0021     		movs	r1, #0
 407 007e 9954     		strb	r1, [r3, r2]
 273:Drivers/STM32F0xx_HAL_Driver/Src/stm32f0xx_hal_tim_ex.c **** 
 274:Drivers/STM32F0xx_HAL_Driver/Src/stm32f0xx_hal_tim_ex.c ****   /* Release Lock */
 275:Drivers/STM32F0xx_HAL_Driver/Src/stm32f0xx_hal_tim_ex.c ****   __HAL_UNLOCK(htim);
 408              		.loc 1 275 3
 409 0080 7B68     		ldr	r3, [r7, #4]
 410 0082 3C22     		movs	r2, #60
 411 0084 0021     		movs	r1, #0
 412 0086 9954     		strb	r1, [r3, r2]
ARM GAS  /var/folders/d0/cymppscj10lcmm48h781wrc80000gn/T//cc0qcKWW.s 			page 13


 276:Drivers/STM32F0xx_HAL_Driver/Src/stm32f0xx_hal_tim_ex.c **** 
 277:Drivers/STM32F0xx_HAL_Driver/Src/stm32f0xx_hal_tim_ex.c ****   return HAL_OK;
 413              		.loc 1 277 10
 414 0088 0023     		movs	r3, #0
 278:Drivers/STM32F0xx_HAL_Driver/Src/stm32f0xx_hal_tim_ex.c **** }
 415              		.loc 1 278 1
 416 008a 1800     		movs	r0, r3
 417 008c BD46     		mov	sp, r7
 418 008e 02B0     		add	sp, sp, #8
 419              		@ sp needed
 420 0090 80BD     		pop	{r7, pc}
 421              	.L14:
 422 0092 C046     		.align	2
 423              	.L13:
 424 0094 11110000 		.word	4369
 425 0098 44040000 		.word	1092
 426 009c 00000000 		.word	HAL_TIMEx_HallSensor_MspDeInit
 427              		.cfi_endproc
 428              	.LFE41:
 430              		.section	.text.HAL_TIMEx_HallSensor_MspInit,"ax",%progbits
 431              		.align	1
 432              		.weak	HAL_TIMEx_HallSensor_MspInit
 433              		.syntax unified
 434              		.code	16
 435              		.thumb_func
 437              	HAL_TIMEx_HallSensor_MspInit:
 438              	.LFB42:
 279:Drivers/STM32F0xx_HAL_Driver/Src/stm32f0xx_hal_tim_ex.c **** 
 280:Drivers/STM32F0xx_HAL_Driver/Src/stm32f0xx_hal_tim_ex.c **** /**
 281:Drivers/STM32F0xx_HAL_Driver/Src/stm32f0xx_hal_tim_ex.c ****   * @brief  Initializes the TIM Hall Sensor MSP.
 282:Drivers/STM32F0xx_HAL_Driver/Src/stm32f0xx_hal_tim_ex.c ****   * @param  htim TIM Hall Sensor Interface handle
 283:Drivers/STM32F0xx_HAL_Driver/Src/stm32f0xx_hal_tim_ex.c ****   * @retval None
 284:Drivers/STM32F0xx_HAL_Driver/Src/stm32f0xx_hal_tim_ex.c ****   */
 285:Drivers/STM32F0xx_HAL_Driver/Src/stm32f0xx_hal_tim_ex.c **** __weak void HAL_TIMEx_HallSensor_MspInit(TIM_HandleTypeDef *htim)
 286:Drivers/STM32F0xx_HAL_Driver/Src/stm32f0xx_hal_tim_ex.c **** {
 439              		.loc 1 286 1
 440              		.cfi_startproc
 441              		@ args = 0, pretend = 0, frame = 8
 442              		@ frame_needed = 1, uses_anonymous_args = 0
 443 0000 80B5     		push	{r7, lr}
 444              	.LCFI6:
 445              		.cfi_def_cfa_offset 8
 446              		.cfi_offset 7, -8
 447              		.cfi_offset 14, -4
 448 0002 82B0     		sub	sp, sp, #8
 449              	.LCFI7:
 450              		.cfi_def_cfa_offset 16
 451 0004 00AF     		add	r7, sp, #0
 452              	.LCFI8:
 453              		.cfi_def_cfa_register 7
 454 0006 7860     		str	r0, [r7, #4]
 287:Drivers/STM32F0xx_HAL_Driver/Src/stm32f0xx_hal_tim_ex.c ****   /* Prevent unused argument(s) compilation warning */
 288:Drivers/STM32F0xx_HAL_Driver/Src/stm32f0xx_hal_tim_ex.c ****   UNUSED(htim);
 289:Drivers/STM32F0xx_HAL_Driver/Src/stm32f0xx_hal_tim_ex.c **** 
 290:Drivers/STM32F0xx_HAL_Driver/Src/stm32f0xx_hal_tim_ex.c ****   /* NOTE : This function should not be modified, when the callback is needed,
 291:Drivers/STM32F0xx_HAL_Driver/Src/stm32f0xx_hal_tim_ex.c ****             the HAL_TIMEx_HallSensor_MspInit could be implemented in the user file
 292:Drivers/STM32F0xx_HAL_Driver/Src/stm32f0xx_hal_tim_ex.c ****    */
ARM GAS  /var/folders/d0/cymppscj10lcmm48h781wrc80000gn/T//cc0qcKWW.s 			page 14


 293:Drivers/STM32F0xx_HAL_Driver/Src/stm32f0xx_hal_tim_ex.c **** }
 455              		.loc 1 293 1
 456 0008 C046     		nop
 457 000a BD46     		mov	sp, r7
 458 000c 02B0     		add	sp, sp, #8
 459              		@ sp needed
 460 000e 80BD     		pop	{r7, pc}
 461              		.cfi_endproc
 462              	.LFE42:
 464              		.section	.text.HAL_TIMEx_HallSensor_MspDeInit,"ax",%progbits
 465              		.align	1
 466              		.weak	HAL_TIMEx_HallSensor_MspDeInit
 467              		.syntax unified
 468              		.code	16
 469              		.thumb_func
 471              	HAL_TIMEx_HallSensor_MspDeInit:
 472              	.LFB43:
 294:Drivers/STM32F0xx_HAL_Driver/Src/stm32f0xx_hal_tim_ex.c **** 
 295:Drivers/STM32F0xx_HAL_Driver/Src/stm32f0xx_hal_tim_ex.c **** /**
 296:Drivers/STM32F0xx_HAL_Driver/Src/stm32f0xx_hal_tim_ex.c ****   * @brief  DeInitializes TIM Hall Sensor MSP.
 297:Drivers/STM32F0xx_HAL_Driver/Src/stm32f0xx_hal_tim_ex.c ****   * @param  htim TIM Hall Sensor Interface handle
 298:Drivers/STM32F0xx_HAL_Driver/Src/stm32f0xx_hal_tim_ex.c ****   * @retval None
 299:Drivers/STM32F0xx_HAL_Driver/Src/stm32f0xx_hal_tim_ex.c ****   */
 300:Drivers/STM32F0xx_HAL_Driver/Src/stm32f0xx_hal_tim_ex.c **** __weak void HAL_TIMEx_HallSensor_MspDeInit(TIM_HandleTypeDef *htim)
 301:Drivers/STM32F0xx_HAL_Driver/Src/stm32f0xx_hal_tim_ex.c **** {
 473              		.loc 1 301 1
 474              		.cfi_startproc
 475              		@ args = 0, pretend = 0, frame = 8
 476              		@ frame_needed = 1, uses_anonymous_args = 0
 477 0000 80B5     		push	{r7, lr}
 478              	.LCFI9:
 479              		.cfi_def_cfa_offset 8
 480              		.cfi_offset 7, -8
 481              		.cfi_offset 14, -4
 482 0002 82B0     		sub	sp, sp, #8
 483              	.LCFI10:
 484              		.cfi_def_cfa_offset 16
 485 0004 00AF     		add	r7, sp, #0
 486              	.LCFI11:
 487              		.cfi_def_cfa_register 7
 488 0006 7860     		str	r0, [r7, #4]
 302:Drivers/STM32F0xx_HAL_Driver/Src/stm32f0xx_hal_tim_ex.c ****   /* Prevent unused argument(s) compilation warning */
 303:Drivers/STM32F0xx_HAL_Driver/Src/stm32f0xx_hal_tim_ex.c ****   UNUSED(htim);
 304:Drivers/STM32F0xx_HAL_Driver/Src/stm32f0xx_hal_tim_ex.c **** 
 305:Drivers/STM32F0xx_HAL_Driver/Src/stm32f0xx_hal_tim_ex.c ****   /* NOTE : This function should not be modified, when the callback is needed,
 306:Drivers/STM32F0xx_HAL_Driver/Src/stm32f0xx_hal_tim_ex.c ****             the HAL_TIMEx_HallSensor_MspDeInit could be implemented in the user file
 307:Drivers/STM32F0xx_HAL_Driver/Src/stm32f0xx_hal_tim_ex.c ****    */
 308:Drivers/STM32F0xx_HAL_Driver/Src/stm32f0xx_hal_tim_ex.c **** }
 489              		.loc 1 308 1
 490 0008 C046     		nop
 491 000a BD46     		mov	sp, r7
 492 000c 02B0     		add	sp, sp, #8
 493              		@ sp needed
 494 000e 80BD     		pop	{r7, pc}
 495              		.cfi_endproc
 496              	.LFE43:
 498              		.section	.text.HAL_TIMEx_HallSensor_Start,"ax",%progbits
ARM GAS  /var/folders/d0/cymppscj10lcmm48h781wrc80000gn/T//cc0qcKWW.s 			page 15


 499              		.align	1
 500              		.global	HAL_TIMEx_HallSensor_Start
 501              		.syntax unified
 502              		.code	16
 503              		.thumb_func
 505              	HAL_TIMEx_HallSensor_Start:
 506              	.LFB44:
 309:Drivers/STM32F0xx_HAL_Driver/Src/stm32f0xx_hal_tim_ex.c **** 
 310:Drivers/STM32F0xx_HAL_Driver/Src/stm32f0xx_hal_tim_ex.c **** /**
 311:Drivers/STM32F0xx_HAL_Driver/Src/stm32f0xx_hal_tim_ex.c ****   * @brief  Starts the TIM Hall Sensor Interface.
 312:Drivers/STM32F0xx_HAL_Driver/Src/stm32f0xx_hal_tim_ex.c ****   * @param  htim TIM Hall Sensor Interface handle
 313:Drivers/STM32F0xx_HAL_Driver/Src/stm32f0xx_hal_tim_ex.c ****   * @retval HAL status
 314:Drivers/STM32F0xx_HAL_Driver/Src/stm32f0xx_hal_tim_ex.c ****   */
 315:Drivers/STM32F0xx_HAL_Driver/Src/stm32f0xx_hal_tim_ex.c **** HAL_StatusTypeDef HAL_TIMEx_HallSensor_Start(TIM_HandleTypeDef *htim)
 316:Drivers/STM32F0xx_HAL_Driver/Src/stm32f0xx_hal_tim_ex.c **** {
 507              		.loc 1 316 1
 508              		.cfi_startproc
 509              		@ args = 0, pretend = 0, frame = 16
 510              		@ frame_needed = 1, uses_anonymous_args = 0
 511 0000 F0B5     		push	{r4, r5, r6, r7, lr}
 512              	.LCFI12:
 513              		.cfi_def_cfa_offset 20
 514              		.cfi_offset 4, -20
 515              		.cfi_offset 5, -16
 516              		.cfi_offset 6, -12
 517              		.cfi_offset 7, -8
 518              		.cfi_offset 14, -4
 519 0002 85B0     		sub	sp, sp, #20
 520              	.LCFI13:
 521              		.cfi_def_cfa_offset 40
 522 0004 00AF     		add	r7, sp, #0
 523              	.LCFI14:
 524              		.cfi_def_cfa_register 7
 525 0006 7860     		str	r0, [r7, #4]
 317:Drivers/STM32F0xx_HAL_Driver/Src/stm32f0xx_hal_tim_ex.c ****   uint32_t tmpsmcr;
 318:Drivers/STM32F0xx_HAL_Driver/Src/stm32f0xx_hal_tim_ex.c ****   HAL_TIM_ChannelStateTypeDef channel_1_state = TIM_CHANNEL_STATE_GET(htim, TIM_CHANNEL_1);
 526              		.loc 1 318 31
 527 0008 0F20     		movs	r0, #15
 528 000a 3B18     		adds	r3, r7, r0
 529 000c 7A68     		ldr	r2, [r7, #4]
 530 000e 3E21     		movs	r1, #62
 531 0010 525C     		ldrb	r2, [r2, r1]
 532 0012 1A70     		strb	r2, [r3]
 319:Drivers/STM32F0xx_HAL_Driver/Src/stm32f0xx_hal_tim_ex.c ****   HAL_TIM_ChannelStateTypeDef channel_2_state = TIM_CHANNEL_STATE_GET(htim, TIM_CHANNEL_2);
 533              		.loc 1 319 31
 534 0014 0E24     		movs	r4, #14
 535 0016 3B19     		adds	r3, r7, r4
 536 0018 7A68     		ldr	r2, [r7, #4]
 537 001a 3F21     		movs	r1, #63
 538 001c 525C     		ldrb	r2, [r2, r1]
 539 001e 1A70     		strb	r2, [r3]
 320:Drivers/STM32F0xx_HAL_Driver/Src/stm32f0xx_hal_tim_ex.c ****   HAL_TIM_ChannelStateTypeDef complementary_channel_1_state = TIM_CHANNEL_N_STATE_GET(htim, TIM_CHA
 540              		.loc 1 320 31
 541 0020 0D25     		movs	r5, #13
 542 0022 7B19     		adds	r3, r7, r5
 543 0024 7A68     		ldr	r2, [r7, #4]
 544 0026 4221     		movs	r1, #66
ARM GAS  /var/folders/d0/cymppscj10lcmm48h781wrc80000gn/T//cc0qcKWW.s 			page 16


 545 0028 525C     		ldrb	r2, [r2, r1]
 546 002a 1A70     		strb	r2, [r3]
 321:Drivers/STM32F0xx_HAL_Driver/Src/stm32f0xx_hal_tim_ex.c ****   HAL_TIM_ChannelStateTypeDef complementary_channel_2_state = TIM_CHANNEL_N_STATE_GET(htim, TIM_CHA
 547              		.loc 1 321 31
 548 002c 0C26     		movs	r6, #12
 549 002e BB19     		adds	r3, r7, r6
 550 0030 7A68     		ldr	r2, [r7, #4]
 551 0032 4321     		movs	r1, #67
 552 0034 525C     		ldrb	r2, [r2, r1]
 553 0036 1A70     		strb	r2, [r3]
 322:Drivers/STM32F0xx_HAL_Driver/Src/stm32f0xx_hal_tim_ex.c **** 
 323:Drivers/STM32F0xx_HAL_Driver/Src/stm32f0xx_hal_tim_ex.c ****   /* Check the parameters */
 324:Drivers/STM32F0xx_HAL_Driver/Src/stm32f0xx_hal_tim_ex.c ****   assert_param(IS_TIM_HALL_SENSOR_INTERFACE_INSTANCE(htim->Instance));
 325:Drivers/STM32F0xx_HAL_Driver/Src/stm32f0xx_hal_tim_ex.c **** 
 326:Drivers/STM32F0xx_HAL_Driver/Src/stm32f0xx_hal_tim_ex.c ****   /* Check the TIM channels state */
 327:Drivers/STM32F0xx_HAL_Driver/Src/stm32f0xx_hal_tim_ex.c ****   if ((channel_1_state != HAL_TIM_CHANNEL_STATE_READY)
 554              		.loc 1 327 6
 555 0038 3B18     		adds	r3, r7, r0
 556 003a 1B78     		ldrb	r3, [r3]
 557 003c 012B     		cmp	r3, #1
 558 003e 0BD1     		bne	.L18
 328:Drivers/STM32F0xx_HAL_Driver/Src/stm32f0xx_hal_tim_ex.c ****       || (channel_2_state != HAL_TIM_CHANNEL_STATE_READY)
 559              		.loc 1 328 7
 560 0040 3B19     		adds	r3, r7, r4
 561 0042 1B78     		ldrb	r3, [r3]
 562 0044 012B     		cmp	r3, #1
 563 0046 07D1     		bne	.L18
 329:Drivers/STM32F0xx_HAL_Driver/Src/stm32f0xx_hal_tim_ex.c ****       || (complementary_channel_1_state != HAL_TIM_CHANNEL_STATE_READY)
 564              		.loc 1 329 7
 565 0048 7B19     		adds	r3, r7, r5
 566 004a 1B78     		ldrb	r3, [r3]
 567 004c 012B     		cmp	r3, #1
 568 004e 03D1     		bne	.L18
 330:Drivers/STM32F0xx_HAL_Driver/Src/stm32f0xx_hal_tim_ex.c ****       || (complementary_channel_2_state != HAL_TIM_CHANNEL_STATE_READY))
 569              		.loc 1 330 7
 570 0050 BB19     		adds	r3, r7, r6
 571 0052 1B78     		ldrb	r3, [r3]
 572 0054 012B     		cmp	r3, #1
 573 0056 01D0     		beq	.L19
 574              	.L18:
 331:Drivers/STM32F0xx_HAL_Driver/Src/stm32f0xx_hal_tim_ex.c ****   {
 332:Drivers/STM32F0xx_HAL_Driver/Src/stm32f0xx_hal_tim_ex.c ****     return HAL_ERROR;
 575              		.loc 1 332 12
 576 0058 0123     		movs	r3, #1
 577 005a 40E0     		b	.L20
 578              	.L19:
 333:Drivers/STM32F0xx_HAL_Driver/Src/stm32f0xx_hal_tim_ex.c ****   }
 334:Drivers/STM32F0xx_HAL_Driver/Src/stm32f0xx_hal_tim_ex.c **** 
 335:Drivers/STM32F0xx_HAL_Driver/Src/stm32f0xx_hal_tim_ex.c ****   /* Set the TIM channels state */
 336:Drivers/STM32F0xx_HAL_Driver/Src/stm32f0xx_hal_tim_ex.c ****   TIM_CHANNEL_STATE_SET(htim, TIM_CHANNEL_1, HAL_TIM_CHANNEL_STATE_BUSY);
 579              		.loc 1 336 3
 580 005c 7B68     		ldr	r3, [r7, #4]
 581 005e 3E22     		movs	r2, #62
 582 0060 0221     		movs	r1, #2
 583 0062 9954     		strb	r1, [r3, r2]
 337:Drivers/STM32F0xx_HAL_Driver/Src/stm32f0xx_hal_tim_ex.c ****   TIM_CHANNEL_STATE_SET(htim, TIM_CHANNEL_2, HAL_TIM_CHANNEL_STATE_BUSY);
 584              		.loc 1 337 3
ARM GAS  /var/folders/d0/cymppscj10lcmm48h781wrc80000gn/T//cc0qcKWW.s 			page 17


 585 0064 7B68     		ldr	r3, [r7, #4]
 586 0066 3F22     		movs	r2, #63
 587 0068 0221     		movs	r1, #2
 588 006a 9954     		strb	r1, [r3, r2]
 338:Drivers/STM32F0xx_HAL_Driver/Src/stm32f0xx_hal_tim_ex.c ****   TIM_CHANNEL_N_STATE_SET(htim, TIM_CHANNEL_1, HAL_TIM_CHANNEL_STATE_BUSY);
 589              		.loc 1 338 3
 590 006c 7B68     		ldr	r3, [r7, #4]
 591 006e 4222     		movs	r2, #66
 592 0070 0221     		movs	r1, #2
 593 0072 9954     		strb	r1, [r3, r2]
 339:Drivers/STM32F0xx_HAL_Driver/Src/stm32f0xx_hal_tim_ex.c ****   TIM_CHANNEL_N_STATE_SET(htim, TIM_CHANNEL_2, HAL_TIM_CHANNEL_STATE_BUSY);
 594              		.loc 1 339 3
 595 0074 7B68     		ldr	r3, [r7, #4]
 596 0076 4322     		movs	r2, #67
 597 0078 0221     		movs	r1, #2
 598 007a 9954     		strb	r1, [r3, r2]
 340:Drivers/STM32F0xx_HAL_Driver/Src/stm32f0xx_hal_tim_ex.c **** 
 341:Drivers/STM32F0xx_HAL_Driver/Src/stm32f0xx_hal_tim_ex.c ****   /* Enable the Input Capture channel 1
 342:Drivers/STM32F0xx_HAL_Driver/Src/stm32f0xx_hal_tim_ex.c ****   (in the Hall Sensor Interface the three possible channels that can be used are TIM_CHANNEL_1,
 343:Drivers/STM32F0xx_HAL_Driver/Src/stm32f0xx_hal_tim_ex.c ****   TIM_CHANNEL_2 and TIM_CHANNEL_3) */
 344:Drivers/STM32F0xx_HAL_Driver/Src/stm32f0xx_hal_tim_ex.c ****   TIM_CCxChannelCmd(htim->Instance, TIM_CHANNEL_1, TIM_CCx_ENABLE);
 599              		.loc 1 344 3
 600 007c 7B68     		ldr	r3, [r7, #4]
 601 007e 1B68     		ldr	r3, [r3]
 602 0080 0122     		movs	r2, #1
 603 0082 0021     		movs	r1, #0
 604 0084 1800     		movs	r0, r3
 605 0086 FFF7FEFF 		bl	TIM_CCxChannelCmd
 345:Drivers/STM32F0xx_HAL_Driver/Src/stm32f0xx_hal_tim_ex.c **** 
 346:Drivers/STM32F0xx_HAL_Driver/Src/stm32f0xx_hal_tim_ex.c ****   /* Enable the Peripheral, except in trigger mode where enable is automatically done with trigger 
 347:Drivers/STM32F0xx_HAL_Driver/Src/stm32f0xx_hal_tim_ex.c ****   if (IS_TIM_SLAVE_INSTANCE(htim->Instance))
 606              		.loc 1 347 7
 607 008a 7B68     		ldr	r3, [r7, #4]
 608 008c 1B68     		ldr	r3, [r3]
 609              		.loc 1 347 6
 610 008e 164A     		ldr	r2, .L25
 611 0090 9342     		cmp	r3, r2
 612 0092 09D0     		beq	.L21
 613              		.loc 1 347 7 discriminator 1
 614 0094 7B68     		ldr	r3, [r7, #4]
 615 0096 1B68     		ldr	r3, [r3]
 616 0098 144A     		ldr	r2, .L25+4
 617 009a 9342     		cmp	r3, r2
 618 009c 04D0     		beq	.L21
 619              		.loc 1 347 7 is_stmt 0 discriminator 2
 620 009e 7B68     		ldr	r3, [r7, #4]
 621 00a0 1B68     		ldr	r3, [r3]
 622 00a2 134A     		ldr	r2, .L25+8
 623 00a4 9342     		cmp	r3, r2
 624 00a6 11D1     		bne	.L22
 625              	.L21:
 348:Drivers/STM32F0xx_HAL_Driver/Src/stm32f0xx_hal_tim_ex.c ****   {
 349:Drivers/STM32F0xx_HAL_Driver/Src/stm32f0xx_hal_tim_ex.c ****     tmpsmcr = htim->Instance->SMCR & TIM_SMCR_SMS;
 626              		.loc 1 349 19 is_stmt 1
 627 00a8 7B68     		ldr	r3, [r7, #4]
 628 00aa 1B68     		ldr	r3, [r3]
 629              		.loc 1 349 29
ARM GAS  /var/folders/d0/cymppscj10lcmm48h781wrc80000gn/T//cc0qcKWW.s 			page 18


 630 00ac 9B68     		ldr	r3, [r3, #8]
 631              		.loc 1 349 13
 632 00ae 0722     		movs	r2, #7
 633 00b0 1340     		ands	r3, r2
 634 00b2 BB60     		str	r3, [r7, #8]
 350:Drivers/STM32F0xx_HAL_Driver/Src/stm32f0xx_hal_tim_ex.c ****     if (!IS_TIM_SLAVEMODE_TRIGGER_ENABLED(tmpsmcr))
 635              		.loc 1 350 8
 636 00b4 BB68     		ldr	r3, [r7, #8]
 637 00b6 062B     		cmp	r3, #6
 638 00b8 10D0     		beq	.L24
 351:Drivers/STM32F0xx_HAL_Driver/Src/stm32f0xx_hal_tim_ex.c ****     {
 352:Drivers/STM32F0xx_HAL_Driver/Src/stm32f0xx_hal_tim_ex.c ****       __HAL_TIM_ENABLE(htim);
 639              		.loc 1 352 7
 640 00ba 7B68     		ldr	r3, [r7, #4]
 641 00bc 1B68     		ldr	r3, [r3]
 642 00be 1A68     		ldr	r2, [r3]
 643 00c0 7B68     		ldr	r3, [r7, #4]
 644 00c2 1B68     		ldr	r3, [r3]
 645 00c4 0121     		movs	r1, #1
 646 00c6 0A43     		orrs	r2, r1
 647 00c8 1A60     		str	r2, [r3]
 350:Drivers/STM32F0xx_HAL_Driver/Src/stm32f0xx_hal_tim_ex.c ****     if (!IS_TIM_SLAVEMODE_TRIGGER_ENABLED(tmpsmcr))
 648              		.loc 1 350 8
 649 00ca 07E0     		b	.L24
 650              	.L22:
 353:Drivers/STM32F0xx_HAL_Driver/Src/stm32f0xx_hal_tim_ex.c ****     }
 354:Drivers/STM32F0xx_HAL_Driver/Src/stm32f0xx_hal_tim_ex.c ****   }
 355:Drivers/STM32F0xx_HAL_Driver/Src/stm32f0xx_hal_tim_ex.c ****   else
 356:Drivers/STM32F0xx_HAL_Driver/Src/stm32f0xx_hal_tim_ex.c ****   {
 357:Drivers/STM32F0xx_HAL_Driver/Src/stm32f0xx_hal_tim_ex.c ****     __HAL_TIM_ENABLE(htim);
 651              		.loc 1 357 5
 652 00cc 7B68     		ldr	r3, [r7, #4]
 653 00ce 1B68     		ldr	r3, [r3]
 654 00d0 1A68     		ldr	r2, [r3]
 655 00d2 7B68     		ldr	r3, [r7, #4]
 656 00d4 1B68     		ldr	r3, [r3]
 657 00d6 0121     		movs	r1, #1
 658 00d8 0A43     		orrs	r2, r1
 659 00da 1A60     		str	r2, [r3]
 660              	.L24:
 358:Drivers/STM32F0xx_HAL_Driver/Src/stm32f0xx_hal_tim_ex.c ****   }
 359:Drivers/STM32F0xx_HAL_Driver/Src/stm32f0xx_hal_tim_ex.c **** 
 360:Drivers/STM32F0xx_HAL_Driver/Src/stm32f0xx_hal_tim_ex.c ****   /* Return function status */
 361:Drivers/STM32F0xx_HAL_Driver/Src/stm32f0xx_hal_tim_ex.c ****   return HAL_OK;
 661              		.loc 1 361 10
 662 00dc 0023     		movs	r3, #0
 663              	.L20:
 362:Drivers/STM32F0xx_HAL_Driver/Src/stm32f0xx_hal_tim_ex.c **** }
 664              		.loc 1 362 1
 665 00de 1800     		movs	r0, r3
 666 00e0 BD46     		mov	sp, r7
 667 00e2 05B0     		add	sp, sp, #20
 668              		@ sp needed
 669 00e4 F0BD     		pop	{r4, r5, r6, r7, pc}
 670              	.L26:
 671 00e6 C046     		.align	2
 672              	.L25:
ARM GAS  /var/folders/d0/cymppscj10lcmm48h781wrc80000gn/T//cc0qcKWW.s 			page 19


 673 00e8 002C0140 		.word	1073818624
 674 00ec 00040040 		.word	1073742848
 675 00f0 00400140 		.word	1073823744
 676              		.cfi_endproc
 677              	.LFE44:
 679              		.section	.text.HAL_TIMEx_HallSensor_Stop,"ax",%progbits
 680              		.align	1
 681              		.global	HAL_TIMEx_HallSensor_Stop
 682              		.syntax unified
 683              		.code	16
 684              		.thumb_func
 686              	HAL_TIMEx_HallSensor_Stop:
 687              	.LFB45:
 363:Drivers/STM32F0xx_HAL_Driver/Src/stm32f0xx_hal_tim_ex.c **** 
 364:Drivers/STM32F0xx_HAL_Driver/Src/stm32f0xx_hal_tim_ex.c **** /**
 365:Drivers/STM32F0xx_HAL_Driver/Src/stm32f0xx_hal_tim_ex.c ****   * @brief  Stops the TIM Hall sensor Interface.
 366:Drivers/STM32F0xx_HAL_Driver/Src/stm32f0xx_hal_tim_ex.c ****   * @param  htim TIM Hall Sensor Interface handle
 367:Drivers/STM32F0xx_HAL_Driver/Src/stm32f0xx_hal_tim_ex.c ****   * @retval HAL status
 368:Drivers/STM32F0xx_HAL_Driver/Src/stm32f0xx_hal_tim_ex.c ****   */
 369:Drivers/STM32F0xx_HAL_Driver/Src/stm32f0xx_hal_tim_ex.c **** HAL_StatusTypeDef HAL_TIMEx_HallSensor_Stop(TIM_HandleTypeDef *htim)
 370:Drivers/STM32F0xx_HAL_Driver/Src/stm32f0xx_hal_tim_ex.c **** {
 688              		.loc 1 370 1
 689              		.cfi_startproc
 690              		@ args = 0, pretend = 0, frame = 8
 691              		@ frame_needed = 1, uses_anonymous_args = 0
 692 0000 80B5     		push	{r7, lr}
 693              	.LCFI15:
 694              		.cfi_def_cfa_offset 8
 695              		.cfi_offset 7, -8
 696              		.cfi_offset 14, -4
 697 0002 82B0     		sub	sp, sp, #8
 698              	.LCFI16:
 699              		.cfi_def_cfa_offset 16
 700 0004 00AF     		add	r7, sp, #0
 701              	.LCFI17:
 702              		.cfi_def_cfa_register 7
 703 0006 7860     		str	r0, [r7, #4]
 371:Drivers/STM32F0xx_HAL_Driver/Src/stm32f0xx_hal_tim_ex.c ****   /* Check the parameters */
 372:Drivers/STM32F0xx_HAL_Driver/Src/stm32f0xx_hal_tim_ex.c ****   assert_param(IS_TIM_HALL_SENSOR_INTERFACE_INSTANCE(htim->Instance));
 373:Drivers/STM32F0xx_HAL_Driver/Src/stm32f0xx_hal_tim_ex.c **** 
 374:Drivers/STM32F0xx_HAL_Driver/Src/stm32f0xx_hal_tim_ex.c ****   /* Disable the Input Capture channels 1, 2 and 3
 375:Drivers/STM32F0xx_HAL_Driver/Src/stm32f0xx_hal_tim_ex.c ****   (in the Hall Sensor Interface the three possible channels that can be used are TIM_CHANNEL_1,
 376:Drivers/STM32F0xx_HAL_Driver/Src/stm32f0xx_hal_tim_ex.c ****   TIM_CHANNEL_2 and TIM_CHANNEL_3) */
 377:Drivers/STM32F0xx_HAL_Driver/Src/stm32f0xx_hal_tim_ex.c ****   TIM_CCxChannelCmd(htim->Instance, TIM_CHANNEL_1, TIM_CCx_DISABLE);
 704              		.loc 1 377 3
 705 0008 7B68     		ldr	r3, [r7, #4]
 706 000a 1B68     		ldr	r3, [r3]
 707 000c 0022     		movs	r2, #0
 708 000e 0021     		movs	r1, #0
 709 0010 1800     		movs	r0, r3
 710 0012 FFF7FEFF 		bl	TIM_CCxChannelCmd
 378:Drivers/STM32F0xx_HAL_Driver/Src/stm32f0xx_hal_tim_ex.c **** 
 379:Drivers/STM32F0xx_HAL_Driver/Src/stm32f0xx_hal_tim_ex.c ****   /* Disable the Peripheral */
 380:Drivers/STM32F0xx_HAL_Driver/Src/stm32f0xx_hal_tim_ex.c ****   __HAL_TIM_DISABLE(htim);
 711              		.loc 1 380 3
 712 0016 7B68     		ldr	r3, [r7, #4]
 713 0018 1B68     		ldr	r3, [r3]
ARM GAS  /var/folders/d0/cymppscj10lcmm48h781wrc80000gn/T//cc0qcKWW.s 			page 20


 714 001a 1B6A     		ldr	r3, [r3, #32]
 715 001c 124A     		ldr	r2, .L30
 716 001e 1340     		ands	r3, r2
 717 0020 0DD1     		bne	.L28
 718              		.loc 1 380 3 is_stmt 0 discriminator 1
 719 0022 7B68     		ldr	r3, [r7, #4]
 720 0024 1B68     		ldr	r3, [r3]
 721 0026 1B6A     		ldr	r3, [r3, #32]
 722 0028 104A     		ldr	r2, .L30+4
 723 002a 1340     		ands	r3, r2
 724 002c 07D1     		bne	.L28
 725              		.loc 1 380 3 discriminator 2
 726 002e 7B68     		ldr	r3, [r7, #4]
 727 0030 1B68     		ldr	r3, [r3]
 728 0032 1A68     		ldr	r2, [r3]
 729 0034 7B68     		ldr	r3, [r7, #4]
 730 0036 1B68     		ldr	r3, [r3]
 731 0038 0121     		movs	r1, #1
 732 003a 8A43     		bics	r2, r1
 733 003c 1A60     		str	r2, [r3]
 734              	.L28:
 381:Drivers/STM32F0xx_HAL_Driver/Src/stm32f0xx_hal_tim_ex.c **** 
 382:Drivers/STM32F0xx_HAL_Driver/Src/stm32f0xx_hal_tim_ex.c ****   /* Set the TIM channels state */
 383:Drivers/STM32F0xx_HAL_Driver/Src/stm32f0xx_hal_tim_ex.c ****   TIM_CHANNEL_STATE_SET(htim, TIM_CHANNEL_1, HAL_TIM_CHANNEL_STATE_READY);
 735              		.loc 1 383 3 is_stmt 1
 736 003e 7B68     		ldr	r3, [r7, #4]
 737 0040 3E22     		movs	r2, #62
 738 0042 0121     		movs	r1, #1
 739 0044 9954     		strb	r1, [r3, r2]
 384:Drivers/STM32F0xx_HAL_Driver/Src/stm32f0xx_hal_tim_ex.c ****   TIM_CHANNEL_STATE_SET(htim, TIM_CHANNEL_2, HAL_TIM_CHANNEL_STATE_READY);
 740              		.loc 1 384 3
 741 0046 7B68     		ldr	r3, [r7, #4]
 742 0048 3F22     		movs	r2, #63
 743 004a 0121     		movs	r1, #1
 744 004c 9954     		strb	r1, [r3, r2]
 385:Drivers/STM32F0xx_HAL_Driver/Src/stm32f0xx_hal_tim_ex.c ****   TIM_CHANNEL_N_STATE_SET(htim, TIM_CHANNEL_1, HAL_TIM_CHANNEL_STATE_READY);
 745              		.loc 1 385 3
 746 004e 7B68     		ldr	r3, [r7, #4]
 747 0050 4222     		movs	r2, #66
 748 0052 0121     		movs	r1, #1
 749 0054 9954     		strb	r1, [r3, r2]
 386:Drivers/STM32F0xx_HAL_Driver/Src/stm32f0xx_hal_tim_ex.c ****   TIM_CHANNEL_N_STATE_SET(htim, TIM_CHANNEL_2, HAL_TIM_CHANNEL_STATE_READY);
 750              		.loc 1 386 3
 751 0056 7B68     		ldr	r3, [r7, #4]
 752 0058 4322     		movs	r2, #67
 753 005a 0121     		movs	r1, #1
 754 005c 9954     		strb	r1, [r3, r2]
 387:Drivers/STM32F0xx_HAL_Driver/Src/stm32f0xx_hal_tim_ex.c **** 
 388:Drivers/STM32F0xx_HAL_Driver/Src/stm32f0xx_hal_tim_ex.c ****   /* Return function status */
 389:Drivers/STM32F0xx_HAL_Driver/Src/stm32f0xx_hal_tim_ex.c ****   return HAL_OK;
 755              		.loc 1 389 10
 756 005e 0023     		movs	r3, #0
 390:Drivers/STM32F0xx_HAL_Driver/Src/stm32f0xx_hal_tim_ex.c **** }
 757              		.loc 1 390 1
 758 0060 1800     		movs	r0, r3
 759 0062 BD46     		mov	sp, r7
 760 0064 02B0     		add	sp, sp, #8
ARM GAS  /var/folders/d0/cymppscj10lcmm48h781wrc80000gn/T//cc0qcKWW.s 			page 21


 761              		@ sp needed
 762 0066 80BD     		pop	{r7, pc}
 763              	.L31:
 764              		.align	2
 765              	.L30:
 766 0068 11110000 		.word	4369
 767 006c 44040000 		.word	1092
 768              		.cfi_endproc
 769              	.LFE45:
 771              		.section	.text.HAL_TIMEx_HallSensor_Start_IT,"ax",%progbits
 772              		.align	1
 773              		.global	HAL_TIMEx_HallSensor_Start_IT
 774              		.syntax unified
 775              		.code	16
 776              		.thumb_func
 778              	HAL_TIMEx_HallSensor_Start_IT:
 779              	.LFB46:
 391:Drivers/STM32F0xx_HAL_Driver/Src/stm32f0xx_hal_tim_ex.c **** 
 392:Drivers/STM32F0xx_HAL_Driver/Src/stm32f0xx_hal_tim_ex.c **** /**
 393:Drivers/STM32F0xx_HAL_Driver/Src/stm32f0xx_hal_tim_ex.c ****   * @brief  Starts the TIM Hall Sensor Interface in interrupt mode.
 394:Drivers/STM32F0xx_HAL_Driver/Src/stm32f0xx_hal_tim_ex.c ****   * @param  htim TIM Hall Sensor Interface handle
 395:Drivers/STM32F0xx_HAL_Driver/Src/stm32f0xx_hal_tim_ex.c ****   * @retval HAL status
 396:Drivers/STM32F0xx_HAL_Driver/Src/stm32f0xx_hal_tim_ex.c ****   */
 397:Drivers/STM32F0xx_HAL_Driver/Src/stm32f0xx_hal_tim_ex.c **** HAL_StatusTypeDef HAL_TIMEx_HallSensor_Start_IT(TIM_HandleTypeDef *htim)
 398:Drivers/STM32F0xx_HAL_Driver/Src/stm32f0xx_hal_tim_ex.c **** {
 780              		.loc 1 398 1
 781              		.cfi_startproc
 782              		@ args = 0, pretend = 0, frame = 16
 783              		@ frame_needed = 1, uses_anonymous_args = 0
 784 0000 F0B5     		push	{r4, r5, r6, r7, lr}
 785              	.LCFI18:
 786              		.cfi_def_cfa_offset 20
 787              		.cfi_offset 4, -20
 788              		.cfi_offset 5, -16
 789              		.cfi_offset 6, -12
 790              		.cfi_offset 7, -8
 791              		.cfi_offset 14, -4
 792 0002 85B0     		sub	sp, sp, #20
 793              	.LCFI19:
 794              		.cfi_def_cfa_offset 40
 795 0004 00AF     		add	r7, sp, #0
 796              	.LCFI20:
 797              		.cfi_def_cfa_register 7
 798 0006 7860     		str	r0, [r7, #4]
 399:Drivers/STM32F0xx_HAL_Driver/Src/stm32f0xx_hal_tim_ex.c ****   uint32_t tmpsmcr;
 400:Drivers/STM32F0xx_HAL_Driver/Src/stm32f0xx_hal_tim_ex.c ****   HAL_TIM_ChannelStateTypeDef channel_1_state = TIM_CHANNEL_STATE_GET(htim, TIM_CHANNEL_1);
 799              		.loc 1 400 31
 800 0008 0F20     		movs	r0, #15
 801 000a 3B18     		adds	r3, r7, r0
 802 000c 7A68     		ldr	r2, [r7, #4]
 803 000e 3E21     		movs	r1, #62
 804 0010 525C     		ldrb	r2, [r2, r1]
 805 0012 1A70     		strb	r2, [r3]
 401:Drivers/STM32F0xx_HAL_Driver/Src/stm32f0xx_hal_tim_ex.c ****   HAL_TIM_ChannelStateTypeDef channel_2_state = TIM_CHANNEL_STATE_GET(htim, TIM_CHANNEL_2);
 806              		.loc 1 401 31
 807 0014 0E24     		movs	r4, #14
 808 0016 3B19     		adds	r3, r7, r4
ARM GAS  /var/folders/d0/cymppscj10lcmm48h781wrc80000gn/T//cc0qcKWW.s 			page 22


 809 0018 7A68     		ldr	r2, [r7, #4]
 810 001a 3F21     		movs	r1, #63
 811 001c 525C     		ldrb	r2, [r2, r1]
 812 001e 1A70     		strb	r2, [r3]
 402:Drivers/STM32F0xx_HAL_Driver/Src/stm32f0xx_hal_tim_ex.c ****   HAL_TIM_ChannelStateTypeDef complementary_channel_1_state = TIM_CHANNEL_N_STATE_GET(htim, TIM_CHA
 813              		.loc 1 402 31
 814 0020 0D25     		movs	r5, #13
 815 0022 7B19     		adds	r3, r7, r5
 816 0024 7A68     		ldr	r2, [r7, #4]
 817 0026 4221     		movs	r1, #66
 818 0028 525C     		ldrb	r2, [r2, r1]
 819 002a 1A70     		strb	r2, [r3]
 403:Drivers/STM32F0xx_HAL_Driver/Src/stm32f0xx_hal_tim_ex.c ****   HAL_TIM_ChannelStateTypeDef complementary_channel_2_state = TIM_CHANNEL_N_STATE_GET(htim, TIM_CHA
 820              		.loc 1 403 31
 821 002c 0C26     		movs	r6, #12
 822 002e BB19     		adds	r3, r7, r6
 823 0030 7A68     		ldr	r2, [r7, #4]
 824 0032 4321     		movs	r1, #67
 825 0034 525C     		ldrb	r2, [r2, r1]
 826 0036 1A70     		strb	r2, [r3]
 404:Drivers/STM32F0xx_HAL_Driver/Src/stm32f0xx_hal_tim_ex.c **** 
 405:Drivers/STM32F0xx_HAL_Driver/Src/stm32f0xx_hal_tim_ex.c ****   /* Check the parameters */
 406:Drivers/STM32F0xx_HAL_Driver/Src/stm32f0xx_hal_tim_ex.c ****   assert_param(IS_TIM_HALL_SENSOR_INTERFACE_INSTANCE(htim->Instance));
 407:Drivers/STM32F0xx_HAL_Driver/Src/stm32f0xx_hal_tim_ex.c **** 
 408:Drivers/STM32F0xx_HAL_Driver/Src/stm32f0xx_hal_tim_ex.c ****   /* Check the TIM channels state */
 409:Drivers/STM32F0xx_HAL_Driver/Src/stm32f0xx_hal_tim_ex.c ****   if ((channel_1_state != HAL_TIM_CHANNEL_STATE_READY)
 827              		.loc 1 409 6
 828 0038 3B18     		adds	r3, r7, r0
 829 003a 1B78     		ldrb	r3, [r3]
 830 003c 012B     		cmp	r3, #1
 831 003e 0BD1     		bne	.L33
 410:Drivers/STM32F0xx_HAL_Driver/Src/stm32f0xx_hal_tim_ex.c ****       || (channel_2_state != HAL_TIM_CHANNEL_STATE_READY)
 832              		.loc 1 410 7
 833 0040 3B19     		adds	r3, r7, r4
 834 0042 1B78     		ldrb	r3, [r3]
 835 0044 012B     		cmp	r3, #1
 836 0046 07D1     		bne	.L33
 411:Drivers/STM32F0xx_HAL_Driver/Src/stm32f0xx_hal_tim_ex.c ****       || (complementary_channel_1_state != HAL_TIM_CHANNEL_STATE_READY)
 837              		.loc 1 411 7
 838 0048 7B19     		adds	r3, r7, r5
 839 004a 1B78     		ldrb	r3, [r3]
 840 004c 012B     		cmp	r3, #1
 841 004e 03D1     		bne	.L33
 412:Drivers/STM32F0xx_HAL_Driver/Src/stm32f0xx_hal_tim_ex.c ****       || (complementary_channel_2_state != HAL_TIM_CHANNEL_STATE_READY))
 842              		.loc 1 412 7
 843 0050 BB19     		adds	r3, r7, r6
 844 0052 1B78     		ldrb	r3, [r3]
 845 0054 012B     		cmp	r3, #1
 846 0056 01D0     		beq	.L34
 847              	.L33:
 413:Drivers/STM32F0xx_HAL_Driver/Src/stm32f0xx_hal_tim_ex.c ****   {
 414:Drivers/STM32F0xx_HAL_Driver/Src/stm32f0xx_hal_tim_ex.c ****     return HAL_ERROR;
 848              		.loc 1 414 12
 849 0058 0123     		movs	r3, #1
 850 005a 48E0     		b	.L35
 851              	.L34:
 415:Drivers/STM32F0xx_HAL_Driver/Src/stm32f0xx_hal_tim_ex.c ****   }
ARM GAS  /var/folders/d0/cymppscj10lcmm48h781wrc80000gn/T//cc0qcKWW.s 			page 23


 416:Drivers/STM32F0xx_HAL_Driver/Src/stm32f0xx_hal_tim_ex.c **** 
 417:Drivers/STM32F0xx_HAL_Driver/Src/stm32f0xx_hal_tim_ex.c ****   /* Set the TIM channels state */
 418:Drivers/STM32F0xx_HAL_Driver/Src/stm32f0xx_hal_tim_ex.c ****   TIM_CHANNEL_STATE_SET(htim, TIM_CHANNEL_1, HAL_TIM_CHANNEL_STATE_BUSY);
 852              		.loc 1 418 3
 853 005c 7B68     		ldr	r3, [r7, #4]
 854 005e 3E22     		movs	r2, #62
 855 0060 0221     		movs	r1, #2
 856 0062 9954     		strb	r1, [r3, r2]
 419:Drivers/STM32F0xx_HAL_Driver/Src/stm32f0xx_hal_tim_ex.c ****   TIM_CHANNEL_STATE_SET(htim, TIM_CHANNEL_2, HAL_TIM_CHANNEL_STATE_BUSY);
 857              		.loc 1 419 3
 858 0064 7B68     		ldr	r3, [r7, #4]
 859 0066 3F22     		movs	r2, #63
 860 0068 0221     		movs	r1, #2
 861 006a 9954     		strb	r1, [r3, r2]
 420:Drivers/STM32F0xx_HAL_Driver/Src/stm32f0xx_hal_tim_ex.c ****   TIM_CHANNEL_N_STATE_SET(htim, TIM_CHANNEL_1, HAL_TIM_CHANNEL_STATE_BUSY);
 862              		.loc 1 420 3
 863 006c 7B68     		ldr	r3, [r7, #4]
 864 006e 4222     		movs	r2, #66
 865 0070 0221     		movs	r1, #2
 866 0072 9954     		strb	r1, [r3, r2]
 421:Drivers/STM32F0xx_HAL_Driver/Src/stm32f0xx_hal_tim_ex.c ****   TIM_CHANNEL_N_STATE_SET(htim, TIM_CHANNEL_2, HAL_TIM_CHANNEL_STATE_BUSY);
 867              		.loc 1 421 3
 868 0074 7B68     		ldr	r3, [r7, #4]
 869 0076 4322     		movs	r2, #67
 870 0078 0221     		movs	r1, #2
 871 007a 9954     		strb	r1, [r3, r2]
 422:Drivers/STM32F0xx_HAL_Driver/Src/stm32f0xx_hal_tim_ex.c **** 
 423:Drivers/STM32F0xx_HAL_Driver/Src/stm32f0xx_hal_tim_ex.c ****   /* Enable the capture compare Interrupts 1 event */
 424:Drivers/STM32F0xx_HAL_Driver/Src/stm32f0xx_hal_tim_ex.c ****   __HAL_TIM_ENABLE_IT(htim, TIM_IT_CC1);
 872              		.loc 1 424 3
 873 007c 7B68     		ldr	r3, [r7, #4]
 874 007e 1B68     		ldr	r3, [r3]
 875 0080 DA68     		ldr	r2, [r3, #12]
 876 0082 7B68     		ldr	r3, [r7, #4]
 877 0084 1B68     		ldr	r3, [r3]
 878 0086 0221     		movs	r1, #2
 879 0088 0A43     		orrs	r2, r1
 880 008a DA60     		str	r2, [r3, #12]
 425:Drivers/STM32F0xx_HAL_Driver/Src/stm32f0xx_hal_tim_ex.c **** 
 426:Drivers/STM32F0xx_HAL_Driver/Src/stm32f0xx_hal_tim_ex.c ****   /* Enable the Input Capture channel 1
 427:Drivers/STM32F0xx_HAL_Driver/Src/stm32f0xx_hal_tim_ex.c ****   (in the Hall Sensor Interface the three possible channels that can be used are TIM_CHANNEL_1,
 428:Drivers/STM32F0xx_HAL_Driver/Src/stm32f0xx_hal_tim_ex.c ****   TIM_CHANNEL_2 and TIM_CHANNEL_3) */
 429:Drivers/STM32F0xx_HAL_Driver/Src/stm32f0xx_hal_tim_ex.c ****   TIM_CCxChannelCmd(htim->Instance, TIM_CHANNEL_1, TIM_CCx_ENABLE);
 881              		.loc 1 429 3
 882 008c 7B68     		ldr	r3, [r7, #4]
 883 008e 1B68     		ldr	r3, [r3]
 884 0090 0122     		movs	r2, #1
 885 0092 0021     		movs	r1, #0
 886 0094 1800     		movs	r0, r3
 887 0096 FFF7FEFF 		bl	TIM_CCxChannelCmd
 430:Drivers/STM32F0xx_HAL_Driver/Src/stm32f0xx_hal_tim_ex.c **** 
 431:Drivers/STM32F0xx_HAL_Driver/Src/stm32f0xx_hal_tim_ex.c ****   /* Enable the Peripheral, except in trigger mode where enable is automatically done with trigger 
 432:Drivers/STM32F0xx_HAL_Driver/Src/stm32f0xx_hal_tim_ex.c ****   if (IS_TIM_SLAVE_INSTANCE(htim->Instance))
 888              		.loc 1 432 7
 889 009a 7B68     		ldr	r3, [r7, #4]
 890 009c 1B68     		ldr	r3, [r3]
 891              		.loc 1 432 6
ARM GAS  /var/folders/d0/cymppscj10lcmm48h781wrc80000gn/T//cc0qcKWW.s 			page 24


 892 009e 164A     		ldr	r2, .L40
 893 00a0 9342     		cmp	r3, r2
 894 00a2 09D0     		beq	.L36
 895              		.loc 1 432 7 discriminator 1
 896 00a4 7B68     		ldr	r3, [r7, #4]
 897 00a6 1B68     		ldr	r3, [r3]
 898 00a8 144A     		ldr	r2, .L40+4
 899 00aa 9342     		cmp	r3, r2
 900 00ac 04D0     		beq	.L36
 901              		.loc 1 432 7 is_stmt 0 discriminator 2
 902 00ae 7B68     		ldr	r3, [r7, #4]
 903 00b0 1B68     		ldr	r3, [r3]
 904 00b2 134A     		ldr	r2, .L40+8
 905 00b4 9342     		cmp	r3, r2
 906 00b6 11D1     		bne	.L37
 907              	.L36:
 433:Drivers/STM32F0xx_HAL_Driver/Src/stm32f0xx_hal_tim_ex.c ****   {
 434:Drivers/STM32F0xx_HAL_Driver/Src/stm32f0xx_hal_tim_ex.c ****     tmpsmcr = htim->Instance->SMCR & TIM_SMCR_SMS;
 908              		.loc 1 434 19 is_stmt 1
 909 00b8 7B68     		ldr	r3, [r7, #4]
 910 00ba 1B68     		ldr	r3, [r3]
 911              		.loc 1 434 29
 912 00bc 9B68     		ldr	r3, [r3, #8]
 913              		.loc 1 434 13
 914 00be 0722     		movs	r2, #7
 915 00c0 1340     		ands	r3, r2
 916 00c2 BB60     		str	r3, [r7, #8]
 435:Drivers/STM32F0xx_HAL_Driver/Src/stm32f0xx_hal_tim_ex.c ****     if (!IS_TIM_SLAVEMODE_TRIGGER_ENABLED(tmpsmcr))
 917              		.loc 1 435 8
 918 00c4 BB68     		ldr	r3, [r7, #8]
 919 00c6 062B     		cmp	r3, #6
 920 00c8 10D0     		beq	.L39
 436:Drivers/STM32F0xx_HAL_Driver/Src/stm32f0xx_hal_tim_ex.c ****     {
 437:Drivers/STM32F0xx_HAL_Driver/Src/stm32f0xx_hal_tim_ex.c ****       __HAL_TIM_ENABLE(htim);
 921              		.loc 1 437 7
 922 00ca 7B68     		ldr	r3, [r7, #4]
 923 00cc 1B68     		ldr	r3, [r3]
 924 00ce 1A68     		ldr	r2, [r3]
 925 00d0 7B68     		ldr	r3, [r7, #4]
 926 00d2 1B68     		ldr	r3, [r3]
 927 00d4 0121     		movs	r1, #1
 928 00d6 0A43     		orrs	r2, r1
 929 00d8 1A60     		str	r2, [r3]
 435:Drivers/STM32F0xx_HAL_Driver/Src/stm32f0xx_hal_tim_ex.c ****     if (!IS_TIM_SLAVEMODE_TRIGGER_ENABLED(tmpsmcr))
 930              		.loc 1 435 8
 931 00da 07E0     		b	.L39
 932              	.L37:
 438:Drivers/STM32F0xx_HAL_Driver/Src/stm32f0xx_hal_tim_ex.c ****     }
 439:Drivers/STM32F0xx_HAL_Driver/Src/stm32f0xx_hal_tim_ex.c ****   }
 440:Drivers/STM32F0xx_HAL_Driver/Src/stm32f0xx_hal_tim_ex.c ****   else
 441:Drivers/STM32F0xx_HAL_Driver/Src/stm32f0xx_hal_tim_ex.c ****   {
 442:Drivers/STM32F0xx_HAL_Driver/Src/stm32f0xx_hal_tim_ex.c ****     __HAL_TIM_ENABLE(htim);
 933              		.loc 1 442 5
 934 00dc 7B68     		ldr	r3, [r7, #4]
 935 00de 1B68     		ldr	r3, [r3]
 936 00e0 1A68     		ldr	r2, [r3]
 937 00e2 7B68     		ldr	r3, [r7, #4]
ARM GAS  /var/folders/d0/cymppscj10lcmm48h781wrc80000gn/T//cc0qcKWW.s 			page 25


 938 00e4 1B68     		ldr	r3, [r3]
 939 00e6 0121     		movs	r1, #1
 940 00e8 0A43     		orrs	r2, r1
 941 00ea 1A60     		str	r2, [r3]
 942              	.L39:
 443:Drivers/STM32F0xx_HAL_Driver/Src/stm32f0xx_hal_tim_ex.c ****   }
 444:Drivers/STM32F0xx_HAL_Driver/Src/stm32f0xx_hal_tim_ex.c **** 
 445:Drivers/STM32F0xx_HAL_Driver/Src/stm32f0xx_hal_tim_ex.c ****   /* Return function status */
 446:Drivers/STM32F0xx_HAL_Driver/Src/stm32f0xx_hal_tim_ex.c ****   return HAL_OK;
 943              		.loc 1 446 10
 944 00ec 0023     		movs	r3, #0
 945              	.L35:
 447:Drivers/STM32F0xx_HAL_Driver/Src/stm32f0xx_hal_tim_ex.c **** }
 946              		.loc 1 447 1
 947 00ee 1800     		movs	r0, r3
 948 00f0 BD46     		mov	sp, r7
 949 00f2 05B0     		add	sp, sp, #20
 950              		@ sp needed
 951 00f4 F0BD     		pop	{r4, r5, r6, r7, pc}
 952              	.L41:
 953 00f6 C046     		.align	2
 954              	.L40:
 955 00f8 002C0140 		.word	1073818624
 956 00fc 00040040 		.word	1073742848
 957 0100 00400140 		.word	1073823744
 958              		.cfi_endproc
 959              	.LFE46:
 961              		.section	.text.HAL_TIMEx_HallSensor_Stop_IT,"ax",%progbits
 962              		.align	1
 963              		.global	HAL_TIMEx_HallSensor_Stop_IT
 964              		.syntax unified
 965              		.code	16
 966              		.thumb_func
 968              	HAL_TIMEx_HallSensor_Stop_IT:
 969              	.LFB47:
 448:Drivers/STM32F0xx_HAL_Driver/Src/stm32f0xx_hal_tim_ex.c **** 
 449:Drivers/STM32F0xx_HAL_Driver/Src/stm32f0xx_hal_tim_ex.c **** /**
 450:Drivers/STM32F0xx_HAL_Driver/Src/stm32f0xx_hal_tim_ex.c ****   * @brief  Stops the TIM Hall Sensor Interface in interrupt mode.
 451:Drivers/STM32F0xx_HAL_Driver/Src/stm32f0xx_hal_tim_ex.c ****   * @param  htim TIM Hall Sensor Interface handle
 452:Drivers/STM32F0xx_HAL_Driver/Src/stm32f0xx_hal_tim_ex.c ****   * @retval HAL status
 453:Drivers/STM32F0xx_HAL_Driver/Src/stm32f0xx_hal_tim_ex.c ****   */
 454:Drivers/STM32F0xx_HAL_Driver/Src/stm32f0xx_hal_tim_ex.c **** HAL_StatusTypeDef HAL_TIMEx_HallSensor_Stop_IT(TIM_HandleTypeDef *htim)
 455:Drivers/STM32F0xx_HAL_Driver/Src/stm32f0xx_hal_tim_ex.c **** {
 970              		.loc 1 455 1
 971              		.cfi_startproc
 972              		@ args = 0, pretend = 0, frame = 8
 973              		@ frame_needed = 1, uses_anonymous_args = 0
 974 0000 80B5     		push	{r7, lr}
 975              	.LCFI21:
 976              		.cfi_def_cfa_offset 8
 977              		.cfi_offset 7, -8
 978              		.cfi_offset 14, -4
 979 0002 82B0     		sub	sp, sp, #8
 980              	.LCFI22:
 981              		.cfi_def_cfa_offset 16
 982 0004 00AF     		add	r7, sp, #0
 983              	.LCFI23:
ARM GAS  /var/folders/d0/cymppscj10lcmm48h781wrc80000gn/T//cc0qcKWW.s 			page 26


 984              		.cfi_def_cfa_register 7
 985 0006 7860     		str	r0, [r7, #4]
 456:Drivers/STM32F0xx_HAL_Driver/Src/stm32f0xx_hal_tim_ex.c ****   /* Check the parameters */
 457:Drivers/STM32F0xx_HAL_Driver/Src/stm32f0xx_hal_tim_ex.c ****   assert_param(IS_TIM_HALL_SENSOR_INTERFACE_INSTANCE(htim->Instance));
 458:Drivers/STM32F0xx_HAL_Driver/Src/stm32f0xx_hal_tim_ex.c **** 
 459:Drivers/STM32F0xx_HAL_Driver/Src/stm32f0xx_hal_tim_ex.c ****   /* Disable the Input Capture channel 1
 460:Drivers/STM32F0xx_HAL_Driver/Src/stm32f0xx_hal_tim_ex.c ****   (in the Hall Sensor Interface the three possible channels that can be used are TIM_CHANNEL_1,
 461:Drivers/STM32F0xx_HAL_Driver/Src/stm32f0xx_hal_tim_ex.c ****   TIM_CHANNEL_2 and TIM_CHANNEL_3) */
 462:Drivers/STM32F0xx_HAL_Driver/Src/stm32f0xx_hal_tim_ex.c ****   TIM_CCxChannelCmd(htim->Instance, TIM_CHANNEL_1, TIM_CCx_DISABLE);
 986              		.loc 1 462 3
 987 0008 7B68     		ldr	r3, [r7, #4]
 988 000a 1B68     		ldr	r3, [r3]
 989 000c 0022     		movs	r2, #0
 990 000e 0021     		movs	r1, #0
 991 0010 1800     		movs	r0, r3
 992 0012 FFF7FEFF 		bl	TIM_CCxChannelCmd
 463:Drivers/STM32F0xx_HAL_Driver/Src/stm32f0xx_hal_tim_ex.c **** 
 464:Drivers/STM32F0xx_HAL_Driver/Src/stm32f0xx_hal_tim_ex.c ****   /* Disable the capture compare Interrupts event */
 465:Drivers/STM32F0xx_HAL_Driver/Src/stm32f0xx_hal_tim_ex.c ****   __HAL_TIM_DISABLE_IT(htim, TIM_IT_CC1);
 993              		.loc 1 465 3
 994 0016 7B68     		ldr	r3, [r7, #4]
 995 0018 1B68     		ldr	r3, [r3]
 996 001a DA68     		ldr	r2, [r3, #12]
 997 001c 7B68     		ldr	r3, [r7, #4]
 998 001e 1B68     		ldr	r3, [r3]
 999 0020 0221     		movs	r1, #2
 1000 0022 8A43     		bics	r2, r1
 1001 0024 DA60     		str	r2, [r3, #12]
 466:Drivers/STM32F0xx_HAL_Driver/Src/stm32f0xx_hal_tim_ex.c **** 
 467:Drivers/STM32F0xx_HAL_Driver/Src/stm32f0xx_hal_tim_ex.c ****   /* Disable the Peripheral */
 468:Drivers/STM32F0xx_HAL_Driver/Src/stm32f0xx_hal_tim_ex.c ****   __HAL_TIM_DISABLE(htim);
 1002              		.loc 1 468 3
 1003 0026 7B68     		ldr	r3, [r7, #4]
 1004 0028 1B68     		ldr	r3, [r3]
 1005 002a 1B6A     		ldr	r3, [r3, #32]
 1006 002c 124A     		ldr	r2, .L45
 1007 002e 1340     		ands	r3, r2
 1008 0030 0DD1     		bne	.L43
 1009              		.loc 1 468 3 is_stmt 0 discriminator 1
 1010 0032 7B68     		ldr	r3, [r7, #4]
 1011 0034 1B68     		ldr	r3, [r3]
 1012 0036 1B6A     		ldr	r3, [r3, #32]
 1013 0038 104A     		ldr	r2, .L45+4
 1014 003a 1340     		ands	r3, r2
 1015 003c 07D1     		bne	.L43
 1016              		.loc 1 468 3 discriminator 2
 1017 003e 7B68     		ldr	r3, [r7, #4]
 1018 0040 1B68     		ldr	r3, [r3]
 1019 0042 1A68     		ldr	r2, [r3]
 1020 0044 7B68     		ldr	r3, [r7, #4]
 1021 0046 1B68     		ldr	r3, [r3]
 1022 0048 0121     		movs	r1, #1
 1023 004a 8A43     		bics	r2, r1
 1024 004c 1A60     		str	r2, [r3]
 1025              	.L43:
 469:Drivers/STM32F0xx_HAL_Driver/Src/stm32f0xx_hal_tim_ex.c **** 
 470:Drivers/STM32F0xx_HAL_Driver/Src/stm32f0xx_hal_tim_ex.c ****   /* Set the TIM channels state */
ARM GAS  /var/folders/d0/cymppscj10lcmm48h781wrc80000gn/T//cc0qcKWW.s 			page 27


 471:Drivers/STM32F0xx_HAL_Driver/Src/stm32f0xx_hal_tim_ex.c ****   TIM_CHANNEL_STATE_SET(htim, TIM_CHANNEL_1, HAL_TIM_CHANNEL_STATE_READY);
 1026              		.loc 1 471 3 is_stmt 1
 1027 004e 7B68     		ldr	r3, [r7, #4]
 1028 0050 3E22     		movs	r2, #62
 1029 0052 0121     		movs	r1, #1
 1030 0054 9954     		strb	r1, [r3, r2]
 472:Drivers/STM32F0xx_HAL_Driver/Src/stm32f0xx_hal_tim_ex.c ****   TIM_CHANNEL_STATE_SET(htim, TIM_CHANNEL_2, HAL_TIM_CHANNEL_STATE_READY);
 1031              		.loc 1 472 3
 1032 0056 7B68     		ldr	r3, [r7, #4]
 1033 0058 3F22     		movs	r2, #63
 1034 005a 0121     		movs	r1, #1
 1035 005c 9954     		strb	r1, [r3, r2]
 473:Drivers/STM32F0xx_HAL_Driver/Src/stm32f0xx_hal_tim_ex.c ****   TIM_CHANNEL_N_STATE_SET(htim, TIM_CHANNEL_1, HAL_TIM_CHANNEL_STATE_READY);
 1036              		.loc 1 473 3
 1037 005e 7B68     		ldr	r3, [r7, #4]
 1038 0060 4222     		movs	r2, #66
 1039 0062 0121     		movs	r1, #1
 1040 0064 9954     		strb	r1, [r3, r2]
 474:Drivers/STM32F0xx_HAL_Driver/Src/stm32f0xx_hal_tim_ex.c ****   TIM_CHANNEL_N_STATE_SET(htim, TIM_CHANNEL_2, HAL_TIM_CHANNEL_STATE_READY);
 1041              		.loc 1 474 3
 1042 0066 7B68     		ldr	r3, [r7, #4]
 1043 0068 4322     		movs	r2, #67
 1044 006a 0121     		movs	r1, #1
 1045 006c 9954     		strb	r1, [r3, r2]
 475:Drivers/STM32F0xx_HAL_Driver/Src/stm32f0xx_hal_tim_ex.c **** 
 476:Drivers/STM32F0xx_HAL_Driver/Src/stm32f0xx_hal_tim_ex.c ****   /* Return function status */
 477:Drivers/STM32F0xx_HAL_Driver/Src/stm32f0xx_hal_tim_ex.c ****   return HAL_OK;
 1046              		.loc 1 477 10
 1047 006e 0023     		movs	r3, #0
 478:Drivers/STM32F0xx_HAL_Driver/Src/stm32f0xx_hal_tim_ex.c **** }
 1048              		.loc 1 478 1
 1049 0070 1800     		movs	r0, r3
 1050 0072 BD46     		mov	sp, r7
 1051 0074 02B0     		add	sp, sp, #8
 1052              		@ sp needed
 1053 0076 80BD     		pop	{r7, pc}
 1054              	.L46:
 1055              		.align	2
 1056              	.L45:
 1057 0078 11110000 		.word	4369
 1058 007c 44040000 		.word	1092
 1059              		.cfi_endproc
 1060              	.LFE47:
 1062              		.section	.text.HAL_TIMEx_HallSensor_Start_DMA,"ax",%progbits
 1063              		.align	1
 1064              		.global	HAL_TIMEx_HallSensor_Start_DMA
 1065              		.syntax unified
 1066              		.code	16
 1067              		.thumb_func
 1069              	HAL_TIMEx_HallSensor_Start_DMA:
 1070              	.LFB48:
 479:Drivers/STM32F0xx_HAL_Driver/Src/stm32f0xx_hal_tim_ex.c **** 
 480:Drivers/STM32F0xx_HAL_Driver/Src/stm32f0xx_hal_tim_ex.c **** /**
 481:Drivers/STM32F0xx_HAL_Driver/Src/stm32f0xx_hal_tim_ex.c ****   * @brief  Starts the TIM Hall Sensor Interface in DMA mode.
 482:Drivers/STM32F0xx_HAL_Driver/Src/stm32f0xx_hal_tim_ex.c ****   * @param  htim TIM Hall Sensor Interface handle
 483:Drivers/STM32F0xx_HAL_Driver/Src/stm32f0xx_hal_tim_ex.c ****   * @param  pData The destination Buffer address.
 484:Drivers/STM32F0xx_HAL_Driver/Src/stm32f0xx_hal_tim_ex.c ****   * @param  Length The length of data to be transferred from TIM peripheral to memory.
ARM GAS  /var/folders/d0/cymppscj10lcmm48h781wrc80000gn/T//cc0qcKWW.s 			page 28


 485:Drivers/STM32F0xx_HAL_Driver/Src/stm32f0xx_hal_tim_ex.c ****   * @retval HAL status
 486:Drivers/STM32F0xx_HAL_Driver/Src/stm32f0xx_hal_tim_ex.c ****   */
 487:Drivers/STM32F0xx_HAL_Driver/Src/stm32f0xx_hal_tim_ex.c **** HAL_StatusTypeDef HAL_TIMEx_HallSensor_Start_DMA(TIM_HandleTypeDef *htim, uint32_t *pData, uint16_t
 488:Drivers/STM32F0xx_HAL_Driver/Src/stm32f0xx_hal_tim_ex.c **** {
 1071              		.loc 1 488 1
 1072              		.cfi_startproc
 1073              		@ args = 0, pretend = 0, frame = 24
 1074              		@ frame_needed = 1, uses_anonymous_args = 0
 1075 0000 90B5     		push	{r4, r7, lr}
 1076              	.LCFI24:
 1077              		.cfi_def_cfa_offset 12
 1078              		.cfi_offset 4, -12
 1079              		.cfi_offset 7, -8
 1080              		.cfi_offset 14, -4
 1081 0002 87B0     		sub	sp, sp, #28
 1082              	.LCFI25:
 1083              		.cfi_def_cfa_offset 40
 1084 0004 00AF     		add	r7, sp, #0
 1085              	.LCFI26:
 1086              		.cfi_def_cfa_register 7
 1087 0006 F860     		str	r0, [r7, #12]
 1088 0008 B960     		str	r1, [r7, #8]
 1089 000a BB1D     		adds	r3, r7, #6
 1090 000c 1A80     		strh	r2, [r3]
 489:Drivers/STM32F0xx_HAL_Driver/Src/stm32f0xx_hal_tim_ex.c ****   uint32_t tmpsmcr;
 490:Drivers/STM32F0xx_HAL_Driver/Src/stm32f0xx_hal_tim_ex.c ****   HAL_TIM_ChannelStateTypeDef channel_1_state = TIM_CHANNEL_STATE_GET(htim, TIM_CHANNEL_1);
 1091              		.loc 1 490 31
 1092 000e 1720     		movs	r0, #23
 1093 0010 3B18     		adds	r3, r7, r0
 1094 0012 FA68     		ldr	r2, [r7, #12]
 1095 0014 3E21     		movs	r1, #62
 1096 0016 525C     		ldrb	r2, [r2, r1]
 1097 0018 1A70     		strb	r2, [r3]
 491:Drivers/STM32F0xx_HAL_Driver/Src/stm32f0xx_hal_tim_ex.c ****   HAL_TIM_ChannelStateTypeDef complementary_channel_1_state = TIM_CHANNEL_N_STATE_GET(htim, TIM_CHA
 1098              		.loc 1 491 31
 1099 001a 1624     		movs	r4, #22
 1100 001c 3B19     		adds	r3, r7, r4
 1101 001e FA68     		ldr	r2, [r7, #12]
 1102 0020 4221     		movs	r1, #66
 1103 0022 525C     		ldrb	r2, [r2, r1]
 1104 0024 1A70     		strb	r2, [r3]
 492:Drivers/STM32F0xx_HAL_Driver/Src/stm32f0xx_hal_tim_ex.c **** 
 493:Drivers/STM32F0xx_HAL_Driver/Src/stm32f0xx_hal_tim_ex.c ****   /* Check the parameters */
 494:Drivers/STM32F0xx_HAL_Driver/Src/stm32f0xx_hal_tim_ex.c ****   assert_param(IS_TIM_HALL_SENSOR_INTERFACE_INSTANCE(htim->Instance));
 495:Drivers/STM32F0xx_HAL_Driver/Src/stm32f0xx_hal_tim_ex.c **** 
 496:Drivers/STM32F0xx_HAL_Driver/Src/stm32f0xx_hal_tim_ex.c ****   /* Set the TIM channel state */
 497:Drivers/STM32F0xx_HAL_Driver/Src/stm32f0xx_hal_tim_ex.c ****   if ((channel_1_state == HAL_TIM_CHANNEL_STATE_BUSY)
 1105              		.loc 1 497 6
 1106 0026 3B18     		adds	r3, r7, r0
 1107 0028 1B78     		ldrb	r3, [r3]
 1108 002a 022B     		cmp	r3, #2
 1109 002c 03D0     		beq	.L48
 498:Drivers/STM32F0xx_HAL_Driver/Src/stm32f0xx_hal_tim_ex.c ****       || (complementary_channel_1_state == HAL_TIM_CHANNEL_STATE_BUSY))
 1110              		.loc 1 498 7
 1111 002e 3B19     		adds	r3, r7, r4
 1112 0030 1B78     		ldrb	r3, [r3]
 1113 0032 022B     		cmp	r3, #2
ARM GAS  /var/folders/d0/cymppscj10lcmm48h781wrc80000gn/T//cc0qcKWW.s 			page 29


 1114 0034 01D1     		bne	.L49
 1115              	.L48:
 499:Drivers/STM32F0xx_HAL_Driver/Src/stm32f0xx_hal_tim_ex.c ****   {
 500:Drivers/STM32F0xx_HAL_Driver/Src/stm32f0xx_hal_tim_ex.c ****     return HAL_BUSY;
 1116              		.loc 1 500 12
 1117 0036 0223     		movs	r3, #2
 1118 0038 73E0     		b	.L50
 1119              	.L49:
 501:Drivers/STM32F0xx_HAL_Driver/Src/stm32f0xx_hal_tim_ex.c ****   }
 502:Drivers/STM32F0xx_HAL_Driver/Src/stm32f0xx_hal_tim_ex.c ****   else if ((channel_1_state == HAL_TIM_CHANNEL_STATE_READY)
 1120              		.loc 1 502 11
 1121 003a 1723     		movs	r3, #23
 1122 003c FB18     		adds	r3, r7, r3
 1123 003e 1B78     		ldrb	r3, [r3]
 1124 0040 012B     		cmp	r3, #1
 1125 0042 37D1     		bne	.L51
 503:Drivers/STM32F0xx_HAL_Driver/Src/stm32f0xx_hal_tim_ex.c ****            && (complementary_channel_1_state == HAL_TIM_CHANNEL_STATE_READY))
 1126              		.loc 1 503 12
 1127 0044 1623     		movs	r3, #22
 1128 0046 FB18     		adds	r3, r7, r3
 1129 0048 1B78     		ldrb	r3, [r3]
 1130 004a 012B     		cmp	r3, #1
 1131 004c 32D1     		bne	.L51
 504:Drivers/STM32F0xx_HAL_Driver/Src/stm32f0xx_hal_tim_ex.c ****   {
 505:Drivers/STM32F0xx_HAL_Driver/Src/stm32f0xx_hal_tim_ex.c ****     if ((pData == NULL) && (Length > 0U))
 1132              		.loc 1 505 8
 1133 004e BB68     		ldr	r3, [r7, #8]
 1134 0050 002B     		cmp	r3, #0
 1135 0052 05D1     		bne	.L52
 1136              		.loc 1 505 25 discriminator 1
 1137 0054 BB1D     		adds	r3, r7, #6
 1138 0056 1B88     		ldrh	r3, [r3]
 1139 0058 002B     		cmp	r3, #0
 1140 005a 01D0     		beq	.L52
 506:Drivers/STM32F0xx_HAL_Driver/Src/stm32f0xx_hal_tim_ex.c ****     {
 507:Drivers/STM32F0xx_HAL_Driver/Src/stm32f0xx_hal_tim_ex.c ****       return HAL_ERROR;
 1141              		.loc 1 507 14
 1142 005c 0123     		movs	r3, #1
 1143 005e 60E0     		b	.L50
 1144              	.L52:
 508:Drivers/STM32F0xx_HAL_Driver/Src/stm32f0xx_hal_tim_ex.c ****     }
 509:Drivers/STM32F0xx_HAL_Driver/Src/stm32f0xx_hal_tim_ex.c ****     else
 510:Drivers/STM32F0xx_HAL_Driver/Src/stm32f0xx_hal_tim_ex.c ****     {
 511:Drivers/STM32F0xx_HAL_Driver/Src/stm32f0xx_hal_tim_ex.c ****       TIM_CHANNEL_STATE_SET(htim, TIM_CHANNEL_1, HAL_TIM_CHANNEL_STATE_BUSY);
 1145              		.loc 1 511 7
 1146 0060 FB68     		ldr	r3, [r7, #12]
 1147 0062 3E22     		movs	r2, #62
 1148 0064 0221     		movs	r1, #2
 1149 0066 9954     		strb	r1, [r3, r2]
 512:Drivers/STM32F0xx_HAL_Driver/Src/stm32f0xx_hal_tim_ex.c ****       TIM_CHANNEL_N_STATE_SET(htim, TIM_CHANNEL_1, HAL_TIM_CHANNEL_STATE_BUSY);
 1150              		.loc 1 512 7
 1151 0068 FB68     		ldr	r3, [r7, #12]
 1152 006a 4222     		movs	r2, #66
 1153 006c 0221     		movs	r1, #2
 1154 006e 9954     		strb	r1, [r3, r2]
 505:Drivers/STM32F0xx_HAL_Driver/Src/stm32f0xx_hal_tim_ex.c ****     {
 1155              		.loc 1 505 8
ARM GAS  /var/folders/d0/cymppscj10lcmm48h781wrc80000gn/T//cc0qcKWW.s 			page 30


 1156 0070 C046     		nop
 513:Drivers/STM32F0xx_HAL_Driver/Src/stm32f0xx_hal_tim_ex.c ****     }
 514:Drivers/STM32F0xx_HAL_Driver/Src/stm32f0xx_hal_tim_ex.c ****   }
 515:Drivers/STM32F0xx_HAL_Driver/Src/stm32f0xx_hal_tim_ex.c ****   else
 516:Drivers/STM32F0xx_HAL_Driver/Src/stm32f0xx_hal_tim_ex.c ****   {
 517:Drivers/STM32F0xx_HAL_Driver/Src/stm32f0xx_hal_tim_ex.c ****     return HAL_ERROR;
 518:Drivers/STM32F0xx_HAL_Driver/Src/stm32f0xx_hal_tim_ex.c ****   }
 519:Drivers/STM32F0xx_HAL_Driver/Src/stm32f0xx_hal_tim_ex.c **** 
 520:Drivers/STM32F0xx_HAL_Driver/Src/stm32f0xx_hal_tim_ex.c ****   /* Enable the Input Capture channel 1
 521:Drivers/STM32F0xx_HAL_Driver/Src/stm32f0xx_hal_tim_ex.c ****   (in the Hall Sensor Interface the three possible channels that can be used are TIM_CHANNEL_1,
 522:Drivers/STM32F0xx_HAL_Driver/Src/stm32f0xx_hal_tim_ex.c ****   TIM_CHANNEL_2 and TIM_CHANNEL_3) */
 523:Drivers/STM32F0xx_HAL_Driver/Src/stm32f0xx_hal_tim_ex.c ****   TIM_CCxChannelCmd(htim->Instance, TIM_CHANNEL_1, TIM_CCx_ENABLE);
 1157              		.loc 1 523 3
 1158 0072 FB68     		ldr	r3, [r7, #12]
 1159 0074 1B68     		ldr	r3, [r3]
 1160 0076 0122     		movs	r2, #1
 1161 0078 0021     		movs	r1, #0
 1162 007a 1800     		movs	r0, r3
 1163 007c FFF7FEFF 		bl	TIM_CCxChannelCmd
 524:Drivers/STM32F0xx_HAL_Driver/Src/stm32f0xx_hal_tim_ex.c **** 
 525:Drivers/STM32F0xx_HAL_Driver/Src/stm32f0xx_hal_tim_ex.c ****   /* Set the DMA Input Capture 1 Callbacks */
 526:Drivers/STM32F0xx_HAL_Driver/Src/stm32f0xx_hal_tim_ex.c ****   htim->hdma[TIM_DMA_ID_CC1]->XferCpltCallback = TIM_DMACaptureCplt;
 1164              		.loc 1 526 13
 1165 0080 FB68     		ldr	r3, [r7, #12]
 1166 0082 5B6A     		ldr	r3, [r3, #36]
 1167              		.loc 1 526 48
 1168 0084 294A     		ldr	r2, .L60
 1169 0086 9A62     		str	r2, [r3, #40]
 527:Drivers/STM32F0xx_HAL_Driver/Src/stm32f0xx_hal_tim_ex.c ****   htim->hdma[TIM_DMA_ID_CC1]->XferHalfCpltCallback = TIM_DMACaptureHalfCplt;
 1170              		.loc 1 527 13
 1171 0088 FB68     		ldr	r3, [r7, #12]
 1172 008a 5B6A     		ldr	r3, [r3, #36]
 1173              		.loc 1 527 52
 1174 008c 284A     		ldr	r2, .L60+4
 1175 008e DA62     		str	r2, [r3, #44]
 528:Drivers/STM32F0xx_HAL_Driver/Src/stm32f0xx_hal_tim_ex.c ****   /* Set the DMA error callback */
 529:Drivers/STM32F0xx_HAL_Driver/Src/stm32f0xx_hal_tim_ex.c ****   htim->hdma[TIM_DMA_ID_CC1]->XferErrorCallback = TIM_DMAError ;
 1176              		.loc 1 529 13
 1177 0090 FB68     		ldr	r3, [r7, #12]
 1178 0092 5B6A     		ldr	r3, [r3, #36]
 1179              		.loc 1 529 49
 1180 0094 274A     		ldr	r2, .L60+8
 1181 0096 1A63     		str	r2, [r3, #48]
 530:Drivers/STM32F0xx_HAL_Driver/Src/stm32f0xx_hal_tim_ex.c **** 
 531:Drivers/STM32F0xx_HAL_Driver/Src/stm32f0xx_hal_tim_ex.c ****   /* Enable the DMA channel for Capture 1*/
 532:Drivers/STM32F0xx_HAL_Driver/Src/stm32f0xx_hal_tim_ex.c ****   if (HAL_DMA_Start_IT(htim->hdma[TIM_DMA_ID_CC1], (uint32_t)&htim->Instance->CCR1, (uint32_t)pData
 1182              		.loc 1 532 7
 1183 0098 FB68     		ldr	r3, [r7, #12]
 1184 009a 586A     		ldr	r0, [r3, #36]
 1185              		.loc 1 532 67
 1186 009c FB68     		ldr	r3, [r7, #12]
 1187 009e 1B68     		ldr	r3, [r3]
 1188              		.loc 1 532 62
 1189 00a0 3433     		adds	r3, r3, #52
 1190              		.loc 1 532 7
 1191 00a2 1900     		movs	r1, r3
 1192 00a4 BA68     		ldr	r2, [r7, #8]
ARM GAS  /var/folders/d0/cymppscj10lcmm48h781wrc80000gn/T//cc0qcKWW.s 			page 31


 1193 00a6 BB1D     		adds	r3, r7, #6
 1194 00a8 1B88     		ldrh	r3, [r3]
 1195 00aa FFF7FEFF 		bl	HAL_DMA_Start_IT
 1196 00ae 031E     		subs	r3, r0, #0
 1197              		.loc 1 532 6
 1198 00b0 04D0     		beq	.L54
 1199 00b2 01E0     		b	.L59
 1200              	.L51:
 517:Drivers/STM32F0xx_HAL_Driver/Src/stm32f0xx_hal_tim_ex.c ****   }
 1201              		.loc 1 517 12
 1202 00b4 0123     		movs	r3, #1
 1203 00b6 34E0     		b	.L50
 1204              	.L59:
 533:Drivers/STM32F0xx_HAL_Driver/Src/stm32f0xx_hal_tim_ex.c ****   {
 534:Drivers/STM32F0xx_HAL_Driver/Src/stm32f0xx_hal_tim_ex.c ****     /* Return error status */
 535:Drivers/STM32F0xx_HAL_Driver/Src/stm32f0xx_hal_tim_ex.c ****     return HAL_ERROR;
 1205              		.loc 1 535 12
 1206 00b8 0123     		movs	r3, #1
 1207 00ba 32E0     		b	.L50
 1208              	.L54:
 536:Drivers/STM32F0xx_HAL_Driver/Src/stm32f0xx_hal_tim_ex.c ****   }
 537:Drivers/STM32F0xx_HAL_Driver/Src/stm32f0xx_hal_tim_ex.c ****   /* Enable the capture compare 1 Interrupt */
 538:Drivers/STM32F0xx_HAL_Driver/Src/stm32f0xx_hal_tim_ex.c ****   __HAL_TIM_ENABLE_DMA(htim, TIM_DMA_CC1);
 1209              		.loc 1 538 3
 1210 00bc FB68     		ldr	r3, [r7, #12]
 1211 00be 1B68     		ldr	r3, [r3]
 1212 00c0 DA68     		ldr	r2, [r3, #12]
 1213 00c2 FB68     		ldr	r3, [r7, #12]
 1214 00c4 1B68     		ldr	r3, [r3]
 1215 00c6 8021     		movs	r1, #128
 1216 00c8 8900     		lsls	r1, r1, #2
 1217 00ca 0A43     		orrs	r2, r1
 1218 00cc DA60     		str	r2, [r3, #12]
 539:Drivers/STM32F0xx_HAL_Driver/Src/stm32f0xx_hal_tim_ex.c **** 
 540:Drivers/STM32F0xx_HAL_Driver/Src/stm32f0xx_hal_tim_ex.c ****   /* Enable the Peripheral, except in trigger mode where enable is automatically done with trigger 
 541:Drivers/STM32F0xx_HAL_Driver/Src/stm32f0xx_hal_tim_ex.c ****   if (IS_TIM_SLAVE_INSTANCE(htim->Instance))
 1219              		.loc 1 541 7
 1220 00ce FB68     		ldr	r3, [r7, #12]
 1221 00d0 1B68     		ldr	r3, [r3]
 1222              		.loc 1 541 6
 1223 00d2 194A     		ldr	r2, .L60+12
 1224 00d4 9342     		cmp	r3, r2
 1225 00d6 09D0     		beq	.L55
 1226              		.loc 1 541 7 discriminator 1
 1227 00d8 FB68     		ldr	r3, [r7, #12]
 1228 00da 1B68     		ldr	r3, [r3]
 1229 00dc 174A     		ldr	r2, .L60+16
 1230 00de 9342     		cmp	r3, r2
 1231 00e0 04D0     		beq	.L55
 1232              		.loc 1 541 7 is_stmt 0 discriminator 2
 1233 00e2 FB68     		ldr	r3, [r7, #12]
 1234 00e4 1B68     		ldr	r3, [r3]
 1235 00e6 164A     		ldr	r2, .L60+20
 1236 00e8 9342     		cmp	r3, r2
 1237 00ea 11D1     		bne	.L56
 1238              	.L55:
 542:Drivers/STM32F0xx_HAL_Driver/Src/stm32f0xx_hal_tim_ex.c ****   {
ARM GAS  /var/folders/d0/cymppscj10lcmm48h781wrc80000gn/T//cc0qcKWW.s 			page 32


 543:Drivers/STM32F0xx_HAL_Driver/Src/stm32f0xx_hal_tim_ex.c ****     tmpsmcr = htim->Instance->SMCR & TIM_SMCR_SMS;
 1239              		.loc 1 543 19 is_stmt 1
 1240 00ec FB68     		ldr	r3, [r7, #12]
 1241 00ee 1B68     		ldr	r3, [r3]
 1242              		.loc 1 543 29
 1243 00f0 9B68     		ldr	r3, [r3, #8]
 1244              		.loc 1 543 13
 1245 00f2 0722     		movs	r2, #7
 1246 00f4 1340     		ands	r3, r2
 1247 00f6 3B61     		str	r3, [r7, #16]
 544:Drivers/STM32F0xx_HAL_Driver/Src/stm32f0xx_hal_tim_ex.c ****     if (!IS_TIM_SLAVEMODE_TRIGGER_ENABLED(tmpsmcr))
 1248              		.loc 1 544 8
 1249 00f8 3B69     		ldr	r3, [r7, #16]
 1250 00fa 062B     		cmp	r3, #6
 1251 00fc 10D0     		beq	.L58
 545:Drivers/STM32F0xx_HAL_Driver/Src/stm32f0xx_hal_tim_ex.c ****     {
 546:Drivers/STM32F0xx_HAL_Driver/Src/stm32f0xx_hal_tim_ex.c ****       __HAL_TIM_ENABLE(htim);
 1252              		.loc 1 546 7
 1253 00fe FB68     		ldr	r3, [r7, #12]
 1254 0100 1B68     		ldr	r3, [r3]
 1255 0102 1A68     		ldr	r2, [r3]
 1256 0104 FB68     		ldr	r3, [r7, #12]
 1257 0106 1B68     		ldr	r3, [r3]
 1258 0108 0121     		movs	r1, #1
 1259 010a 0A43     		orrs	r2, r1
 1260 010c 1A60     		str	r2, [r3]
 544:Drivers/STM32F0xx_HAL_Driver/Src/stm32f0xx_hal_tim_ex.c ****     if (!IS_TIM_SLAVEMODE_TRIGGER_ENABLED(tmpsmcr))
 1261              		.loc 1 544 8
 1262 010e 07E0     		b	.L58
 1263              	.L56:
 547:Drivers/STM32F0xx_HAL_Driver/Src/stm32f0xx_hal_tim_ex.c ****     }
 548:Drivers/STM32F0xx_HAL_Driver/Src/stm32f0xx_hal_tim_ex.c ****   }
 549:Drivers/STM32F0xx_HAL_Driver/Src/stm32f0xx_hal_tim_ex.c ****   else
 550:Drivers/STM32F0xx_HAL_Driver/Src/stm32f0xx_hal_tim_ex.c ****   {
 551:Drivers/STM32F0xx_HAL_Driver/Src/stm32f0xx_hal_tim_ex.c ****     __HAL_TIM_ENABLE(htim);
 1264              		.loc 1 551 5
 1265 0110 FB68     		ldr	r3, [r7, #12]
 1266 0112 1B68     		ldr	r3, [r3]
 1267 0114 1A68     		ldr	r2, [r3]
 1268 0116 FB68     		ldr	r3, [r7, #12]
 1269 0118 1B68     		ldr	r3, [r3]
 1270 011a 0121     		movs	r1, #1
 1271 011c 0A43     		orrs	r2, r1
 1272 011e 1A60     		str	r2, [r3]
 1273              	.L58:
 552:Drivers/STM32F0xx_HAL_Driver/Src/stm32f0xx_hal_tim_ex.c ****   }
 553:Drivers/STM32F0xx_HAL_Driver/Src/stm32f0xx_hal_tim_ex.c **** 
 554:Drivers/STM32F0xx_HAL_Driver/Src/stm32f0xx_hal_tim_ex.c ****   /* Return function status */
 555:Drivers/STM32F0xx_HAL_Driver/Src/stm32f0xx_hal_tim_ex.c ****   return HAL_OK;
 1274              		.loc 1 555 10
 1275 0120 0023     		movs	r3, #0
 1276              	.L50:
 556:Drivers/STM32F0xx_HAL_Driver/Src/stm32f0xx_hal_tim_ex.c **** }
 1277              		.loc 1 556 1
 1278 0122 1800     		movs	r0, r3
 1279 0124 BD46     		mov	sp, r7
 1280 0126 07B0     		add	sp, sp, #28
ARM GAS  /var/folders/d0/cymppscj10lcmm48h781wrc80000gn/T//cc0qcKWW.s 			page 33


 1281              		@ sp needed
 1282 0128 90BD     		pop	{r4, r7, pc}
 1283              	.L61:
 1284 012a C046     		.align	2
 1285              	.L60:
 1286 012c 00000000 		.word	TIM_DMACaptureCplt
 1287 0130 00000000 		.word	TIM_DMACaptureHalfCplt
 1288 0134 00000000 		.word	TIM_DMAError
 1289 0138 002C0140 		.word	1073818624
 1290 013c 00040040 		.word	1073742848
 1291 0140 00400140 		.word	1073823744
 1292              		.cfi_endproc
 1293              	.LFE48:
 1295              		.section	.text.HAL_TIMEx_HallSensor_Stop_DMA,"ax",%progbits
 1296              		.align	1
 1297              		.global	HAL_TIMEx_HallSensor_Stop_DMA
 1298              		.syntax unified
 1299              		.code	16
 1300              		.thumb_func
 1302              	HAL_TIMEx_HallSensor_Stop_DMA:
 1303              	.LFB49:
 557:Drivers/STM32F0xx_HAL_Driver/Src/stm32f0xx_hal_tim_ex.c **** 
 558:Drivers/STM32F0xx_HAL_Driver/Src/stm32f0xx_hal_tim_ex.c **** /**
 559:Drivers/STM32F0xx_HAL_Driver/Src/stm32f0xx_hal_tim_ex.c ****   * @brief  Stops the TIM Hall Sensor Interface in DMA mode.
 560:Drivers/STM32F0xx_HAL_Driver/Src/stm32f0xx_hal_tim_ex.c ****   * @param  htim TIM Hall Sensor Interface handle
 561:Drivers/STM32F0xx_HAL_Driver/Src/stm32f0xx_hal_tim_ex.c ****   * @retval HAL status
 562:Drivers/STM32F0xx_HAL_Driver/Src/stm32f0xx_hal_tim_ex.c ****   */
 563:Drivers/STM32F0xx_HAL_Driver/Src/stm32f0xx_hal_tim_ex.c **** HAL_StatusTypeDef HAL_TIMEx_HallSensor_Stop_DMA(TIM_HandleTypeDef *htim)
 564:Drivers/STM32F0xx_HAL_Driver/Src/stm32f0xx_hal_tim_ex.c **** {
 1304              		.loc 1 564 1
 1305              		.cfi_startproc
 1306              		@ args = 0, pretend = 0, frame = 8
 1307              		@ frame_needed = 1, uses_anonymous_args = 0
 1308 0000 80B5     		push	{r7, lr}
 1309              	.LCFI27:
 1310              		.cfi_def_cfa_offset 8
 1311              		.cfi_offset 7, -8
 1312              		.cfi_offset 14, -4
 1313 0002 82B0     		sub	sp, sp, #8
 1314              	.LCFI28:
 1315              		.cfi_def_cfa_offset 16
 1316 0004 00AF     		add	r7, sp, #0
 1317              	.LCFI29:
 1318              		.cfi_def_cfa_register 7
 1319 0006 7860     		str	r0, [r7, #4]
 565:Drivers/STM32F0xx_HAL_Driver/Src/stm32f0xx_hal_tim_ex.c ****   /* Check the parameters */
 566:Drivers/STM32F0xx_HAL_Driver/Src/stm32f0xx_hal_tim_ex.c ****   assert_param(IS_TIM_HALL_SENSOR_INTERFACE_INSTANCE(htim->Instance));
 567:Drivers/STM32F0xx_HAL_Driver/Src/stm32f0xx_hal_tim_ex.c **** 
 568:Drivers/STM32F0xx_HAL_Driver/Src/stm32f0xx_hal_tim_ex.c ****   /* Disable the Input Capture channel 1
 569:Drivers/STM32F0xx_HAL_Driver/Src/stm32f0xx_hal_tim_ex.c ****   (in the Hall Sensor Interface the three possible channels that can be used are TIM_CHANNEL_1,
 570:Drivers/STM32F0xx_HAL_Driver/Src/stm32f0xx_hal_tim_ex.c ****   TIM_CHANNEL_2 and TIM_CHANNEL_3) */
 571:Drivers/STM32F0xx_HAL_Driver/Src/stm32f0xx_hal_tim_ex.c ****   TIM_CCxChannelCmd(htim->Instance, TIM_CHANNEL_1, TIM_CCx_DISABLE);
 1320              		.loc 1 571 3
 1321 0008 7B68     		ldr	r3, [r7, #4]
 1322 000a 1B68     		ldr	r3, [r3]
 1323 000c 0022     		movs	r2, #0
 1324 000e 0021     		movs	r1, #0
ARM GAS  /var/folders/d0/cymppscj10lcmm48h781wrc80000gn/T//cc0qcKWW.s 			page 34


 1325 0010 1800     		movs	r0, r3
 1326 0012 FFF7FEFF 		bl	TIM_CCxChannelCmd
 572:Drivers/STM32F0xx_HAL_Driver/Src/stm32f0xx_hal_tim_ex.c **** 
 573:Drivers/STM32F0xx_HAL_Driver/Src/stm32f0xx_hal_tim_ex.c **** 
 574:Drivers/STM32F0xx_HAL_Driver/Src/stm32f0xx_hal_tim_ex.c ****   /* Disable the capture compare Interrupts 1 event */
 575:Drivers/STM32F0xx_HAL_Driver/Src/stm32f0xx_hal_tim_ex.c ****   __HAL_TIM_DISABLE_DMA(htim, TIM_DMA_CC1);
 1327              		.loc 1 575 3
 1328 0016 7B68     		ldr	r3, [r7, #4]
 1329 0018 1B68     		ldr	r3, [r3]
 1330 001a DA68     		ldr	r2, [r3, #12]
 1331 001c 7B68     		ldr	r3, [r7, #4]
 1332 001e 1B68     		ldr	r3, [r3]
 1333 0020 1449     		ldr	r1, .L65
 1334 0022 0A40     		ands	r2, r1
 1335 0024 DA60     		str	r2, [r3, #12]
 576:Drivers/STM32F0xx_HAL_Driver/Src/stm32f0xx_hal_tim_ex.c **** 
 577:Drivers/STM32F0xx_HAL_Driver/Src/stm32f0xx_hal_tim_ex.c ****   (void)HAL_DMA_Abort_IT(htim->hdma[TIM_DMA_ID_CC1]);
 1336              		.loc 1 577 9
 1337 0026 7B68     		ldr	r3, [r7, #4]
 1338 0028 5B6A     		ldr	r3, [r3, #36]
 1339 002a 1800     		movs	r0, r3
 1340 002c FFF7FEFF 		bl	HAL_DMA_Abort_IT
 578:Drivers/STM32F0xx_HAL_Driver/Src/stm32f0xx_hal_tim_ex.c **** 
 579:Drivers/STM32F0xx_HAL_Driver/Src/stm32f0xx_hal_tim_ex.c ****   /* Disable the Peripheral */
 580:Drivers/STM32F0xx_HAL_Driver/Src/stm32f0xx_hal_tim_ex.c ****   __HAL_TIM_DISABLE(htim);
 1341              		.loc 1 580 3
 1342 0030 7B68     		ldr	r3, [r7, #4]
 1343 0032 1B68     		ldr	r3, [r3]
 1344 0034 1B6A     		ldr	r3, [r3, #32]
 1345 0036 104A     		ldr	r2, .L65+4
 1346 0038 1340     		ands	r3, r2
 1347 003a 0DD1     		bne	.L63
 1348              		.loc 1 580 3 is_stmt 0 discriminator 1
 1349 003c 7B68     		ldr	r3, [r7, #4]
 1350 003e 1B68     		ldr	r3, [r3]
 1351 0040 1B6A     		ldr	r3, [r3, #32]
 1352 0042 0E4A     		ldr	r2, .L65+8
 1353 0044 1340     		ands	r3, r2
 1354 0046 07D1     		bne	.L63
 1355              		.loc 1 580 3 discriminator 2
 1356 0048 7B68     		ldr	r3, [r7, #4]
 1357 004a 1B68     		ldr	r3, [r3]
 1358 004c 1A68     		ldr	r2, [r3]
 1359 004e 7B68     		ldr	r3, [r7, #4]
 1360 0050 1B68     		ldr	r3, [r3]
 1361 0052 0121     		movs	r1, #1
 1362 0054 8A43     		bics	r2, r1
 1363 0056 1A60     		str	r2, [r3]
 1364              	.L63:
 581:Drivers/STM32F0xx_HAL_Driver/Src/stm32f0xx_hal_tim_ex.c **** 
 582:Drivers/STM32F0xx_HAL_Driver/Src/stm32f0xx_hal_tim_ex.c ****   /* Set the TIM channel state */
 583:Drivers/STM32F0xx_HAL_Driver/Src/stm32f0xx_hal_tim_ex.c ****   TIM_CHANNEL_STATE_SET(htim, TIM_CHANNEL_1, HAL_TIM_CHANNEL_STATE_READY);
 1365              		.loc 1 583 3 is_stmt 1
 1366 0058 7B68     		ldr	r3, [r7, #4]
 1367 005a 3E22     		movs	r2, #62
 1368 005c 0121     		movs	r1, #1
 1369 005e 9954     		strb	r1, [r3, r2]
ARM GAS  /var/folders/d0/cymppscj10lcmm48h781wrc80000gn/T//cc0qcKWW.s 			page 35


 584:Drivers/STM32F0xx_HAL_Driver/Src/stm32f0xx_hal_tim_ex.c ****   TIM_CHANNEL_N_STATE_SET(htim, TIM_CHANNEL_1, HAL_TIM_CHANNEL_STATE_READY);
 1370              		.loc 1 584 3
 1371 0060 7B68     		ldr	r3, [r7, #4]
 1372 0062 4222     		movs	r2, #66
 1373 0064 0121     		movs	r1, #1
 1374 0066 9954     		strb	r1, [r3, r2]
 585:Drivers/STM32F0xx_HAL_Driver/Src/stm32f0xx_hal_tim_ex.c **** 
 586:Drivers/STM32F0xx_HAL_Driver/Src/stm32f0xx_hal_tim_ex.c ****   /* Return function status */
 587:Drivers/STM32F0xx_HAL_Driver/Src/stm32f0xx_hal_tim_ex.c ****   return HAL_OK;
 1375              		.loc 1 587 10
 1376 0068 0023     		movs	r3, #0
 588:Drivers/STM32F0xx_HAL_Driver/Src/stm32f0xx_hal_tim_ex.c **** }
 1377              		.loc 1 588 1
 1378 006a 1800     		movs	r0, r3
 1379 006c BD46     		mov	sp, r7
 1380 006e 02B0     		add	sp, sp, #8
 1381              		@ sp needed
 1382 0070 80BD     		pop	{r7, pc}
 1383              	.L66:
 1384 0072 C046     		.align	2
 1385              	.L65:
 1386 0074 FFFDFFFF 		.word	-513
 1387 0078 11110000 		.word	4369
 1388 007c 44040000 		.word	1092
 1389              		.cfi_endproc
 1390              	.LFE49:
 1392              		.section	.text.HAL_TIMEx_OCN_Start,"ax",%progbits
 1393              		.align	1
 1394              		.global	HAL_TIMEx_OCN_Start
 1395              		.syntax unified
 1396              		.code	16
 1397              		.thumb_func
 1399              	HAL_TIMEx_OCN_Start:
 1400              	.LFB50:
 589:Drivers/STM32F0xx_HAL_Driver/Src/stm32f0xx_hal_tim_ex.c **** 
 590:Drivers/STM32F0xx_HAL_Driver/Src/stm32f0xx_hal_tim_ex.c **** /**
 591:Drivers/STM32F0xx_HAL_Driver/Src/stm32f0xx_hal_tim_ex.c ****   * @}
 592:Drivers/STM32F0xx_HAL_Driver/Src/stm32f0xx_hal_tim_ex.c ****   */
 593:Drivers/STM32F0xx_HAL_Driver/Src/stm32f0xx_hal_tim_ex.c **** 
 594:Drivers/STM32F0xx_HAL_Driver/Src/stm32f0xx_hal_tim_ex.c **** /** @defgroup TIMEx_Exported_Functions_Group2 Extended Timer Complementary Output Compare functions
 595:Drivers/STM32F0xx_HAL_Driver/Src/stm32f0xx_hal_tim_ex.c ****   *  @brief   Timer Complementary Output Compare functions
 596:Drivers/STM32F0xx_HAL_Driver/Src/stm32f0xx_hal_tim_ex.c ****   *
 597:Drivers/STM32F0xx_HAL_Driver/Src/stm32f0xx_hal_tim_ex.c **** @verbatim
 598:Drivers/STM32F0xx_HAL_Driver/Src/stm32f0xx_hal_tim_ex.c ****   ==============================================================================
 599:Drivers/STM32F0xx_HAL_Driver/Src/stm32f0xx_hal_tim_ex.c ****               ##### Timer Complementary Output Compare functions #####
 600:Drivers/STM32F0xx_HAL_Driver/Src/stm32f0xx_hal_tim_ex.c ****   ==============================================================================
 601:Drivers/STM32F0xx_HAL_Driver/Src/stm32f0xx_hal_tim_ex.c ****   [..]
 602:Drivers/STM32F0xx_HAL_Driver/Src/stm32f0xx_hal_tim_ex.c ****     This section provides functions allowing to:
 603:Drivers/STM32F0xx_HAL_Driver/Src/stm32f0xx_hal_tim_ex.c ****     (+) Start the Complementary Output Compare/PWM.
 604:Drivers/STM32F0xx_HAL_Driver/Src/stm32f0xx_hal_tim_ex.c ****     (+) Stop the Complementary Output Compare/PWM.
 605:Drivers/STM32F0xx_HAL_Driver/Src/stm32f0xx_hal_tim_ex.c ****     (+) Start the Complementary Output Compare/PWM and enable interrupts.
 606:Drivers/STM32F0xx_HAL_Driver/Src/stm32f0xx_hal_tim_ex.c ****     (+) Stop the Complementary Output Compare/PWM and disable interrupts.
 607:Drivers/STM32F0xx_HAL_Driver/Src/stm32f0xx_hal_tim_ex.c ****     (+) Start the Complementary Output Compare/PWM and enable DMA transfers.
 608:Drivers/STM32F0xx_HAL_Driver/Src/stm32f0xx_hal_tim_ex.c ****     (+) Stop the Complementary Output Compare/PWM and disable DMA transfers.
 609:Drivers/STM32F0xx_HAL_Driver/Src/stm32f0xx_hal_tim_ex.c **** 
 610:Drivers/STM32F0xx_HAL_Driver/Src/stm32f0xx_hal_tim_ex.c **** @endverbatim
 611:Drivers/STM32F0xx_HAL_Driver/Src/stm32f0xx_hal_tim_ex.c ****   * @{
ARM GAS  /var/folders/d0/cymppscj10lcmm48h781wrc80000gn/T//cc0qcKWW.s 			page 36


 612:Drivers/STM32F0xx_HAL_Driver/Src/stm32f0xx_hal_tim_ex.c ****   */
 613:Drivers/STM32F0xx_HAL_Driver/Src/stm32f0xx_hal_tim_ex.c **** 
 614:Drivers/STM32F0xx_HAL_Driver/Src/stm32f0xx_hal_tim_ex.c **** /**
 615:Drivers/STM32F0xx_HAL_Driver/Src/stm32f0xx_hal_tim_ex.c ****   * @brief  Starts the TIM Output Compare signal generation on the complementary
 616:Drivers/STM32F0xx_HAL_Driver/Src/stm32f0xx_hal_tim_ex.c ****   *         output.
 617:Drivers/STM32F0xx_HAL_Driver/Src/stm32f0xx_hal_tim_ex.c ****   * @param  htim TIM Output Compare handle
 618:Drivers/STM32F0xx_HAL_Driver/Src/stm32f0xx_hal_tim_ex.c ****   * @param  Channel TIM Channel to be enabled
 619:Drivers/STM32F0xx_HAL_Driver/Src/stm32f0xx_hal_tim_ex.c ****   *          This parameter can be one of the following values:
 620:Drivers/STM32F0xx_HAL_Driver/Src/stm32f0xx_hal_tim_ex.c ****   *            @arg TIM_CHANNEL_1: TIM Channel 1 selected
 621:Drivers/STM32F0xx_HAL_Driver/Src/stm32f0xx_hal_tim_ex.c ****   *            @arg TIM_CHANNEL_2: TIM Channel 2 selected
 622:Drivers/STM32F0xx_HAL_Driver/Src/stm32f0xx_hal_tim_ex.c ****   *            @arg TIM_CHANNEL_3: TIM Channel 3 selected
 623:Drivers/STM32F0xx_HAL_Driver/Src/stm32f0xx_hal_tim_ex.c ****   * @retval HAL status
 624:Drivers/STM32F0xx_HAL_Driver/Src/stm32f0xx_hal_tim_ex.c ****   */
 625:Drivers/STM32F0xx_HAL_Driver/Src/stm32f0xx_hal_tim_ex.c **** HAL_StatusTypeDef HAL_TIMEx_OCN_Start(TIM_HandleTypeDef *htim, uint32_t Channel)
 626:Drivers/STM32F0xx_HAL_Driver/Src/stm32f0xx_hal_tim_ex.c **** {
 1401              		.loc 1 626 1
 1402              		.cfi_startproc
 1403              		@ args = 0, pretend = 0, frame = 16
 1404              		@ frame_needed = 1, uses_anonymous_args = 0
 1405 0000 80B5     		push	{r7, lr}
 1406              	.LCFI30:
 1407              		.cfi_def_cfa_offset 8
 1408              		.cfi_offset 7, -8
 1409              		.cfi_offset 14, -4
 1410 0002 84B0     		sub	sp, sp, #16
 1411              	.LCFI31:
 1412              		.cfi_def_cfa_offset 24
 1413 0004 00AF     		add	r7, sp, #0
 1414              	.LCFI32:
 1415              		.cfi_def_cfa_register 7
 1416 0006 7860     		str	r0, [r7, #4]
 1417 0008 3960     		str	r1, [r7]
 627:Drivers/STM32F0xx_HAL_Driver/Src/stm32f0xx_hal_tim_ex.c ****   uint32_t tmpsmcr;
 628:Drivers/STM32F0xx_HAL_Driver/Src/stm32f0xx_hal_tim_ex.c **** 
 629:Drivers/STM32F0xx_HAL_Driver/Src/stm32f0xx_hal_tim_ex.c ****   /* Check the parameters */
 630:Drivers/STM32F0xx_HAL_Driver/Src/stm32f0xx_hal_tim_ex.c ****   assert_param(IS_TIM_CCXN_INSTANCE(htim->Instance, Channel));
 631:Drivers/STM32F0xx_HAL_Driver/Src/stm32f0xx_hal_tim_ex.c **** 
 632:Drivers/STM32F0xx_HAL_Driver/Src/stm32f0xx_hal_tim_ex.c ****   /* Check the TIM complementary channel state */
 633:Drivers/STM32F0xx_HAL_Driver/Src/stm32f0xx_hal_tim_ex.c ****   if (TIM_CHANNEL_N_STATE_GET(htim, Channel) != HAL_TIM_CHANNEL_STATE_READY)
 1418              		.loc 1 633 46
 1419 000a 3B68     		ldr	r3, [r7]
 1420 000c 002B     		cmp	r3, #0
 1421 000e 08D1     		bne	.L68
 1422              		.loc 1 633 7 discriminator 1
 1423 0010 7B68     		ldr	r3, [r7, #4]
 1424 0012 4222     		movs	r2, #66
 1425 0014 9B5C     		ldrb	r3, [r3, r2]
 1426 0016 DBB2     		uxtb	r3, r3
 1427              		.loc 1 633 46 discriminator 1
 1428 0018 013B     		subs	r3, r3, #1
 1429 001a 5A1E     		subs	r2, r3, #1
 1430 001c 9341     		sbcs	r3, r3, r2
 1431 001e DBB2     		uxtb	r3, r3
 1432 0020 1FE0     		b	.L69
 1433              	.L68:
 1434              		.loc 1 633 46 is_stmt 0 discriminator 2
 1435 0022 3B68     		ldr	r3, [r7]
ARM GAS  /var/folders/d0/cymppscj10lcmm48h781wrc80000gn/T//cc0qcKWW.s 			page 37


 1436 0024 042B     		cmp	r3, #4
 1437 0026 08D1     		bne	.L70
 1438              		.loc 1 633 7 is_stmt 1 discriminator 4
 1439 0028 7B68     		ldr	r3, [r7, #4]
 1440 002a 4322     		movs	r2, #67
 1441 002c 9B5C     		ldrb	r3, [r3, r2]
 1442 002e DBB2     		uxtb	r3, r3
 1443              		.loc 1 633 46 discriminator 4
 1444 0030 013B     		subs	r3, r3, #1
 1445 0032 5A1E     		subs	r2, r3, #1
 1446 0034 9341     		sbcs	r3, r3, r2
 1447 0036 DBB2     		uxtb	r3, r3
 1448 0038 13E0     		b	.L69
 1449              	.L70:
 1450              		.loc 1 633 46 is_stmt 0 discriminator 5
 1451 003a 3B68     		ldr	r3, [r7]
 1452 003c 082B     		cmp	r3, #8
 1453 003e 08D1     		bne	.L72
 1454              		.loc 1 633 7 is_stmt 1 discriminator 7
 1455 0040 7B68     		ldr	r3, [r7, #4]
 1456 0042 4422     		movs	r2, #68
 1457 0044 9B5C     		ldrb	r3, [r3, r2]
 1458 0046 DBB2     		uxtb	r3, r3
 1459              		.loc 1 633 46 discriminator 7
 1460 0048 013B     		subs	r3, r3, #1
 1461 004a 5A1E     		subs	r2, r3, #1
 1462 004c 9341     		sbcs	r3, r3, r2
 1463 004e DBB2     		uxtb	r3, r3
 1464 0050 07E0     		b	.L69
 1465              	.L72:
 1466              		.loc 1 633 7 discriminator 8
 1467 0052 7B68     		ldr	r3, [r7, #4]
 1468 0054 4522     		movs	r2, #69
 1469 0056 9B5C     		ldrb	r3, [r3, r2]
 1470 0058 DBB2     		uxtb	r3, r3
 1471              		.loc 1 633 46 discriminator 8
 1472 005a 013B     		subs	r3, r3, #1
 1473 005c 5A1E     		subs	r2, r3, #1
 1474 005e 9341     		sbcs	r3, r3, r2
 1475 0060 DBB2     		uxtb	r3, r3
 1476              	.L69:
 1477              		.loc 1 633 6 discriminator 12
 1478 0062 002B     		cmp	r3, #0
 1479 0064 01D0     		beq	.L74
 634:Drivers/STM32F0xx_HAL_Driver/Src/stm32f0xx_hal_tim_ex.c ****   {
 635:Drivers/STM32F0xx_HAL_Driver/Src/stm32f0xx_hal_tim_ex.c ****     return HAL_ERROR;
 1480              		.loc 1 635 12
 1481 0066 0123     		movs	r3, #1
 1482 0068 55E0     		b	.L75
 1483              	.L74:
 636:Drivers/STM32F0xx_HAL_Driver/Src/stm32f0xx_hal_tim_ex.c ****   }
 637:Drivers/STM32F0xx_HAL_Driver/Src/stm32f0xx_hal_tim_ex.c **** 
 638:Drivers/STM32F0xx_HAL_Driver/Src/stm32f0xx_hal_tim_ex.c ****   /* Set the TIM complementary channel state */
 639:Drivers/STM32F0xx_HAL_Driver/Src/stm32f0xx_hal_tim_ex.c ****   TIM_CHANNEL_N_STATE_SET(htim, Channel, HAL_TIM_CHANNEL_STATE_BUSY);
 1484              		.loc 1 639 3
 1485 006a 3B68     		ldr	r3, [r7]
 1486 006c 002B     		cmp	r3, #0
ARM GAS  /var/folders/d0/cymppscj10lcmm48h781wrc80000gn/T//cc0qcKWW.s 			page 38


 1487 006e 04D1     		bne	.L76
 1488              		.loc 1 639 3 is_stmt 0 discriminator 1
 1489 0070 7B68     		ldr	r3, [r7, #4]
 1490 0072 4222     		movs	r2, #66
 1491 0074 0221     		movs	r1, #2
 1492 0076 9954     		strb	r1, [r3, r2]
 1493 0078 13E0     		b	.L77
 1494              	.L76:
 1495              		.loc 1 639 3 discriminator 2
 1496 007a 3B68     		ldr	r3, [r7]
 1497 007c 042B     		cmp	r3, #4
 1498 007e 04D1     		bne	.L78
 1499              		.loc 1 639 3 discriminator 3
 1500 0080 7B68     		ldr	r3, [r7, #4]
 1501 0082 4322     		movs	r2, #67
 1502 0084 0221     		movs	r1, #2
 1503 0086 9954     		strb	r1, [r3, r2]
 1504 0088 0BE0     		b	.L77
 1505              	.L78:
 1506              		.loc 1 639 3 discriminator 4
 1507 008a 3B68     		ldr	r3, [r7]
 1508 008c 082B     		cmp	r3, #8
 1509 008e 04D1     		bne	.L80
 1510              		.loc 1 639 3 discriminator 6
 1511 0090 7B68     		ldr	r3, [r7, #4]
 1512 0092 4422     		movs	r2, #68
 1513 0094 0221     		movs	r1, #2
 1514 0096 9954     		strb	r1, [r3, r2]
 1515 0098 03E0     		b	.L77
 1516              	.L80:
 1517              		.loc 1 639 3 discriminator 7
 1518 009a 7B68     		ldr	r3, [r7, #4]
 1519 009c 4522     		movs	r2, #69
 1520 009e 0221     		movs	r1, #2
 1521 00a0 9954     		strb	r1, [r3, r2]
 1522              	.L77:
 640:Drivers/STM32F0xx_HAL_Driver/Src/stm32f0xx_hal_tim_ex.c **** 
 641:Drivers/STM32F0xx_HAL_Driver/Src/stm32f0xx_hal_tim_ex.c ****   /* Enable the Capture compare channel N */
 642:Drivers/STM32F0xx_HAL_Driver/Src/stm32f0xx_hal_tim_ex.c ****   TIM_CCxNChannelCmd(htim->Instance, Channel, TIM_CCxN_ENABLE);
 1523              		.loc 1 642 3 is_stmt 1
 1524 00a2 7B68     		ldr	r3, [r7, #4]
 1525 00a4 1B68     		ldr	r3, [r3]
 1526 00a6 3968     		ldr	r1, [r7]
 1527 00a8 0422     		movs	r2, #4
 1528 00aa 1800     		movs	r0, r3
 1529 00ac FFF7FEFF 		bl	TIM_CCxNChannelCmd
 643:Drivers/STM32F0xx_HAL_Driver/Src/stm32f0xx_hal_tim_ex.c **** 
 644:Drivers/STM32F0xx_HAL_Driver/Src/stm32f0xx_hal_tim_ex.c ****   /* Enable the Main Output */
 645:Drivers/STM32F0xx_HAL_Driver/Src/stm32f0xx_hal_tim_ex.c ****   __HAL_TIM_MOE_ENABLE(htim);
 1530              		.loc 1 645 3
 1531 00b0 7B68     		ldr	r3, [r7, #4]
 1532 00b2 1B68     		ldr	r3, [r3]
 1533 00b4 5A6C     		ldr	r2, [r3, #68]
 1534 00b6 7B68     		ldr	r3, [r7, #4]
 1535 00b8 1B68     		ldr	r3, [r3]
 1536 00ba 8021     		movs	r1, #128
 1537 00bc 0902     		lsls	r1, r1, #8
ARM GAS  /var/folders/d0/cymppscj10lcmm48h781wrc80000gn/T//cc0qcKWW.s 			page 39


 1538 00be 0A43     		orrs	r2, r1
 1539 00c0 5A64     		str	r2, [r3, #68]
 646:Drivers/STM32F0xx_HAL_Driver/Src/stm32f0xx_hal_tim_ex.c **** 
 647:Drivers/STM32F0xx_HAL_Driver/Src/stm32f0xx_hal_tim_ex.c ****   /* Enable the Peripheral, except in trigger mode where enable is automatically done with trigger 
 648:Drivers/STM32F0xx_HAL_Driver/Src/stm32f0xx_hal_tim_ex.c ****   if (IS_TIM_SLAVE_INSTANCE(htim->Instance))
 1540              		.loc 1 648 7
 1541 00c2 7B68     		ldr	r3, [r7, #4]
 1542 00c4 1B68     		ldr	r3, [r3]
 1543              		.loc 1 648 6
 1544 00c6 164A     		ldr	r2, .L86
 1545 00c8 9342     		cmp	r3, r2
 1546 00ca 09D0     		beq	.L82
 1547              		.loc 1 648 7 discriminator 1
 1548 00cc 7B68     		ldr	r3, [r7, #4]
 1549 00ce 1B68     		ldr	r3, [r3]
 1550 00d0 144A     		ldr	r2, .L86+4
 1551 00d2 9342     		cmp	r3, r2
 1552 00d4 04D0     		beq	.L82
 1553              		.loc 1 648 7 is_stmt 0 discriminator 2
 1554 00d6 7B68     		ldr	r3, [r7, #4]
 1555 00d8 1B68     		ldr	r3, [r3]
 1556 00da 134A     		ldr	r2, .L86+8
 1557 00dc 9342     		cmp	r3, r2
 1558 00de 11D1     		bne	.L83
 1559              	.L82:
 649:Drivers/STM32F0xx_HAL_Driver/Src/stm32f0xx_hal_tim_ex.c ****   {
 650:Drivers/STM32F0xx_HAL_Driver/Src/stm32f0xx_hal_tim_ex.c ****     tmpsmcr = htim->Instance->SMCR & TIM_SMCR_SMS;
 1560              		.loc 1 650 19 is_stmt 1
 1561 00e0 7B68     		ldr	r3, [r7, #4]
 1562 00e2 1B68     		ldr	r3, [r3]
 1563              		.loc 1 650 29
 1564 00e4 9B68     		ldr	r3, [r3, #8]
 1565              		.loc 1 650 13
 1566 00e6 0722     		movs	r2, #7
 1567 00e8 1340     		ands	r3, r2
 1568 00ea FB60     		str	r3, [r7, #12]
 651:Drivers/STM32F0xx_HAL_Driver/Src/stm32f0xx_hal_tim_ex.c ****     if (!IS_TIM_SLAVEMODE_TRIGGER_ENABLED(tmpsmcr))
 1569              		.loc 1 651 8
 1570 00ec FB68     		ldr	r3, [r7, #12]
 1571 00ee 062B     		cmp	r3, #6
 1572 00f0 10D0     		beq	.L85
 652:Drivers/STM32F0xx_HAL_Driver/Src/stm32f0xx_hal_tim_ex.c ****     {
 653:Drivers/STM32F0xx_HAL_Driver/Src/stm32f0xx_hal_tim_ex.c ****       __HAL_TIM_ENABLE(htim);
 1573              		.loc 1 653 7
 1574 00f2 7B68     		ldr	r3, [r7, #4]
 1575 00f4 1B68     		ldr	r3, [r3]
 1576 00f6 1A68     		ldr	r2, [r3]
 1577 00f8 7B68     		ldr	r3, [r7, #4]
 1578 00fa 1B68     		ldr	r3, [r3]
 1579 00fc 0121     		movs	r1, #1
 1580 00fe 0A43     		orrs	r2, r1
 1581 0100 1A60     		str	r2, [r3]
 651:Drivers/STM32F0xx_HAL_Driver/Src/stm32f0xx_hal_tim_ex.c ****     if (!IS_TIM_SLAVEMODE_TRIGGER_ENABLED(tmpsmcr))
 1582              		.loc 1 651 8
 1583 0102 07E0     		b	.L85
 1584              	.L83:
 654:Drivers/STM32F0xx_HAL_Driver/Src/stm32f0xx_hal_tim_ex.c ****     }
ARM GAS  /var/folders/d0/cymppscj10lcmm48h781wrc80000gn/T//cc0qcKWW.s 			page 40


 655:Drivers/STM32F0xx_HAL_Driver/Src/stm32f0xx_hal_tim_ex.c ****   }
 656:Drivers/STM32F0xx_HAL_Driver/Src/stm32f0xx_hal_tim_ex.c ****   else
 657:Drivers/STM32F0xx_HAL_Driver/Src/stm32f0xx_hal_tim_ex.c ****   {
 658:Drivers/STM32F0xx_HAL_Driver/Src/stm32f0xx_hal_tim_ex.c ****     __HAL_TIM_ENABLE(htim);
 1585              		.loc 1 658 5
 1586 0104 7B68     		ldr	r3, [r7, #4]
 1587 0106 1B68     		ldr	r3, [r3]
 1588 0108 1A68     		ldr	r2, [r3]
 1589 010a 7B68     		ldr	r3, [r7, #4]
 1590 010c 1B68     		ldr	r3, [r3]
 1591 010e 0121     		movs	r1, #1
 1592 0110 0A43     		orrs	r2, r1
 1593 0112 1A60     		str	r2, [r3]
 1594              	.L85:
 659:Drivers/STM32F0xx_HAL_Driver/Src/stm32f0xx_hal_tim_ex.c ****   }
 660:Drivers/STM32F0xx_HAL_Driver/Src/stm32f0xx_hal_tim_ex.c **** 
 661:Drivers/STM32F0xx_HAL_Driver/Src/stm32f0xx_hal_tim_ex.c ****   /* Return function status */
 662:Drivers/STM32F0xx_HAL_Driver/Src/stm32f0xx_hal_tim_ex.c ****   return HAL_OK;
 1595              		.loc 1 662 10
 1596 0114 0023     		movs	r3, #0
 1597              	.L75:
 663:Drivers/STM32F0xx_HAL_Driver/Src/stm32f0xx_hal_tim_ex.c **** }
 1598              		.loc 1 663 1
 1599 0116 1800     		movs	r0, r3
 1600 0118 BD46     		mov	sp, r7
 1601 011a 04B0     		add	sp, sp, #16
 1602              		@ sp needed
 1603 011c 80BD     		pop	{r7, pc}
 1604              	.L87:
 1605 011e C046     		.align	2
 1606              	.L86:
 1607 0120 002C0140 		.word	1073818624
 1608 0124 00040040 		.word	1073742848
 1609 0128 00400140 		.word	1073823744
 1610              		.cfi_endproc
 1611              	.LFE50:
 1613              		.section	.text.HAL_TIMEx_OCN_Stop,"ax",%progbits
 1614              		.align	1
 1615              		.global	HAL_TIMEx_OCN_Stop
 1616              		.syntax unified
 1617              		.code	16
 1618              		.thumb_func
 1620              	HAL_TIMEx_OCN_Stop:
 1621              	.LFB51:
 664:Drivers/STM32F0xx_HAL_Driver/Src/stm32f0xx_hal_tim_ex.c **** 
 665:Drivers/STM32F0xx_HAL_Driver/Src/stm32f0xx_hal_tim_ex.c **** /**
 666:Drivers/STM32F0xx_HAL_Driver/Src/stm32f0xx_hal_tim_ex.c ****   * @brief  Stops the TIM Output Compare signal generation on the complementary
 667:Drivers/STM32F0xx_HAL_Driver/Src/stm32f0xx_hal_tim_ex.c ****   *         output.
 668:Drivers/STM32F0xx_HAL_Driver/Src/stm32f0xx_hal_tim_ex.c ****   * @param  htim TIM handle
 669:Drivers/STM32F0xx_HAL_Driver/Src/stm32f0xx_hal_tim_ex.c ****   * @param  Channel TIM Channel to be disabled
 670:Drivers/STM32F0xx_HAL_Driver/Src/stm32f0xx_hal_tim_ex.c ****   *          This parameter can be one of the following values:
 671:Drivers/STM32F0xx_HAL_Driver/Src/stm32f0xx_hal_tim_ex.c ****   *            @arg TIM_CHANNEL_1: TIM Channel 1 selected
 672:Drivers/STM32F0xx_HAL_Driver/Src/stm32f0xx_hal_tim_ex.c ****   *            @arg TIM_CHANNEL_2: TIM Channel 2 selected
 673:Drivers/STM32F0xx_HAL_Driver/Src/stm32f0xx_hal_tim_ex.c ****   *            @arg TIM_CHANNEL_3: TIM Channel 3 selected
 674:Drivers/STM32F0xx_HAL_Driver/Src/stm32f0xx_hal_tim_ex.c ****   * @retval HAL status
 675:Drivers/STM32F0xx_HAL_Driver/Src/stm32f0xx_hal_tim_ex.c ****   */
 676:Drivers/STM32F0xx_HAL_Driver/Src/stm32f0xx_hal_tim_ex.c **** HAL_StatusTypeDef HAL_TIMEx_OCN_Stop(TIM_HandleTypeDef *htim, uint32_t Channel)
ARM GAS  /var/folders/d0/cymppscj10lcmm48h781wrc80000gn/T//cc0qcKWW.s 			page 41


 677:Drivers/STM32F0xx_HAL_Driver/Src/stm32f0xx_hal_tim_ex.c **** {
 1622              		.loc 1 677 1
 1623              		.cfi_startproc
 1624              		@ args = 0, pretend = 0, frame = 8
 1625              		@ frame_needed = 1, uses_anonymous_args = 0
 1626 0000 80B5     		push	{r7, lr}
 1627              	.LCFI33:
 1628              		.cfi_def_cfa_offset 8
 1629              		.cfi_offset 7, -8
 1630              		.cfi_offset 14, -4
 1631 0002 82B0     		sub	sp, sp, #8
 1632              	.LCFI34:
 1633              		.cfi_def_cfa_offset 16
 1634 0004 00AF     		add	r7, sp, #0
 1635              	.LCFI35:
 1636              		.cfi_def_cfa_register 7
 1637 0006 7860     		str	r0, [r7, #4]
 1638 0008 3960     		str	r1, [r7]
 678:Drivers/STM32F0xx_HAL_Driver/Src/stm32f0xx_hal_tim_ex.c ****   /* Check the parameters */
 679:Drivers/STM32F0xx_HAL_Driver/Src/stm32f0xx_hal_tim_ex.c ****   assert_param(IS_TIM_CCXN_INSTANCE(htim->Instance, Channel));
 680:Drivers/STM32F0xx_HAL_Driver/Src/stm32f0xx_hal_tim_ex.c **** 
 681:Drivers/STM32F0xx_HAL_Driver/Src/stm32f0xx_hal_tim_ex.c ****   /* Disable the Capture compare channel N */
 682:Drivers/STM32F0xx_HAL_Driver/Src/stm32f0xx_hal_tim_ex.c ****   TIM_CCxNChannelCmd(htim->Instance, Channel, TIM_CCxN_DISABLE);
 1639              		.loc 1 682 3
 1640 000a 7B68     		ldr	r3, [r7, #4]
 1641 000c 1B68     		ldr	r3, [r3]
 1642 000e 3968     		ldr	r1, [r7]
 1643 0010 0022     		movs	r2, #0
 1644 0012 1800     		movs	r0, r3
 1645 0014 FFF7FEFF 		bl	TIM_CCxNChannelCmd
 683:Drivers/STM32F0xx_HAL_Driver/Src/stm32f0xx_hal_tim_ex.c **** 
 684:Drivers/STM32F0xx_HAL_Driver/Src/stm32f0xx_hal_tim_ex.c ****   /* Disable the Main Output */
 685:Drivers/STM32F0xx_HAL_Driver/Src/stm32f0xx_hal_tim_ex.c ****   __HAL_TIM_MOE_DISABLE(htim);
 1646              		.loc 1 685 3
 1647 0018 7B68     		ldr	r3, [r7, #4]
 1648 001a 1B68     		ldr	r3, [r3]
 1649 001c 1B6A     		ldr	r3, [r3, #32]
 1650 001e 234A     		ldr	r2, .L98
 1651 0020 1340     		ands	r3, r2
 1652 0022 0DD1     		bne	.L89
 1653              		.loc 1 685 3 is_stmt 0 discriminator 1
 1654 0024 7B68     		ldr	r3, [r7, #4]
 1655 0026 1B68     		ldr	r3, [r3]
 1656 0028 1B6A     		ldr	r3, [r3, #32]
 1657 002a 214A     		ldr	r2, .L98+4
 1658 002c 1340     		ands	r3, r2
 1659 002e 07D1     		bne	.L89
 1660              		.loc 1 685 3 discriminator 2
 1661 0030 7B68     		ldr	r3, [r7, #4]
 1662 0032 1B68     		ldr	r3, [r3]
 1663 0034 5A6C     		ldr	r2, [r3, #68]
 1664 0036 7B68     		ldr	r3, [r7, #4]
 1665 0038 1B68     		ldr	r3, [r3]
 1666 003a 1E49     		ldr	r1, .L98+8
 1667 003c 0A40     		ands	r2, r1
 1668 003e 5A64     		str	r2, [r3, #68]
 1669              	.L89:
ARM GAS  /var/folders/d0/cymppscj10lcmm48h781wrc80000gn/T//cc0qcKWW.s 			page 42


 686:Drivers/STM32F0xx_HAL_Driver/Src/stm32f0xx_hal_tim_ex.c **** 
 687:Drivers/STM32F0xx_HAL_Driver/Src/stm32f0xx_hal_tim_ex.c ****   /* Disable the Peripheral */
 688:Drivers/STM32F0xx_HAL_Driver/Src/stm32f0xx_hal_tim_ex.c ****   __HAL_TIM_DISABLE(htim);
 1670              		.loc 1 688 3 is_stmt 1
 1671 0040 7B68     		ldr	r3, [r7, #4]
 1672 0042 1B68     		ldr	r3, [r3]
 1673 0044 1B6A     		ldr	r3, [r3, #32]
 1674 0046 194A     		ldr	r2, .L98
 1675 0048 1340     		ands	r3, r2
 1676 004a 0DD1     		bne	.L90
 1677              		.loc 1 688 3 is_stmt 0 discriminator 1
 1678 004c 7B68     		ldr	r3, [r7, #4]
 1679 004e 1B68     		ldr	r3, [r3]
 1680 0050 1B6A     		ldr	r3, [r3, #32]
 1681 0052 174A     		ldr	r2, .L98+4
 1682 0054 1340     		ands	r3, r2
 1683 0056 07D1     		bne	.L90
 1684              		.loc 1 688 3 discriminator 2
 1685 0058 7B68     		ldr	r3, [r7, #4]
 1686 005a 1B68     		ldr	r3, [r3]
 1687 005c 1A68     		ldr	r2, [r3]
 1688 005e 7B68     		ldr	r3, [r7, #4]
 1689 0060 1B68     		ldr	r3, [r3]
 1690 0062 0121     		movs	r1, #1
 1691 0064 8A43     		bics	r2, r1
 1692 0066 1A60     		str	r2, [r3]
 1693              	.L90:
 689:Drivers/STM32F0xx_HAL_Driver/Src/stm32f0xx_hal_tim_ex.c **** 
 690:Drivers/STM32F0xx_HAL_Driver/Src/stm32f0xx_hal_tim_ex.c ****   /* Set the TIM complementary channel state */
 691:Drivers/STM32F0xx_HAL_Driver/Src/stm32f0xx_hal_tim_ex.c ****   TIM_CHANNEL_N_STATE_SET(htim, Channel, HAL_TIM_CHANNEL_STATE_READY);
 1694              		.loc 1 691 3 is_stmt 1
 1695 0068 3B68     		ldr	r3, [r7]
 1696 006a 002B     		cmp	r3, #0
 1697 006c 04D1     		bne	.L91
 1698              		.loc 1 691 3 is_stmt 0 discriminator 1
 1699 006e 7B68     		ldr	r3, [r7, #4]
 1700 0070 4222     		movs	r2, #66
 1701 0072 0121     		movs	r1, #1
 1702 0074 9954     		strb	r1, [r3, r2]
 1703 0076 13E0     		b	.L92
 1704              	.L91:
 1705              		.loc 1 691 3 discriminator 2
 1706 0078 3B68     		ldr	r3, [r7]
 1707 007a 042B     		cmp	r3, #4
 1708 007c 04D1     		bne	.L93
 1709              		.loc 1 691 3 discriminator 3
 1710 007e 7B68     		ldr	r3, [r7, #4]
 1711 0080 4322     		movs	r2, #67
 1712 0082 0121     		movs	r1, #1
 1713 0084 9954     		strb	r1, [r3, r2]
 1714 0086 0BE0     		b	.L92
 1715              	.L93:
 1716              		.loc 1 691 3 discriminator 4
 1717 0088 3B68     		ldr	r3, [r7]
 1718 008a 082B     		cmp	r3, #8
 1719 008c 04D1     		bne	.L95
 1720              		.loc 1 691 3 discriminator 6
ARM GAS  /var/folders/d0/cymppscj10lcmm48h781wrc80000gn/T//cc0qcKWW.s 			page 43


 1721 008e 7B68     		ldr	r3, [r7, #4]
 1722 0090 4422     		movs	r2, #68
 1723 0092 0121     		movs	r1, #1
 1724 0094 9954     		strb	r1, [r3, r2]
 1725 0096 03E0     		b	.L92
 1726              	.L95:
 1727              		.loc 1 691 3 discriminator 7
 1728 0098 7B68     		ldr	r3, [r7, #4]
 1729 009a 4522     		movs	r2, #69
 1730 009c 0121     		movs	r1, #1
 1731 009e 9954     		strb	r1, [r3, r2]
 1732              	.L92:
 692:Drivers/STM32F0xx_HAL_Driver/Src/stm32f0xx_hal_tim_ex.c **** 
 693:Drivers/STM32F0xx_HAL_Driver/Src/stm32f0xx_hal_tim_ex.c ****   /* Return function status */
 694:Drivers/STM32F0xx_HAL_Driver/Src/stm32f0xx_hal_tim_ex.c ****   return HAL_OK;
 1733              		.loc 1 694 10 is_stmt 1
 1734 00a0 0023     		movs	r3, #0
 695:Drivers/STM32F0xx_HAL_Driver/Src/stm32f0xx_hal_tim_ex.c **** }
 1735              		.loc 1 695 1
 1736 00a2 1800     		movs	r0, r3
 1737 00a4 BD46     		mov	sp, r7
 1738 00a6 02B0     		add	sp, sp, #8
 1739              		@ sp needed
 1740 00a8 80BD     		pop	{r7, pc}
 1741              	.L99:
 1742 00aa C046     		.align	2
 1743              	.L98:
 1744 00ac 11110000 		.word	4369
 1745 00b0 44040000 		.word	1092
 1746 00b4 FF7FFFFF 		.word	-32769
 1747              		.cfi_endproc
 1748              	.LFE51:
 1750              		.section	.text.HAL_TIMEx_OCN_Start_IT,"ax",%progbits
 1751              		.align	1
 1752              		.global	HAL_TIMEx_OCN_Start_IT
 1753              		.syntax unified
 1754              		.code	16
 1755              		.thumb_func
 1757              	HAL_TIMEx_OCN_Start_IT:
 1758              	.LFB52:
 696:Drivers/STM32F0xx_HAL_Driver/Src/stm32f0xx_hal_tim_ex.c **** 
 697:Drivers/STM32F0xx_HAL_Driver/Src/stm32f0xx_hal_tim_ex.c **** /**
 698:Drivers/STM32F0xx_HAL_Driver/Src/stm32f0xx_hal_tim_ex.c ****   * @brief  Starts the TIM Output Compare signal generation in interrupt mode
 699:Drivers/STM32F0xx_HAL_Driver/Src/stm32f0xx_hal_tim_ex.c ****   *         on the complementary output.
 700:Drivers/STM32F0xx_HAL_Driver/Src/stm32f0xx_hal_tim_ex.c ****   * @param  htim TIM OC handle
 701:Drivers/STM32F0xx_HAL_Driver/Src/stm32f0xx_hal_tim_ex.c ****   * @param  Channel TIM Channel to be enabled
 702:Drivers/STM32F0xx_HAL_Driver/Src/stm32f0xx_hal_tim_ex.c ****   *          This parameter can be one of the following values:
 703:Drivers/STM32F0xx_HAL_Driver/Src/stm32f0xx_hal_tim_ex.c ****   *            @arg TIM_CHANNEL_1: TIM Channel 1 selected
 704:Drivers/STM32F0xx_HAL_Driver/Src/stm32f0xx_hal_tim_ex.c ****   *            @arg TIM_CHANNEL_2: TIM Channel 2 selected
 705:Drivers/STM32F0xx_HAL_Driver/Src/stm32f0xx_hal_tim_ex.c ****   *            @arg TIM_CHANNEL_3: TIM Channel 3 selected
 706:Drivers/STM32F0xx_HAL_Driver/Src/stm32f0xx_hal_tim_ex.c ****   * @retval HAL status
 707:Drivers/STM32F0xx_HAL_Driver/Src/stm32f0xx_hal_tim_ex.c ****   */
 708:Drivers/STM32F0xx_HAL_Driver/Src/stm32f0xx_hal_tim_ex.c **** HAL_StatusTypeDef HAL_TIMEx_OCN_Start_IT(TIM_HandleTypeDef *htim, uint32_t Channel)
 709:Drivers/STM32F0xx_HAL_Driver/Src/stm32f0xx_hal_tim_ex.c **** {
 1759              		.loc 1 709 1
 1760              		.cfi_startproc
 1761              		@ args = 0, pretend = 0, frame = 16
ARM GAS  /var/folders/d0/cymppscj10lcmm48h781wrc80000gn/T//cc0qcKWW.s 			page 44


 1762              		@ frame_needed = 1, uses_anonymous_args = 0
 1763 0000 80B5     		push	{r7, lr}
 1764              	.LCFI36:
 1765              		.cfi_def_cfa_offset 8
 1766              		.cfi_offset 7, -8
 1767              		.cfi_offset 14, -4
 1768 0002 84B0     		sub	sp, sp, #16
 1769              	.LCFI37:
 1770              		.cfi_def_cfa_offset 24
 1771 0004 00AF     		add	r7, sp, #0
 1772              	.LCFI38:
 1773              		.cfi_def_cfa_register 7
 1774 0006 7860     		str	r0, [r7, #4]
 1775 0008 3960     		str	r1, [r7]
 710:Drivers/STM32F0xx_HAL_Driver/Src/stm32f0xx_hal_tim_ex.c ****   HAL_StatusTypeDef status = HAL_OK;
 1776              		.loc 1 710 21
 1777 000a 0F23     		movs	r3, #15
 1778 000c FB18     		adds	r3, r7, r3
 1779 000e 0022     		movs	r2, #0
 1780 0010 1A70     		strb	r2, [r3]
 711:Drivers/STM32F0xx_HAL_Driver/Src/stm32f0xx_hal_tim_ex.c ****   uint32_t tmpsmcr;
 712:Drivers/STM32F0xx_HAL_Driver/Src/stm32f0xx_hal_tim_ex.c **** 
 713:Drivers/STM32F0xx_HAL_Driver/Src/stm32f0xx_hal_tim_ex.c ****   /* Check the parameters */
 714:Drivers/STM32F0xx_HAL_Driver/Src/stm32f0xx_hal_tim_ex.c ****   assert_param(IS_TIM_CCXN_INSTANCE(htim->Instance, Channel));
 715:Drivers/STM32F0xx_HAL_Driver/Src/stm32f0xx_hal_tim_ex.c **** 
 716:Drivers/STM32F0xx_HAL_Driver/Src/stm32f0xx_hal_tim_ex.c ****   /* Check the TIM complementary channel state */
 717:Drivers/STM32F0xx_HAL_Driver/Src/stm32f0xx_hal_tim_ex.c ****   if (TIM_CHANNEL_N_STATE_GET(htim, Channel) != HAL_TIM_CHANNEL_STATE_READY)
 1781              		.loc 1 717 46
 1782 0012 3B68     		ldr	r3, [r7]
 1783 0014 002B     		cmp	r3, #0
 1784 0016 08D1     		bne	.L101
 1785              		.loc 1 717 7 discriminator 1
 1786 0018 7B68     		ldr	r3, [r7, #4]
 1787 001a 4222     		movs	r2, #66
 1788 001c 9B5C     		ldrb	r3, [r3, r2]
 1789 001e DBB2     		uxtb	r3, r3
 1790              		.loc 1 717 46 discriminator 1
 1791 0020 013B     		subs	r3, r3, #1
 1792 0022 5A1E     		subs	r2, r3, #1
 1793 0024 9341     		sbcs	r3, r3, r2
 1794 0026 DBB2     		uxtb	r3, r3
 1795 0028 1FE0     		b	.L102
 1796              	.L101:
 1797              		.loc 1 717 46 is_stmt 0 discriminator 2
 1798 002a 3B68     		ldr	r3, [r7]
 1799 002c 042B     		cmp	r3, #4
 1800 002e 08D1     		bne	.L103
 1801              		.loc 1 717 7 is_stmt 1 discriminator 4
 1802 0030 7B68     		ldr	r3, [r7, #4]
 1803 0032 4322     		movs	r2, #67
 1804 0034 9B5C     		ldrb	r3, [r3, r2]
 1805 0036 DBB2     		uxtb	r3, r3
 1806              		.loc 1 717 46 discriminator 4
 1807 0038 013B     		subs	r3, r3, #1
 1808 003a 5A1E     		subs	r2, r3, #1
 1809 003c 9341     		sbcs	r3, r3, r2
 1810 003e DBB2     		uxtb	r3, r3
ARM GAS  /var/folders/d0/cymppscj10lcmm48h781wrc80000gn/T//cc0qcKWW.s 			page 45


 1811 0040 13E0     		b	.L102
 1812              	.L103:
 1813              		.loc 1 717 46 is_stmt 0 discriminator 5
 1814 0042 3B68     		ldr	r3, [r7]
 1815 0044 082B     		cmp	r3, #8
 1816 0046 08D1     		bne	.L105
 1817              		.loc 1 717 7 is_stmt 1 discriminator 7
 1818 0048 7B68     		ldr	r3, [r7, #4]
 1819 004a 4422     		movs	r2, #68
 1820 004c 9B5C     		ldrb	r3, [r3, r2]
 1821 004e DBB2     		uxtb	r3, r3
 1822              		.loc 1 717 46 discriminator 7
 1823 0050 013B     		subs	r3, r3, #1
 1824 0052 5A1E     		subs	r2, r3, #1
 1825 0054 9341     		sbcs	r3, r3, r2
 1826 0056 DBB2     		uxtb	r3, r3
 1827 0058 07E0     		b	.L102
 1828              	.L105:
 1829              		.loc 1 717 7 discriminator 8
 1830 005a 7B68     		ldr	r3, [r7, #4]
 1831 005c 4522     		movs	r2, #69
 1832 005e 9B5C     		ldrb	r3, [r3, r2]
 1833 0060 DBB2     		uxtb	r3, r3
 1834              		.loc 1 717 46 discriminator 8
 1835 0062 013B     		subs	r3, r3, #1
 1836 0064 5A1E     		subs	r2, r3, #1
 1837 0066 9341     		sbcs	r3, r3, r2
 1838 0068 DBB2     		uxtb	r3, r3
 1839              	.L102:
 1840              		.loc 1 717 6 discriminator 12
 1841 006a 002B     		cmp	r3, #0
 1842 006c 01D0     		beq	.L107
 718:Drivers/STM32F0xx_HAL_Driver/Src/stm32f0xx_hal_tim_ex.c ****   {
 719:Drivers/STM32F0xx_HAL_Driver/Src/stm32f0xx_hal_tim_ex.c ****     return HAL_ERROR;
 1843              		.loc 1 719 12
 1844 006e 0123     		movs	r3, #1
 1845 0070 91E0     		b	.L108
 1846              	.L107:
 720:Drivers/STM32F0xx_HAL_Driver/Src/stm32f0xx_hal_tim_ex.c ****   }
 721:Drivers/STM32F0xx_HAL_Driver/Src/stm32f0xx_hal_tim_ex.c **** 
 722:Drivers/STM32F0xx_HAL_Driver/Src/stm32f0xx_hal_tim_ex.c ****   /* Set the TIM complementary channel state */
 723:Drivers/STM32F0xx_HAL_Driver/Src/stm32f0xx_hal_tim_ex.c ****   TIM_CHANNEL_N_STATE_SET(htim, Channel, HAL_TIM_CHANNEL_STATE_BUSY);
 1847              		.loc 1 723 3
 1848 0072 3B68     		ldr	r3, [r7]
 1849 0074 002B     		cmp	r3, #0
 1850 0076 04D1     		bne	.L109
 1851              		.loc 1 723 3 is_stmt 0 discriminator 1
 1852 0078 7B68     		ldr	r3, [r7, #4]
 1853 007a 4222     		movs	r2, #66
 1854 007c 0221     		movs	r1, #2
 1855 007e 9954     		strb	r1, [r3, r2]
 1856 0080 13E0     		b	.L110
 1857              	.L109:
 1858              		.loc 1 723 3 discriminator 2
 1859 0082 3B68     		ldr	r3, [r7]
 1860 0084 042B     		cmp	r3, #4
 1861 0086 04D1     		bne	.L111
ARM GAS  /var/folders/d0/cymppscj10lcmm48h781wrc80000gn/T//cc0qcKWW.s 			page 46


 1862              		.loc 1 723 3 discriminator 3
 1863 0088 7B68     		ldr	r3, [r7, #4]
 1864 008a 4322     		movs	r2, #67
 1865 008c 0221     		movs	r1, #2
 1866 008e 9954     		strb	r1, [r3, r2]
 1867 0090 0BE0     		b	.L110
 1868              	.L111:
 1869              		.loc 1 723 3 discriminator 4
 1870 0092 3B68     		ldr	r3, [r7]
 1871 0094 082B     		cmp	r3, #8
 1872 0096 04D1     		bne	.L113
 1873              		.loc 1 723 3 discriminator 6
 1874 0098 7B68     		ldr	r3, [r7, #4]
 1875 009a 4422     		movs	r2, #68
 1876 009c 0221     		movs	r1, #2
 1877 009e 9954     		strb	r1, [r3, r2]
 1878 00a0 03E0     		b	.L110
 1879              	.L113:
 1880              		.loc 1 723 3 discriminator 7
 1881 00a2 7B68     		ldr	r3, [r7, #4]
 1882 00a4 4522     		movs	r2, #69
 1883 00a6 0221     		movs	r1, #2
 1884 00a8 9954     		strb	r1, [r3, r2]
 1885              	.L110:
 724:Drivers/STM32F0xx_HAL_Driver/Src/stm32f0xx_hal_tim_ex.c **** 
 725:Drivers/STM32F0xx_HAL_Driver/Src/stm32f0xx_hal_tim_ex.c ****   switch (Channel)
 1886              		.loc 1 725 3 is_stmt 1
 1887 00aa 3B68     		ldr	r3, [r7]
 1888 00ac 082B     		cmp	r3, #8
 1889 00ae 1BD0     		beq	.L115
 1890 00b0 3B68     		ldr	r3, [r7]
 1891 00b2 082B     		cmp	r3, #8
 1892 00b4 21D8     		bhi	.L116
 1893 00b6 3B68     		ldr	r3, [r7]
 1894 00b8 002B     		cmp	r3, #0
 1895 00ba 03D0     		beq	.L117
 1896 00bc 3B68     		ldr	r3, [r7]
 1897 00be 042B     		cmp	r3, #4
 1898 00c0 09D0     		beq	.L118
 1899 00c2 1AE0     		b	.L116
 1900              	.L117:
 726:Drivers/STM32F0xx_HAL_Driver/Src/stm32f0xx_hal_tim_ex.c ****   {
 727:Drivers/STM32F0xx_HAL_Driver/Src/stm32f0xx_hal_tim_ex.c ****     case TIM_CHANNEL_1:
 728:Drivers/STM32F0xx_HAL_Driver/Src/stm32f0xx_hal_tim_ex.c ****     {
 729:Drivers/STM32F0xx_HAL_Driver/Src/stm32f0xx_hal_tim_ex.c ****       /* Enable the TIM Output Compare interrupt */
 730:Drivers/STM32F0xx_HAL_Driver/Src/stm32f0xx_hal_tim_ex.c ****       __HAL_TIM_ENABLE_IT(htim, TIM_IT_CC1);
 1901              		.loc 1 730 7
 1902 00c4 7B68     		ldr	r3, [r7, #4]
 1903 00c6 1B68     		ldr	r3, [r3]
 1904 00c8 DA68     		ldr	r2, [r3, #12]
 1905 00ca 7B68     		ldr	r3, [r7, #4]
 1906 00cc 1B68     		ldr	r3, [r3]
 1907 00ce 0221     		movs	r1, #2
 1908 00d0 0A43     		orrs	r2, r1
 1909 00d2 DA60     		str	r2, [r3, #12]
 731:Drivers/STM32F0xx_HAL_Driver/Src/stm32f0xx_hal_tim_ex.c ****       break;
 1910              		.loc 1 731 7
ARM GAS  /var/folders/d0/cymppscj10lcmm48h781wrc80000gn/T//cc0qcKWW.s 			page 47


 1911 00d4 16E0     		b	.L119
 1912              	.L118:
 732:Drivers/STM32F0xx_HAL_Driver/Src/stm32f0xx_hal_tim_ex.c ****     }
 733:Drivers/STM32F0xx_HAL_Driver/Src/stm32f0xx_hal_tim_ex.c **** 
 734:Drivers/STM32F0xx_HAL_Driver/Src/stm32f0xx_hal_tim_ex.c ****     case TIM_CHANNEL_2:
 735:Drivers/STM32F0xx_HAL_Driver/Src/stm32f0xx_hal_tim_ex.c ****     {
 736:Drivers/STM32F0xx_HAL_Driver/Src/stm32f0xx_hal_tim_ex.c ****       /* Enable the TIM Output Compare interrupt */
 737:Drivers/STM32F0xx_HAL_Driver/Src/stm32f0xx_hal_tim_ex.c ****       __HAL_TIM_ENABLE_IT(htim, TIM_IT_CC2);
 1913              		.loc 1 737 7
 1914 00d6 7B68     		ldr	r3, [r7, #4]
 1915 00d8 1B68     		ldr	r3, [r3]
 1916 00da DA68     		ldr	r2, [r3, #12]
 1917 00dc 7B68     		ldr	r3, [r7, #4]
 1918 00de 1B68     		ldr	r3, [r3]
 1919 00e0 0421     		movs	r1, #4
 1920 00e2 0A43     		orrs	r2, r1
 1921 00e4 DA60     		str	r2, [r3, #12]
 738:Drivers/STM32F0xx_HAL_Driver/Src/stm32f0xx_hal_tim_ex.c ****       break;
 1922              		.loc 1 738 7
 1923 00e6 0DE0     		b	.L119
 1924              	.L115:
 739:Drivers/STM32F0xx_HAL_Driver/Src/stm32f0xx_hal_tim_ex.c ****     }
 740:Drivers/STM32F0xx_HAL_Driver/Src/stm32f0xx_hal_tim_ex.c **** 
 741:Drivers/STM32F0xx_HAL_Driver/Src/stm32f0xx_hal_tim_ex.c ****     case TIM_CHANNEL_3:
 742:Drivers/STM32F0xx_HAL_Driver/Src/stm32f0xx_hal_tim_ex.c ****     {
 743:Drivers/STM32F0xx_HAL_Driver/Src/stm32f0xx_hal_tim_ex.c ****       /* Enable the TIM Output Compare interrupt */
 744:Drivers/STM32F0xx_HAL_Driver/Src/stm32f0xx_hal_tim_ex.c ****       __HAL_TIM_ENABLE_IT(htim, TIM_IT_CC3);
 1925              		.loc 1 744 7
 1926 00e8 7B68     		ldr	r3, [r7, #4]
 1927 00ea 1B68     		ldr	r3, [r3]
 1928 00ec DA68     		ldr	r2, [r3, #12]
 1929 00ee 7B68     		ldr	r3, [r7, #4]
 1930 00f0 1B68     		ldr	r3, [r3]
 1931 00f2 0821     		movs	r1, #8
 1932 00f4 0A43     		orrs	r2, r1
 1933 00f6 DA60     		str	r2, [r3, #12]
 745:Drivers/STM32F0xx_HAL_Driver/Src/stm32f0xx_hal_tim_ex.c ****       break;
 1934              		.loc 1 745 7
 1935 00f8 04E0     		b	.L119
 1936              	.L116:
 746:Drivers/STM32F0xx_HAL_Driver/Src/stm32f0xx_hal_tim_ex.c ****     }
 747:Drivers/STM32F0xx_HAL_Driver/Src/stm32f0xx_hal_tim_ex.c **** 
 748:Drivers/STM32F0xx_HAL_Driver/Src/stm32f0xx_hal_tim_ex.c **** 
 749:Drivers/STM32F0xx_HAL_Driver/Src/stm32f0xx_hal_tim_ex.c ****     default:
 750:Drivers/STM32F0xx_HAL_Driver/Src/stm32f0xx_hal_tim_ex.c ****       status = HAL_ERROR;
 1937              		.loc 1 750 14
 1938 00fa 0F23     		movs	r3, #15
 1939 00fc FB18     		adds	r3, r7, r3
 1940 00fe 0122     		movs	r2, #1
 1941 0100 1A70     		strb	r2, [r3]
 751:Drivers/STM32F0xx_HAL_Driver/Src/stm32f0xx_hal_tim_ex.c ****       break;
 1942              		.loc 1 751 7
 1943 0102 C046     		nop
 1944              	.L119:
 752:Drivers/STM32F0xx_HAL_Driver/Src/stm32f0xx_hal_tim_ex.c ****   }
 753:Drivers/STM32F0xx_HAL_Driver/Src/stm32f0xx_hal_tim_ex.c **** 
 754:Drivers/STM32F0xx_HAL_Driver/Src/stm32f0xx_hal_tim_ex.c ****   if (status == HAL_OK)
ARM GAS  /var/folders/d0/cymppscj10lcmm48h781wrc80000gn/T//cc0qcKWW.s 			page 48


 1945              		.loc 1 754 6
 1946 0104 0F23     		movs	r3, #15
 1947 0106 FB18     		adds	r3, r7, r3
 1948 0108 1B78     		ldrb	r3, [r3]
 1949 010a 002B     		cmp	r3, #0
 1950 010c 40D1     		bne	.L120
 755:Drivers/STM32F0xx_HAL_Driver/Src/stm32f0xx_hal_tim_ex.c ****   {
 756:Drivers/STM32F0xx_HAL_Driver/Src/stm32f0xx_hal_tim_ex.c ****     /* Enable the TIM Break interrupt */
 757:Drivers/STM32F0xx_HAL_Driver/Src/stm32f0xx_hal_tim_ex.c ****     __HAL_TIM_ENABLE_IT(htim, TIM_IT_BREAK);
 1951              		.loc 1 757 5
 1952 010e 7B68     		ldr	r3, [r7, #4]
 1953 0110 1B68     		ldr	r3, [r3]
 1954 0112 DA68     		ldr	r2, [r3, #12]
 1955 0114 7B68     		ldr	r3, [r7, #4]
 1956 0116 1B68     		ldr	r3, [r3]
 1957 0118 8021     		movs	r1, #128
 1958 011a 0A43     		orrs	r2, r1
 1959 011c DA60     		str	r2, [r3, #12]
 758:Drivers/STM32F0xx_HAL_Driver/Src/stm32f0xx_hal_tim_ex.c **** 
 759:Drivers/STM32F0xx_HAL_Driver/Src/stm32f0xx_hal_tim_ex.c ****     /* Enable the Capture compare channel N */
 760:Drivers/STM32F0xx_HAL_Driver/Src/stm32f0xx_hal_tim_ex.c ****     TIM_CCxNChannelCmd(htim->Instance, Channel, TIM_CCxN_ENABLE);
 1960              		.loc 1 760 5
 1961 011e 7B68     		ldr	r3, [r7, #4]
 1962 0120 1B68     		ldr	r3, [r3]
 1963 0122 3968     		ldr	r1, [r7]
 1964 0124 0422     		movs	r2, #4
 1965 0126 1800     		movs	r0, r3
 1966 0128 FFF7FEFF 		bl	TIM_CCxNChannelCmd
 761:Drivers/STM32F0xx_HAL_Driver/Src/stm32f0xx_hal_tim_ex.c **** 
 762:Drivers/STM32F0xx_HAL_Driver/Src/stm32f0xx_hal_tim_ex.c ****     /* Enable the Main Output */
 763:Drivers/STM32F0xx_HAL_Driver/Src/stm32f0xx_hal_tim_ex.c ****     __HAL_TIM_MOE_ENABLE(htim);
 1967              		.loc 1 763 5
 1968 012c 7B68     		ldr	r3, [r7, #4]
 1969 012e 1B68     		ldr	r3, [r3]
 1970 0130 5A6C     		ldr	r2, [r3, #68]
 1971 0132 7B68     		ldr	r3, [r7, #4]
 1972 0134 1B68     		ldr	r3, [r3]
 1973 0136 8021     		movs	r1, #128
 1974 0138 0902     		lsls	r1, r1, #8
 1975 013a 0A43     		orrs	r2, r1
 1976 013c 5A64     		str	r2, [r3, #68]
 764:Drivers/STM32F0xx_HAL_Driver/Src/stm32f0xx_hal_tim_ex.c **** 
 765:Drivers/STM32F0xx_HAL_Driver/Src/stm32f0xx_hal_tim_ex.c ****     /* Enable the Peripheral, except in trigger mode where enable is automatically done with trigge
 766:Drivers/STM32F0xx_HAL_Driver/Src/stm32f0xx_hal_tim_ex.c ****     if (IS_TIM_SLAVE_INSTANCE(htim->Instance))
 1977              		.loc 1 766 9
 1978 013e 7B68     		ldr	r3, [r7, #4]
 1979 0140 1B68     		ldr	r3, [r3]
 1980              		.loc 1 766 8
 1981 0142 174A     		ldr	r2, .L124
 1982 0144 9342     		cmp	r3, r2
 1983 0146 09D0     		beq	.L121
 1984              		.loc 1 766 9 discriminator 1
 1985 0148 7B68     		ldr	r3, [r7, #4]
 1986 014a 1B68     		ldr	r3, [r3]
 1987 014c 154A     		ldr	r2, .L124+4
 1988 014e 9342     		cmp	r3, r2
 1989 0150 04D0     		beq	.L121
ARM GAS  /var/folders/d0/cymppscj10lcmm48h781wrc80000gn/T//cc0qcKWW.s 			page 49


 1990              		.loc 1 766 9 is_stmt 0 discriminator 2
 1991 0152 7B68     		ldr	r3, [r7, #4]
 1992 0154 1B68     		ldr	r3, [r3]
 1993 0156 144A     		ldr	r2, .L124+8
 1994 0158 9342     		cmp	r3, r2
 1995 015a 11D1     		bne	.L122
 1996              	.L121:
 767:Drivers/STM32F0xx_HAL_Driver/Src/stm32f0xx_hal_tim_ex.c ****     {
 768:Drivers/STM32F0xx_HAL_Driver/Src/stm32f0xx_hal_tim_ex.c ****       tmpsmcr = htim->Instance->SMCR & TIM_SMCR_SMS;
 1997              		.loc 1 768 21 is_stmt 1
 1998 015c 7B68     		ldr	r3, [r7, #4]
 1999 015e 1B68     		ldr	r3, [r3]
 2000              		.loc 1 768 31
 2001 0160 9B68     		ldr	r3, [r3, #8]
 2002              		.loc 1 768 15
 2003 0162 0722     		movs	r2, #7
 2004 0164 1340     		ands	r3, r2
 2005 0166 BB60     		str	r3, [r7, #8]
 769:Drivers/STM32F0xx_HAL_Driver/Src/stm32f0xx_hal_tim_ex.c ****       if (!IS_TIM_SLAVEMODE_TRIGGER_ENABLED(tmpsmcr))
 2006              		.loc 1 769 10
 2007 0168 BB68     		ldr	r3, [r7, #8]
 2008 016a 062B     		cmp	r3, #6
 2009 016c 10D0     		beq	.L120
 770:Drivers/STM32F0xx_HAL_Driver/Src/stm32f0xx_hal_tim_ex.c ****       {
 771:Drivers/STM32F0xx_HAL_Driver/Src/stm32f0xx_hal_tim_ex.c ****         __HAL_TIM_ENABLE(htim);
 2010              		.loc 1 771 9
 2011 016e 7B68     		ldr	r3, [r7, #4]
 2012 0170 1B68     		ldr	r3, [r3]
 2013 0172 1A68     		ldr	r2, [r3]
 2014 0174 7B68     		ldr	r3, [r7, #4]
 2015 0176 1B68     		ldr	r3, [r3]
 2016 0178 0121     		movs	r1, #1
 2017 017a 0A43     		orrs	r2, r1
 2018 017c 1A60     		str	r2, [r3]
 769:Drivers/STM32F0xx_HAL_Driver/Src/stm32f0xx_hal_tim_ex.c ****       if (!IS_TIM_SLAVEMODE_TRIGGER_ENABLED(tmpsmcr))
 2019              		.loc 1 769 10
 2020 017e 07E0     		b	.L120
 2021              	.L122:
 772:Drivers/STM32F0xx_HAL_Driver/Src/stm32f0xx_hal_tim_ex.c ****       }
 773:Drivers/STM32F0xx_HAL_Driver/Src/stm32f0xx_hal_tim_ex.c ****     }
 774:Drivers/STM32F0xx_HAL_Driver/Src/stm32f0xx_hal_tim_ex.c ****     else
 775:Drivers/STM32F0xx_HAL_Driver/Src/stm32f0xx_hal_tim_ex.c ****     {
 776:Drivers/STM32F0xx_HAL_Driver/Src/stm32f0xx_hal_tim_ex.c ****       __HAL_TIM_ENABLE(htim);
 2022              		.loc 1 776 7
 2023 0180 7B68     		ldr	r3, [r7, #4]
 2024 0182 1B68     		ldr	r3, [r3]
 2025 0184 1A68     		ldr	r2, [r3]
 2026 0186 7B68     		ldr	r3, [r7, #4]
 2027 0188 1B68     		ldr	r3, [r3]
 2028 018a 0121     		movs	r1, #1
 2029 018c 0A43     		orrs	r2, r1
 2030 018e 1A60     		str	r2, [r3]
 2031              	.L120:
 777:Drivers/STM32F0xx_HAL_Driver/Src/stm32f0xx_hal_tim_ex.c ****     }
 778:Drivers/STM32F0xx_HAL_Driver/Src/stm32f0xx_hal_tim_ex.c ****   }
 779:Drivers/STM32F0xx_HAL_Driver/Src/stm32f0xx_hal_tim_ex.c **** 
 780:Drivers/STM32F0xx_HAL_Driver/Src/stm32f0xx_hal_tim_ex.c ****   /* Return function status */
ARM GAS  /var/folders/d0/cymppscj10lcmm48h781wrc80000gn/T//cc0qcKWW.s 			page 50


 781:Drivers/STM32F0xx_HAL_Driver/Src/stm32f0xx_hal_tim_ex.c ****   return status;
 2032              		.loc 1 781 10
 2033 0190 0F23     		movs	r3, #15
 2034 0192 FB18     		adds	r3, r7, r3
 2035 0194 1B78     		ldrb	r3, [r3]
 2036              	.L108:
 782:Drivers/STM32F0xx_HAL_Driver/Src/stm32f0xx_hal_tim_ex.c **** }
 2037              		.loc 1 782 1
 2038 0196 1800     		movs	r0, r3
 2039 0198 BD46     		mov	sp, r7
 2040 019a 04B0     		add	sp, sp, #16
 2041              		@ sp needed
 2042 019c 80BD     		pop	{r7, pc}
 2043              	.L125:
 2044 019e C046     		.align	2
 2045              	.L124:
 2046 01a0 002C0140 		.word	1073818624
 2047 01a4 00040040 		.word	1073742848
 2048 01a8 00400140 		.word	1073823744
 2049              		.cfi_endproc
 2050              	.LFE52:
 2052              		.section	.text.HAL_TIMEx_OCN_Stop_IT,"ax",%progbits
 2053              		.align	1
 2054              		.global	HAL_TIMEx_OCN_Stop_IT
 2055              		.syntax unified
 2056              		.code	16
 2057              		.thumb_func
 2059              	HAL_TIMEx_OCN_Stop_IT:
 2060              	.LFB53:
 783:Drivers/STM32F0xx_HAL_Driver/Src/stm32f0xx_hal_tim_ex.c **** 
 784:Drivers/STM32F0xx_HAL_Driver/Src/stm32f0xx_hal_tim_ex.c **** /**
 785:Drivers/STM32F0xx_HAL_Driver/Src/stm32f0xx_hal_tim_ex.c ****   * @brief  Stops the TIM Output Compare signal generation in interrupt mode
 786:Drivers/STM32F0xx_HAL_Driver/Src/stm32f0xx_hal_tim_ex.c ****   *         on the complementary output.
 787:Drivers/STM32F0xx_HAL_Driver/Src/stm32f0xx_hal_tim_ex.c ****   * @param  htim TIM Output Compare handle
 788:Drivers/STM32F0xx_HAL_Driver/Src/stm32f0xx_hal_tim_ex.c ****   * @param  Channel TIM Channel to be disabled
 789:Drivers/STM32F0xx_HAL_Driver/Src/stm32f0xx_hal_tim_ex.c ****   *          This parameter can be one of the following values:
 790:Drivers/STM32F0xx_HAL_Driver/Src/stm32f0xx_hal_tim_ex.c ****   *            @arg TIM_CHANNEL_1: TIM Channel 1 selected
 791:Drivers/STM32F0xx_HAL_Driver/Src/stm32f0xx_hal_tim_ex.c ****   *            @arg TIM_CHANNEL_2: TIM Channel 2 selected
 792:Drivers/STM32F0xx_HAL_Driver/Src/stm32f0xx_hal_tim_ex.c ****   *            @arg TIM_CHANNEL_3: TIM Channel 3 selected
 793:Drivers/STM32F0xx_HAL_Driver/Src/stm32f0xx_hal_tim_ex.c ****   * @retval HAL status
 794:Drivers/STM32F0xx_HAL_Driver/Src/stm32f0xx_hal_tim_ex.c ****   */
 795:Drivers/STM32F0xx_HAL_Driver/Src/stm32f0xx_hal_tim_ex.c **** HAL_StatusTypeDef HAL_TIMEx_OCN_Stop_IT(TIM_HandleTypeDef *htim, uint32_t Channel)
 796:Drivers/STM32F0xx_HAL_Driver/Src/stm32f0xx_hal_tim_ex.c **** {
 2061              		.loc 1 796 1
 2062              		.cfi_startproc
 2063              		@ args = 0, pretend = 0, frame = 16
 2064              		@ frame_needed = 1, uses_anonymous_args = 0
 2065 0000 80B5     		push	{r7, lr}
 2066              	.LCFI39:
 2067              		.cfi_def_cfa_offset 8
 2068              		.cfi_offset 7, -8
 2069              		.cfi_offset 14, -4
 2070 0002 84B0     		sub	sp, sp, #16
 2071              	.LCFI40:
 2072              		.cfi_def_cfa_offset 24
 2073 0004 00AF     		add	r7, sp, #0
 2074              	.LCFI41:
ARM GAS  /var/folders/d0/cymppscj10lcmm48h781wrc80000gn/T//cc0qcKWW.s 			page 51


 2075              		.cfi_def_cfa_register 7
 2076 0006 7860     		str	r0, [r7, #4]
 2077 0008 3960     		str	r1, [r7]
 797:Drivers/STM32F0xx_HAL_Driver/Src/stm32f0xx_hal_tim_ex.c ****   HAL_StatusTypeDef status = HAL_OK;
 2078              		.loc 1 797 21
 2079 000a 0F23     		movs	r3, #15
 2080 000c FB18     		adds	r3, r7, r3
 2081 000e 0022     		movs	r2, #0
 2082 0010 1A70     		strb	r2, [r3]
 798:Drivers/STM32F0xx_HAL_Driver/Src/stm32f0xx_hal_tim_ex.c ****   uint32_t tmpccer;
 799:Drivers/STM32F0xx_HAL_Driver/Src/stm32f0xx_hal_tim_ex.c **** 
 800:Drivers/STM32F0xx_HAL_Driver/Src/stm32f0xx_hal_tim_ex.c ****   /* Check the parameters */
 801:Drivers/STM32F0xx_HAL_Driver/Src/stm32f0xx_hal_tim_ex.c ****   assert_param(IS_TIM_CCXN_INSTANCE(htim->Instance, Channel));
 802:Drivers/STM32F0xx_HAL_Driver/Src/stm32f0xx_hal_tim_ex.c **** 
 803:Drivers/STM32F0xx_HAL_Driver/Src/stm32f0xx_hal_tim_ex.c ****   switch (Channel)
 2083              		.loc 1 803 3
 2084 0012 3B68     		ldr	r3, [r7]
 2085 0014 082B     		cmp	r3, #8
 2086 0016 1BD0     		beq	.L127
 2087 0018 3B68     		ldr	r3, [r7]
 2088 001a 082B     		cmp	r3, #8
 2089 001c 21D8     		bhi	.L128
 2090 001e 3B68     		ldr	r3, [r7]
 2091 0020 002B     		cmp	r3, #0
 2092 0022 03D0     		beq	.L129
 2093 0024 3B68     		ldr	r3, [r7]
 2094 0026 042B     		cmp	r3, #4
 2095 0028 09D0     		beq	.L130
 2096 002a 1AE0     		b	.L128
 2097              	.L129:
 804:Drivers/STM32F0xx_HAL_Driver/Src/stm32f0xx_hal_tim_ex.c ****   {
 805:Drivers/STM32F0xx_HAL_Driver/Src/stm32f0xx_hal_tim_ex.c ****     case TIM_CHANNEL_1:
 806:Drivers/STM32F0xx_HAL_Driver/Src/stm32f0xx_hal_tim_ex.c ****     {
 807:Drivers/STM32F0xx_HAL_Driver/Src/stm32f0xx_hal_tim_ex.c ****       /* Disable the TIM Output Compare interrupt */
 808:Drivers/STM32F0xx_HAL_Driver/Src/stm32f0xx_hal_tim_ex.c ****       __HAL_TIM_DISABLE_IT(htim, TIM_IT_CC1);
 2098              		.loc 1 808 7
 2099 002c 7B68     		ldr	r3, [r7, #4]
 2100 002e 1B68     		ldr	r3, [r3]
 2101 0030 DA68     		ldr	r2, [r3, #12]
 2102 0032 7B68     		ldr	r3, [r7, #4]
 2103 0034 1B68     		ldr	r3, [r3]
 2104 0036 0221     		movs	r1, #2
 2105 0038 8A43     		bics	r2, r1
 2106 003a DA60     		str	r2, [r3, #12]
 809:Drivers/STM32F0xx_HAL_Driver/Src/stm32f0xx_hal_tim_ex.c ****       break;
 2107              		.loc 1 809 7
 2108 003c 16E0     		b	.L131
 2109              	.L130:
 810:Drivers/STM32F0xx_HAL_Driver/Src/stm32f0xx_hal_tim_ex.c ****     }
 811:Drivers/STM32F0xx_HAL_Driver/Src/stm32f0xx_hal_tim_ex.c **** 
 812:Drivers/STM32F0xx_HAL_Driver/Src/stm32f0xx_hal_tim_ex.c ****     case TIM_CHANNEL_2:
 813:Drivers/STM32F0xx_HAL_Driver/Src/stm32f0xx_hal_tim_ex.c ****     {
 814:Drivers/STM32F0xx_HAL_Driver/Src/stm32f0xx_hal_tim_ex.c ****       /* Disable the TIM Output Compare interrupt */
 815:Drivers/STM32F0xx_HAL_Driver/Src/stm32f0xx_hal_tim_ex.c ****       __HAL_TIM_DISABLE_IT(htim, TIM_IT_CC2);
 2110              		.loc 1 815 7
 2111 003e 7B68     		ldr	r3, [r7, #4]
 2112 0040 1B68     		ldr	r3, [r3]
ARM GAS  /var/folders/d0/cymppscj10lcmm48h781wrc80000gn/T//cc0qcKWW.s 			page 52


 2113 0042 DA68     		ldr	r2, [r3, #12]
 2114 0044 7B68     		ldr	r3, [r7, #4]
 2115 0046 1B68     		ldr	r3, [r3]
 2116 0048 0421     		movs	r1, #4
 2117 004a 8A43     		bics	r2, r1
 2118 004c DA60     		str	r2, [r3, #12]
 816:Drivers/STM32F0xx_HAL_Driver/Src/stm32f0xx_hal_tim_ex.c ****       break;
 2119              		.loc 1 816 7
 2120 004e 0DE0     		b	.L131
 2121              	.L127:
 817:Drivers/STM32F0xx_HAL_Driver/Src/stm32f0xx_hal_tim_ex.c ****     }
 818:Drivers/STM32F0xx_HAL_Driver/Src/stm32f0xx_hal_tim_ex.c **** 
 819:Drivers/STM32F0xx_HAL_Driver/Src/stm32f0xx_hal_tim_ex.c ****     case TIM_CHANNEL_3:
 820:Drivers/STM32F0xx_HAL_Driver/Src/stm32f0xx_hal_tim_ex.c ****     {
 821:Drivers/STM32F0xx_HAL_Driver/Src/stm32f0xx_hal_tim_ex.c ****       /* Disable the TIM Output Compare interrupt */
 822:Drivers/STM32F0xx_HAL_Driver/Src/stm32f0xx_hal_tim_ex.c ****       __HAL_TIM_DISABLE_IT(htim, TIM_IT_CC3);
 2122              		.loc 1 822 7
 2123 0050 7B68     		ldr	r3, [r7, #4]
 2124 0052 1B68     		ldr	r3, [r3]
 2125 0054 DA68     		ldr	r2, [r3, #12]
 2126 0056 7B68     		ldr	r3, [r7, #4]
 2127 0058 1B68     		ldr	r3, [r3]
 2128 005a 0821     		movs	r1, #8
 2129 005c 8A43     		bics	r2, r1
 2130 005e DA60     		str	r2, [r3, #12]
 823:Drivers/STM32F0xx_HAL_Driver/Src/stm32f0xx_hal_tim_ex.c ****       break;
 2131              		.loc 1 823 7
 2132 0060 04E0     		b	.L131
 2133              	.L128:
 824:Drivers/STM32F0xx_HAL_Driver/Src/stm32f0xx_hal_tim_ex.c ****     }
 825:Drivers/STM32F0xx_HAL_Driver/Src/stm32f0xx_hal_tim_ex.c **** 
 826:Drivers/STM32F0xx_HAL_Driver/Src/stm32f0xx_hal_tim_ex.c ****     default:
 827:Drivers/STM32F0xx_HAL_Driver/Src/stm32f0xx_hal_tim_ex.c ****       status = HAL_ERROR;
 2134              		.loc 1 827 14
 2135 0062 0F23     		movs	r3, #15
 2136 0064 FB18     		adds	r3, r7, r3
 2137 0066 0122     		movs	r2, #1
 2138 0068 1A70     		strb	r2, [r3]
 828:Drivers/STM32F0xx_HAL_Driver/Src/stm32f0xx_hal_tim_ex.c ****       break;
 2139              		.loc 1 828 7
 2140 006a C046     		nop
 2141              	.L131:
 829:Drivers/STM32F0xx_HAL_Driver/Src/stm32f0xx_hal_tim_ex.c ****   }
 830:Drivers/STM32F0xx_HAL_Driver/Src/stm32f0xx_hal_tim_ex.c **** 
 831:Drivers/STM32F0xx_HAL_Driver/Src/stm32f0xx_hal_tim_ex.c ****   if (status == HAL_OK)
 2142              		.loc 1 831 6
 2143 006c 0F23     		movs	r3, #15
 2144 006e FB18     		adds	r3, r7, r3
 2145 0070 1B78     		ldrb	r3, [r3]
 2146 0072 002B     		cmp	r3, #0
 2147 0074 5AD1     		bne	.L132
 832:Drivers/STM32F0xx_HAL_Driver/Src/stm32f0xx_hal_tim_ex.c ****   {
 833:Drivers/STM32F0xx_HAL_Driver/Src/stm32f0xx_hal_tim_ex.c ****     /* Disable the Capture compare channel N */
 834:Drivers/STM32F0xx_HAL_Driver/Src/stm32f0xx_hal_tim_ex.c ****     TIM_CCxNChannelCmd(htim->Instance, Channel, TIM_CCxN_DISABLE);
 2148              		.loc 1 834 5
 2149 0076 7B68     		ldr	r3, [r7, #4]
 2150 0078 1B68     		ldr	r3, [r3]
ARM GAS  /var/folders/d0/cymppscj10lcmm48h781wrc80000gn/T//cc0qcKWW.s 			page 53


 2151 007a 3968     		ldr	r1, [r7]
 2152 007c 0022     		movs	r2, #0
 2153 007e 1800     		movs	r0, r3
 2154 0080 FFF7FEFF 		bl	TIM_CCxNChannelCmd
 835:Drivers/STM32F0xx_HAL_Driver/Src/stm32f0xx_hal_tim_ex.c **** 
 836:Drivers/STM32F0xx_HAL_Driver/Src/stm32f0xx_hal_tim_ex.c ****     /* Disable the TIM Break interrupt (only if no more channel is active) */
 837:Drivers/STM32F0xx_HAL_Driver/Src/stm32f0xx_hal_tim_ex.c ****     tmpccer = htim->Instance->CCER;
 2155              		.loc 1 837 19
 2156 0084 7B68     		ldr	r3, [r7, #4]
 2157 0086 1B68     		ldr	r3, [r3]
 2158              		.loc 1 837 13
 2159 0088 1B6A     		ldr	r3, [r3, #32]
 2160 008a BB60     		str	r3, [r7, #8]
 838:Drivers/STM32F0xx_HAL_Driver/Src/stm32f0xx_hal_tim_ex.c ****     if ((tmpccer & (TIM_CCER_CC1NE | TIM_CCER_CC2NE | TIM_CCER_CC3NE)) == (uint32_t)RESET)
 2161              		.loc 1 838 18
 2162 008c BB68     		ldr	r3, [r7, #8]
 2163 008e 2B4A     		ldr	r2, .L142
 2164 0090 1340     		ands	r3, r2
 2165              		.loc 1 838 8
 2166 0092 07D1     		bne	.L133
 839:Drivers/STM32F0xx_HAL_Driver/Src/stm32f0xx_hal_tim_ex.c ****     {
 840:Drivers/STM32F0xx_HAL_Driver/Src/stm32f0xx_hal_tim_ex.c ****       __HAL_TIM_DISABLE_IT(htim, TIM_IT_BREAK);
 2167              		.loc 1 840 7
 2168 0094 7B68     		ldr	r3, [r7, #4]
 2169 0096 1B68     		ldr	r3, [r3]
 2170 0098 DA68     		ldr	r2, [r3, #12]
 2171 009a 7B68     		ldr	r3, [r7, #4]
 2172 009c 1B68     		ldr	r3, [r3]
 2173 009e 8021     		movs	r1, #128
 2174 00a0 8A43     		bics	r2, r1
 2175 00a2 DA60     		str	r2, [r3, #12]
 2176              	.L133:
 841:Drivers/STM32F0xx_HAL_Driver/Src/stm32f0xx_hal_tim_ex.c ****     }
 842:Drivers/STM32F0xx_HAL_Driver/Src/stm32f0xx_hal_tim_ex.c **** 
 843:Drivers/STM32F0xx_HAL_Driver/Src/stm32f0xx_hal_tim_ex.c ****     /* Disable the Main Output */
 844:Drivers/STM32F0xx_HAL_Driver/Src/stm32f0xx_hal_tim_ex.c ****     __HAL_TIM_MOE_DISABLE(htim);
 2177              		.loc 1 844 5
 2178 00a4 7B68     		ldr	r3, [r7, #4]
 2179 00a6 1B68     		ldr	r3, [r3]
 2180 00a8 1B6A     		ldr	r3, [r3, #32]
 2181 00aa 254A     		ldr	r2, .L142+4
 2182 00ac 1340     		ands	r3, r2
 2183 00ae 0DD1     		bne	.L134
 2184              		.loc 1 844 5 is_stmt 0 discriminator 1
 2185 00b0 7B68     		ldr	r3, [r7, #4]
 2186 00b2 1B68     		ldr	r3, [r3]
 2187 00b4 1B6A     		ldr	r3, [r3, #32]
 2188 00b6 214A     		ldr	r2, .L142
 2189 00b8 1340     		ands	r3, r2
 2190 00ba 07D1     		bne	.L134
 2191              		.loc 1 844 5 discriminator 2
 2192 00bc 7B68     		ldr	r3, [r7, #4]
 2193 00be 1B68     		ldr	r3, [r3]
 2194 00c0 5A6C     		ldr	r2, [r3, #68]
 2195 00c2 7B68     		ldr	r3, [r7, #4]
 2196 00c4 1B68     		ldr	r3, [r3]
 2197 00c6 1F49     		ldr	r1, .L142+8
ARM GAS  /var/folders/d0/cymppscj10lcmm48h781wrc80000gn/T//cc0qcKWW.s 			page 54


 2198 00c8 0A40     		ands	r2, r1
 2199 00ca 5A64     		str	r2, [r3, #68]
 2200              	.L134:
 845:Drivers/STM32F0xx_HAL_Driver/Src/stm32f0xx_hal_tim_ex.c **** 
 846:Drivers/STM32F0xx_HAL_Driver/Src/stm32f0xx_hal_tim_ex.c ****     /* Disable the Peripheral */
 847:Drivers/STM32F0xx_HAL_Driver/Src/stm32f0xx_hal_tim_ex.c ****     __HAL_TIM_DISABLE(htim);
 2201              		.loc 1 847 5 is_stmt 1
 2202 00cc 7B68     		ldr	r3, [r7, #4]
 2203 00ce 1B68     		ldr	r3, [r3]
 2204 00d0 1B6A     		ldr	r3, [r3, #32]
 2205 00d2 1B4A     		ldr	r2, .L142+4
 2206 00d4 1340     		ands	r3, r2
 2207 00d6 0DD1     		bne	.L135
 2208              		.loc 1 847 5 is_stmt 0 discriminator 1
 2209 00d8 7B68     		ldr	r3, [r7, #4]
 2210 00da 1B68     		ldr	r3, [r3]
 2211 00dc 1B6A     		ldr	r3, [r3, #32]
 2212 00de 174A     		ldr	r2, .L142
 2213 00e0 1340     		ands	r3, r2
 2214 00e2 07D1     		bne	.L135
 2215              		.loc 1 847 5 discriminator 2
 2216 00e4 7B68     		ldr	r3, [r7, #4]
 2217 00e6 1B68     		ldr	r3, [r3]
 2218 00e8 1A68     		ldr	r2, [r3]
 2219 00ea 7B68     		ldr	r3, [r7, #4]
 2220 00ec 1B68     		ldr	r3, [r3]
 2221 00ee 0121     		movs	r1, #1
 2222 00f0 8A43     		bics	r2, r1
 2223 00f2 1A60     		str	r2, [r3]
 2224              	.L135:
 848:Drivers/STM32F0xx_HAL_Driver/Src/stm32f0xx_hal_tim_ex.c **** 
 849:Drivers/STM32F0xx_HAL_Driver/Src/stm32f0xx_hal_tim_ex.c ****     /* Set the TIM complementary channel state */
 850:Drivers/STM32F0xx_HAL_Driver/Src/stm32f0xx_hal_tim_ex.c ****     TIM_CHANNEL_N_STATE_SET(htim, Channel, HAL_TIM_CHANNEL_STATE_READY);
 2225              		.loc 1 850 5 is_stmt 1
 2226 00f4 3B68     		ldr	r3, [r7]
 2227 00f6 002B     		cmp	r3, #0
 2228 00f8 04D1     		bne	.L136
 2229              		.loc 1 850 5 is_stmt 0 discriminator 1
 2230 00fa 7B68     		ldr	r3, [r7, #4]
 2231 00fc 4222     		movs	r2, #66
 2232 00fe 0121     		movs	r1, #1
 2233 0100 9954     		strb	r1, [r3, r2]
 2234 0102 13E0     		b	.L132
 2235              	.L136:
 2236              		.loc 1 850 5 discriminator 2
 2237 0104 3B68     		ldr	r3, [r7]
 2238 0106 042B     		cmp	r3, #4
 2239 0108 04D1     		bne	.L137
 2240              		.loc 1 850 5 discriminator 3
 2241 010a 7B68     		ldr	r3, [r7, #4]
 2242 010c 4322     		movs	r2, #67
 2243 010e 0121     		movs	r1, #1
 2244 0110 9954     		strb	r1, [r3, r2]
 2245 0112 0BE0     		b	.L132
 2246              	.L137:
 2247              		.loc 1 850 5 discriminator 4
 2248 0114 3B68     		ldr	r3, [r7]
ARM GAS  /var/folders/d0/cymppscj10lcmm48h781wrc80000gn/T//cc0qcKWW.s 			page 55


 2249 0116 082B     		cmp	r3, #8
 2250 0118 04D1     		bne	.L139
 2251              		.loc 1 850 5 discriminator 6
 2252 011a 7B68     		ldr	r3, [r7, #4]
 2253 011c 4422     		movs	r2, #68
 2254 011e 0121     		movs	r1, #1
 2255 0120 9954     		strb	r1, [r3, r2]
 2256 0122 03E0     		b	.L132
 2257              	.L139:
 2258              		.loc 1 850 5 discriminator 7
 2259 0124 7B68     		ldr	r3, [r7, #4]
 2260 0126 4522     		movs	r2, #69
 2261 0128 0121     		movs	r1, #1
 2262 012a 9954     		strb	r1, [r3, r2]
 2263              	.L132:
 851:Drivers/STM32F0xx_HAL_Driver/Src/stm32f0xx_hal_tim_ex.c ****   }
 852:Drivers/STM32F0xx_HAL_Driver/Src/stm32f0xx_hal_tim_ex.c **** 
 853:Drivers/STM32F0xx_HAL_Driver/Src/stm32f0xx_hal_tim_ex.c ****   /* Return function status */
 854:Drivers/STM32F0xx_HAL_Driver/Src/stm32f0xx_hal_tim_ex.c ****   return status;
 2264              		.loc 1 854 10 is_stmt 1
 2265 012c 0F23     		movs	r3, #15
 2266 012e FB18     		adds	r3, r7, r3
 2267 0130 1B78     		ldrb	r3, [r3]
 855:Drivers/STM32F0xx_HAL_Driver/Src/stm32f0xx_hal_tim_ex.c **** }
 2268              		.loc 1 855 1
 2269 0132 1800     		movs	r0, r3
 2270 0134 BD46     		mov	sp, r7
 2271 0136 04B0     		add	sp, sp, #16
 2272              		@ sp needed
 2273 0138 80BD     		pop	{r7, pc}
 2274              	.L143:
 2275 013a C046     		.align	2
 2276              	.L142:
 2277 013c 44040000 		.word	1092
 2278 0140 11110000 		.word	4369
 2279 0144 FF7FFFFF 		.word	-32769
 2280              		.cfi_endproc
 2281              	.LFE53:
 2283              		.section	.text.HAL_TIMEx_OCN_Start_DMA,"ax",%progbits
 2284              		.align	1
 2285              		.global	HAL_TIMEx_OCN_Start_DMA
 2286              		.syntax unified
 2287              		.code	16
 2288              		.thumb_func
 2290              	HAL_TIMEx_OCN_Start_DMA:
 2291              	.LFB54:
 856:Drivers/STM32F0xx_HAL_Driver/Src/stm32f0xx_hal_tim_ex.c **** 
 857:Drivers/STM32F0xx_HAL_Driver/Src/stm32f0xx_hal_tim_ex.c **** /**
 858:Drivers/STM32F0xx_HAL_Driver/Src/stm32f0xx_hal_tim_ex.c ****   * @brief  Starts the TIM Output Compare signal generation in DMA mode
 859:Drivers/STM32F0xx_HAL_Driver/Src/stm32f0xx_hal_tim_ex.c ****   *         on the complementary output.
 860:Drivers/STM32F0xx_HAL_Driver/Src/stm32f0xx_hal_tim_ex.c ****   * @param  htim TIM Output Compare handle
 861:Drivers/STM32F0xx_HAL_Driver/Src/stm32f0xx_hal_tim_ex.c ****   * @param  Channel TIM Channel to be enabled
 862:Drivers/STM32F0xx_HAL_Driver/Src/stm32f0xx_hal_tim_ex.c ****   *          This parameter can be one of the following values:
 863:Drivers/STM32F0xx_HAL_Driver/Src/stm32f0xx_hal_tim_ex.c ****   *            @arg TIM_CHANNEL_1: TIM Channel 1 selected
 864:Drivers/STM32F0xx_HAL_Driver/Src/stm32f0xx_hal_tim_ex.c ****   *            @arg TIM_CHANNEL_2: TIM Channel 2 selected
 865:Drivers/STM32F0xx_HAL_Driver/Src/stm32f0xx_hal_tim_ex.c ****   *            @arg TIM_CHANNEL_3: TIM Channel 3 selected
 866:Drivers/STM32F0xx_HAL_Driver/Src/stm32f0xx_hal_tim_ex.c ****   * @param  pData The source Buffer address.
ARM GAS  /var/folders/d0/cymppscj10lcmm48h781wrc80000gn/T//cc0qcKWW.s 			page 56


 867:Drivers/STM32F0xx_HAL_Driver/Src/stm32f0xx_hal_tim_ex.c ****   * @param  Length The length of data to be transferred from memory to TIM peripheral
 868:Drivers/STM32F0xx_HAL_Driver/Src/stm32f0xx_hal_tim_ex.c ****   * @retval HAL status
 869:Drivers/STM32F0xx_HAL_Driver/Src/stm32f0xx_hal_tim_ex.c ****   */
 870:Drivers/STM32F0xx_HAL_Driver/Src/stm32f0xx_hal_tim_ex.c **** HAL_StatusTypeDef HAL_TIMEx_OCN_Start_DMA(TIM_HandleTypeDef *htim, uint32_t Channel, uint32_t *pDat
 871:Drivers/STM32F0xx_HAL_Driver/Src/stm32f0xx_hal_tim_ex.c **** {
 2292              		.loc 1 871 1
 2293              		.cfi_startproc
 2294              		@ args = 0, pretend = 0, frame = 24
 2295              		@ frame_needed = 1, uses_anonymous_args = 0
 2296 0000 80B5     		push	{r7, lr}
 2297              	.LCFI42:
 2298              		.cfi_def_cfa_offset 8
 2299              		.cfi_offset 7, -8
 2300              		.cfi_offset 14, -4
 2301 0002 86B0     		sub	sp, sp, #24
 2302              	.LCFI43:
 2303              		.cfi_def_cfa_offset 32
 2304 0004 00AF     		add	r7, sp, #0
 2305              	.LCFI44:
 2306              		.cfi_def_cfa_register 7
 2307 0006 F860     		str	r0, [r7, #12]
 2308 0008 B960     		str	r1, [r7, #8]
 2309 000a 7A60     		str	r2, [r7, #4]
 2310 000c 1A00     		movs	r2, r3
 2311 000e BB1C     		adds	r3, r7, #2
 2312 0010 1A80     		strh	r2, [r3]
 872:Drivers/STM32F0xx_HAL_Driver/Src/stm32f0xx_hal_tim_ex.c ****   HAL_StatusTypeDef status = HAL_OK;
 2313              		.loc 1 872 21
 2314 0012 1723     		movs	r3, #23
 2315 0014 FB18     		adds	r3, r7, r3
 2316 0016 0022     		movs	r2, #0
 2317 0018 1A70     		strb	r2, [r3]
 873:Drivers/STM32F0xx_HAL_Driver/Src/stm32f0xx_hal_tim_ex.c ****   uint32_t tmpsmcr;
 874:Drivers/STM32F0xx_HAL_Driver/Src/stm32f0xx_hal_tim_ex.c **** 
 875:Drivers/STM32F0xx_HAL_Driver/Src/stm32f0xx_hal_tim_ex.c ****   /* Check the parameters */
 876:Drivers/STM32F0xx_HAL_Driver/Src/stm32f0xx_hal_tim_ex.c ****   assert_param(IS_TIM_CCXN_INSTANCE(htim->Instance, Channel));
 877:Drivers/STM32F0xx_HAL_Driver/Src/stm32f0xx_hal_tim_ex.c **** 
 878:Drivers/STM32F0xx_HAL_Driver/Src/stm32f0xx_hal_tim_ex.c ****   /* Set the TIM complementary channel state */
 879:Drivers/STM32F0xx_HAL_Driver/Src/stm32f0xx_hal_tim_ex.c ****   if (TIM_CHANNEL_N_STATE_GET(htim, Channel) == HAL_TIM_CHANNEL_STATE_BUSY)
 2318              		.loc 1 879 46
 2319 001a BB68     		ldr	r3, [r7, #8]
 2320 001c 002B     		cmp	r3, #0
 2321 001e 08D1     		bne	.L145
 2322              		.loc 1 879 7 discriminator 1
 2323 0020 FB68     		ldr	r3, [r7, #12]
 2324 0022 4222     		movs	r2, #66
 2325 0024 9B5C     		ldrb	r3, [r3, r2]
 2326 0026 DBB2     		uxtb	r3, r3
 2327              		.loc 1 879 46 discriminator 1
 2328 0028 023B     		subs	r3, r3, #2
 2329 002a 5A42     		rsbs	r2, r3, #0
 2330 002c 5341     		adcs	r3, r3, r2
 2331 002e DBB2     		uxtb	r3, r3
 2332 0030 1FE0     		b	.L146
 2333              	.L145:
 2334              		.loc 1 879 46 is_stmt 0 discriminator 2
 2335 0032 BB68     		ldr	r3, [r7, #8]
ARM GAS  /var/folders/d0/cymppscj10lcmm48h781wrc80000gn/T//cc0qcKWW.s 			page 57


 2336 0034 042B     		cmp	r3, #4
 2337 0036 08D1     		bne	.L147
 2338              		.loc 1 879 7 is_stmt 1 discriminator 4
 2339 0038 FB68     		ldr	r3, [r7, #12]
 2340 003a 4322     		movs	r2, #67
 2341 003c 9B5C     		ldrb	r3, [r3, r2]
 2342 003e DBB2     		uxtb	r3, r3
 2343              		.loc 1 879 46 discriminator 4
 2344 0040 023B     		subs	r3, r3, #2
 2345 0042 5A42     		rsbs	r2, r3, #0
 2346 0044 5341     		adcs	r3, r3, r2
 2347 0046 DBB2     		uxtb	r3, r3
 2348 0048 13E0     		b	.L146
 2349              	.L147:
 2350              		.loc 1 879 46 is_stmt 0 discriminator 5
 2351 004a BB68     		ldr	r3, [r7, #8]
 2352 004c 082B     		cmp	r3, #8
 2353 004e 08D1     		bne	.L149
 2354              		.loc 1 879 7 is_stmt 1 discriminator 7
 2355 0050 FB68     		ldr	r3, [r7, #12]
 2356 0052 4422     		movs	r2, #68
 2357 0054 9B5C     		ldrb	r3, [r3, r2]
 2358 0056 DBB2     		uxtb	r3, r3
 2359              		.loc 1 879 46 discriminator 7
 2360 0058 023B     		subs	r3, r3, #2
 2361 005a 5A42     		rsbs	r2, r3, #0
 2362 005c 5341     		adcs	r3, r3, r2
 2363 005e DBB2     		uxtb	r3, r3
 2364 0060 07E0     		b	.L146
 2365              	.L149:
 2366              		.loc 1 879 7 discriminator 8
 2367 0062 FB68     		ldr	r3, [r7, #12]
 2368 0064 4522     		movs	r2, #69
 2369 0066 9B5C     		ldrb	r3, [r3, r2]
 2370 0068 DBB2     		uxtb	r3, r3
 2371              		.loc 1 879 46 discriminator 8
 2372 006a 023B     		subs	r3, r3, #2
 2373 006c 5A42     		rsbs	r2, r3, #0
 2374 006e 5341     		adcs	r3, r3, r2
 2375 0070 DBB2     		uxtb	r3, r3
 2376              	.L146:
 2377              		.loc 1 879 6 discriminator 12
 2378 0072 002B     		cmp	r3, #0
 2379 0074 01D0     		beq	.L151
 880:Drivers/STM32F0xx_HAL_Driver/Src/stm32f0xx_hal_tim_ex.c ****   {
 881:Drivers/STM32F0xx_HAL_Driver/Src/stm32f0xx_hal_tim_ex.c ****     return HAL_BUSY;
 2380              		.loc 1 881 12
 2381 0076 0223     		movs	r3, #2
 2382 0078 18E1     		b	.L152
 2383              	.L151:
 882:Drivers/STM32F0xx_HAL_Driver/Src/stm32f0xx_hal_tim_ex.c ****   }
 883:Drivers/STM32F0xx_HAL_Driver/Src/stm32f0xx_hal_tim_ex.c ****   else if (TIM_CHANNEL_N_STATE_GET(htim, Channel) == HAL_TIM_CHANNEL_STATE_READY)
 2384              		.loc 1 883 51
 2385 007a BB68     		ldr	r3, [r7, #8]
 2386 007c 002B     		cmp	r3, #0
 2387 007e 08D1     		bne	.L153
 2388              		.loc 1 883 12 discriminator 1
ARM GAS  /var/folders/d0/cymppscj10lcmm48h781wrc80000gn/T//cc0qcKWW.s 			page 58


 2389 0080 FB68     		ldr	r3, [r7, #12]
 2390 0082 4222     		movs	r2, #66
 2391 0084 9B5C     		ldrb	r3, [r3, r2]
 2392 0086 DBB2     		uxtb	r3, r3
 2393              		.loc 1 883 51 discriminator 1
 2394 0088 013B     		subs	r3, r3, #1
 2395 008a 5A42     		rsbs	r2, r3, #0
 2396 008c 5341     		adcs	r3, r3, r2
 2397 008e DBB2     		uxtb	r3, r3
 2398 0090 1FE0     		b	.L154
 2399              	.L153:
 2400              		.loc 1 883 51 is_stmt 0 discriminator 2
 2401 0092 BB68     		ldr	r3, [r7, #8]
 2402 0094 042B     		cmp	r3, #4
 2403 0096 08D1     		bne	.L155
 2404              		.loc 1 883 12 is_stmt 1 discriminator 4
 2405 0098 FB68     		ldr	r3, [r7, #12]
 2406 009a 4322     		movs	r2, #67
 2407 009c 9B5C     		ldrb	r3, [r3, r2]
 2408 009e DBB2     		uxtb	r3, r3
 2409              		.loc 1 883 51 discriminator 4
 2410 00a0 013B     		subs	r3, r3, #1
 2411 00a2 5A42     		rsbs	r2, r3, #0
 2412 00a4 5341     		adcs	r3, r3, r2
 2413 00a6 DBB2     		uxtb	r3, r3
 2414 00a8 13E0     		b	.L154
 2415              	.L155:
 2416              		.loc 1 883 51 is_stmt 0 discriminator 5
 2417 00aa BB68     		ldr	r3, [r7, #8]
 2418 00ac 082B     		cmp	r3, #8
 2419 00ae 08D1     		bne	.L157
 2420              		.loc 1 883 12 is_stmt 1 discriminator 7
 2421 00b0 FB68     		ldr	r3, [r7, #12]
 2422 00b2 4422     		movs	r2, #68
 2423 00b4 9B5C     		ldrb	r3, [r3, r2]
 2424 00b6 DBB2     		uxtb	r3, r3
 2425              		.loc 1 883 51 discriminator 7
 2426 00b8 013B     		subs	r3, r3, #1
 2427 00ba 5A42     		rsbs	r2, r3, #0
 2428 00bc 5341     		adcs	r3, r3, r2
 2429 00be DBB2     		uxtb	r3, r3
 2430 00c0 07E0     		b	.L154
 2431              	.L157:
 2432              		.loc 1 883 12 discriminator 8
 2433 00c2 FB68     		ldr	r3, [r7, #12]
 2434 00c4 4522     		movs	r2, #69
 2435 00c6 9B5C     		ldrb	r3, [r3, r2]
 2436 00c8 DBB2     		uxtb	r3, r3
 2437              		.loc 1 883 51 discriminator 8
 2438 00ca 013B     		subs	r3, r3, #1
 2439 00cc 5A42     		rsbs	r2, r3, #0
 2440 00ce 5341     		adcs	r3, r3, r2
 2441 00d0 DBB2     		uxtb	r3, r3
 2442              	.L154:
 2443              		.loc 1 883 11 discriminator 12
 2444 00d2 002B     		cmp	r3, #0
 2445 00d4 25D0     		beq	.L159
ARM GAS  /var/folders/d0/cymppscj10lcmm48h781wrc80000gn/T//cc0qcKWW.s 			page 59


 884:Drivers/STM32F0xx_HAL_Driver/Src/stm32f0xx_hal_tim_ex.c ****   {
 885:Drivers/STM32F0xx_HAL_Driver/Src/stm32f0xx_hal_tim_ex.c ****     if ((pData == NULL) && (Length > 0U))
 2446              		.loc 1 885 8
 2447 00d6 7B68     		ldr	r3, [r7, #4]
 2448 00d8 002B     		cmp	r3, #0
 2449 00da 05D1     		bne	.L160
 2450              		.loc 1 885 25 discriminator 1
 2451 00dc BB1C     		adds	r3, r7, #2
 2452 00de 1B88     		ldrh	r3, [r3]
 2453 00e0 002B     		cmp	r3, #0
 2454 00e2 01D0     		beq	.L160
 886:Drivers/STM32F0xx_HAL_Driver/Src/stm32f0xx_hal_tim_ex.c ****     {
 887:Drivers/STM32F0xx_HAL_Driver/Src/stm32f0xx_hal_tim_ex.c ****       return HAL_ERROR;
 2455              		.loc 1 887 14
 2456 00e4 0123     		movs	r3, #1
 2457 00e6 E1E0     		b	.L152
 2458              	.L160:
 888:Drivers/STM32F0xx_HAL_Driver/Src/stm32f0xx_hal_tim_ex.c ****     }
 889:Drivers/STM32F0xx_HAL_Driver/Src/stm32f0xx_hal_tim_ex.c ****     else
 890:Drivers/STM32F0xx_HAL_Driver/Src/stm32f0xx_hal_tim_ex.c ****     {
 891:Drivers/STM32F0xx_HAL_Driver/Src/stm32f0xx_hal_tim_ex.c ****       TIM_CHANNEL_N_STATE_SET(htim, Channel, HAL_TIM_CHANNEL_STATE_BUSY);
 2459              		.loc 1 891 7
 2460 00e8 BB68     		ldr	r3, [r7, #8]
 2461 00ea 002B     		cmp	r3, #0
 2462 00ec 04D1     		bne	.L161
 2463              		.loc 1 891 7 is_stmt 0 discriminator 1
 2464 00ee FB68     		ldr	r3, [r7, #12]
 2465 00f0 4222     		movs	r2, #66
 2466 00f2 0221     		movs	r1, #2
 2467 00f4 9954     		strb	r1, [r3, r2]
 2468 00f6 16E0     		b	.L162
 2469              	.L161:
 2470              		.loc 1 891 7 discriminator 2
 2471 00f8 BB68     		ldr	r3, [r7, #8]
 2472 00fa 042B     		cmp	r3, #4
 2473 00fc 04D1     		bne	.L163
 2474              		.loc 1 891 7 discriminator 3
 2475 00fe FB68     		ldr	r3, [r7, #12]
 2476 0100 4322     		movs	r2, #67
 2477 0102 0221     		movs	r1, #2
 2478 0104 9954     		strb	r1, [r3, r2]
 2479 0106 0EE0     		b	.L162
 2480              	.L163:
 2481              		.loc 1 891 7 discriminator 4
 2482 0108 BB68     		ldr	r3, [r7, #8]
 2483 010a 082B     		cmp	r3, #8
 2484 010c 04D1     		bne	.L165
 2485              		.loc 1 891 7 discriminator 6
 2486 010e FB68     		ldr	r3, [r7, #12]
 2487 0110 4422     		movs	r2, #68
 2488 0112 0221     		movs	r1, #2
 2489 0114 9954     		strb	r1, [r3, r2]
 2490 0116 06E0     		b	.L162
 2491              	.L165:
 2492              		.loc 1 891 7 discriminator 7
 2493 0118 FB68     		ldr	r3, [r7, #12]
 2494 011a 4522     		movs	r2, #69
ARM GAS  /var/folders/d0/cymppscj10lcmm48h781wrc80000gn/T//cc0qcKWW.s 			page 60


 2495 011c 0221     		movs	r1, #2
 2496 011e 9954     		strb	r1, [r3, r2]
 2497 0120 01E0     		b	.L162
 2498              	.L159:
 892:Drivers/STM32F0xx_HAL_Driver/Src/stm32f0xx_hal_tim_ex.c ****     }
 893:Drivers/STM32F0xx_HAL_Driver/Src/stm32f0xx_hal_tim_ex.c ****   }
 894:Drivers/STM32F0xx_HAL_Driver/Src/stm32f0xx_hal_tim_ex.c ****   else
 895:Drivers/STM32F0xx_HAL_Driver/Src/stm32f0xx_hal_tim_ex.c ****   {
 896:Drivers/STM32F0xx_HAL_Driver/Src/stm32f0xx_hal_tim_ex.c ****     return HAL_ERROR;
 2499              		.loc 1 896 12 is_stmt 1
 2500 0122 0123     		movs	r3, #1
 2501 0124 C2E0     		b	.L152
 2502              	.L162:
 897:Drivers/STM32F0xx_HAL_Driver/Src/stm32f0xx_hal_tim_ex.c ****   }
 898:Drivers/STM32F0xx_HAL_Driver/Src/stm32f0xx_hal_tim_ex.c **** 
 899:Drivers/STM32F0xx_HAL_Driver/Src/stm32f0xx_hal_tim_ex.c ****   switch (Channel)
 2503              		.loc 1 899 3
 2504 0126 BB68     		ldr	r3, [r7, #8]
 2505 0128 082B     		cmp	r3, #8
 2506 012a 54D0     		beq	.L167
 2507 012c BB68     		ldr	r3, [r7, #8]
 2508 012e 082B     		cmp	r3, #8
 2509 0130 00D9     		bls	.LCB2204
 2510 0132 75E0     		b	.L168	@long jump
 2511              	.LCB2204:
 2512 0134 BB68     		ldr	r3, [r7, #8]
 2513 0136 002B     		cmp	r3, #0
 2514 0138 03D0     		beq	.L169
 2515 013a BB68     		ldr	r3, [r7, #8]
 2516 013c 042B     		cmp	r3, #4
 2517 013e 25D0     		beq	.L170
 2518 0140 6EE0     		b	.L168
 2519              	.L169:
 900:Drivers/STM32F0xx_HAL_Driver/Src/stm32f0xx_hal_tim_ex.c ****   {
 901:Drivers/STM32F0xx_HAL_Driver/Src/stm32f0xx_hal_tim_ex.c ****     case TIM_CHANNEL_1:
 902:Drivers/STM32F0xx_HAL_Driver/Src/stm32f0xx_hal_tim_ex.c ****     {
 903:Drivers/STM32F0xx_HAL_Driver/Src/stm32f0xx_hal_tim_ex.c ****       /* Set the DMA compare callbacks */
 904:Drivers/STM32F0xx_HAL_Driver/Src/stm32f0xx_hal_tim_ex.c ****       htim->hdma[TIM_DMA_ID_CC1]->XferCpltCallback = TIM_DMADelayPulseNCplt;
 2520              		.loc 1 904 17
 2521 0142 FB68     		ldr	r3, [r7, #12]
 2522 0144 5B6A     		ldr	r3, [r3, #36]
 2523              		.loc 1 904 52
 2524 0146 5B4A     		ldr	r2, .L179
 2525 0148 9A62     		str	r2, [r3, #40]
 905:Drivers/STM32F0xx_HAL_Driver/Src/stm32f0xx_hal_tim_ex.c ****       htim->hdma[TIM_DMA_ID_CC1]->XferHalfCpltCallback = TIM_DMADelayPulseHalfCplt;
 2526              		.loc 1 905 17
 2527 014a FB68     		ldr	r3, [r7, #12]
 2528 014c 5B6A     		ldr	r3, [r3, #36]
 2529              		.loc 1 905 56
 2530 014e 5A4A     		ldr	r2, .L179+4
 2531 0150 DA62     		str	r2, [r3, #44]
 906:Drivers/STM32F0xx_HAL_Driver/Src/stm32f0xx_hal_tim_ex.c **** 
 907:Drivers/STM32F0xx_HAL_Driver/Src/stm32f0xx_hal_tim_ex.c ****       /* Set the DMA error callback */
 908:Drivers/STM32F0xx_HAL_Driver/Src/stm32f0xx_hal_tim_ex.c ****       htim->hdma[TIM_DMA_ID_CC1]->XferErrorCallback = TIM_DMAErrorCCxN ;
 2532              		.loc 1 908 17
 2533 0152 FB68     		ldr	r3, [r7, #12]
 2534 0154 5B6A     		ldr	r3, [r3, #36]
ARM GAS  /var/folders/d0/cymppscj10lcmm48h781wrc80000gn/T//cc0qcKWW.s 			page 61


 2535              		.loc 1 908 53
 2536 0156 594A     		ldr	r2, .L179+8
 2537 0158 1A63     		str	r2, [r3, #48]
 909:Drivers/STM32F0xx_HAL_Driver/Src/stm32f0xx_hal_tim_ex.c **** 
 910:Drivers/STM32F0xx_HAL_Driver/Src/stm32f0xx_hal_tim_ex.c ****       /* Enable the DMA channel */
 911:Drivers/STM32F0xx_HAL_Driver/Src/stm32f0xx_hal_tim_ex.c ****       if (HAL_DMA_Start_IT(htim->hdma[TIM_DMA_ID_CC1], (uint32_t)pData, (uint32_t)&htim->Instance->
 2538              		.loc 1 911 11
 2539 015a FB68     		ldr	r3, [r7, #12]
 2540 015c 586A     		ldr	r0, [r3, #36]
 2541 015e 7968     		ldr	r1, [r7, #4]
 2542              		.loc 1 911 88
 2543 0160 FB68     		ldr	r3, [r7, #12]
 2544 0162 1B68     		ldr	r3, [r3]
 2545              		.loc 1 911 83
 2546 0164 3433     		adds	r3, r3, #52
 2547              		.loc 1 911 11
 2548 0166 1A00     		movs	r2, r3
 2549 0168 BB1C     		adds	r3, r7, #2
 2550 016a 1B88     		ldrh	r3, [r3]
 2551 016c FFF7FEFF 		bl	HAL_DMA_Start_IT
 2552 0170 031E     		subs	r3, r0, #0
 2553              		.loc 1 911 10
 2554 0172 01D0     		beq	.L171
 912:Drivers/STM32F0xx_HAL_Driver/Src/stm32f0xx_hal_tim_ex.c ****                            Length) != HAL_OK)
 913:Drivers/STM32F0xx_HAL_Driver/Src/stm32f0xx_hal_tim_ex.c ****       {
 914:Drivers/STM32F0xx_HAL_Driver/Src/stm32f0xx_hal_tim_ex.c ****         /* Return error status */
 915:Drivers/STM32F0xx_HAL_Driver/Src/stm32f0xx_hal_tim_ex.c ****         return HAL_ERROR;
 2555              		.loc 1 915 16
 2556 0174 0123     		movs	r3, #1
 2557 0176 99E0     		b	.L152
 2558              	.L171:
 916:Drivers/STM32F0xx_HAL_Driver/Src/stm32f0xx_hal_tim_ex.c ****       }
 917:Drivers/STM32F0xx_HAL_Driver/Src/stm32f0xx_hal_tim_ex.c ****       /* Enable the TIM Output Compare DMA request */
 918:Drivers/STM32F0xx_HAL_Driver/Src/stm32f0xx_hal_tim_ex.c ****       __HAL_TIM_ENABLE_DMA(htim, TIM_DMA_CC1);
 2559              		.loc 1 918 7
 2560 0178 FB68     		ldr	r3, [r7, #12]
 2561 017a 1B68     		ldr	r3, [r3]
 2562 017c DA68     		ldr	r2, [r3, #12]
 2563 017e FB68     		ldr	r3, [r7, #12]
 2564 0180 1B68     		ldr	r3, [r3]
 2565 0182 8021     		movs	r1, #128
 2566 0184 8900     		lsls	r1, r1, #2
 2567 0186 0A43     		orrs	r2, r1
 2568 0188 DA60     		str	r2, [r3, #12]
 919:Drivers/STM32F0xx_HAL_Driver/Src/stm32f0xx_hal_tim_ex.c ****       break;
 2569              		.loc 1 919 7
 2570 018a 4EE0     		b	.L172
 2571              	.L170:
 920:Drivers/STM32F0xx_HAL_Driver/Src/stm32f0xx_hal_tim_ex.c ****     }
 921:Drivers/STM32F0xx_HAL_Driver/Src/stm32f0xx_hal_tim_ex.c **** 
 922:Drivers/STM32F0xx_HAL_Driver/Src/stm32f0xx_hal_tim_ex.c ****     case TIM_CHANNEL_2:
 923:Drivers/STM32F0xx_HAL_Driver/Src/stm32f0xx_hal_tim_ex.c ****     {
 924:Drivers/STM32F0xx_HAL_Driver/Src/stm32f0xx_hal_tim_ex.c ****       /* Set the DMA compare callbacks */
 925:Drivers/STM32F0xx_HAL_Driver/Src/stm32f0xx_hal_tim_ex.c ****       htim->hdma[TIM_DMA_ID_CC2]->XferCpltCallback = TIM_DMADelayPulseNCplt;
 2572              		.loc 1 925 17
 2573 018c FB68     		ldr	r3, [r7, #12]
 2574 018e 9B6A     		ldr	r3, [r3, #40]
ARM GAS  /var/folders/d0/cymppscj10lcmm48h781wrc80000gn/T//cc0qcKWW.s 			page 62


 2575              		.loc 1 925 52
 2576 0190 484A     		ldr	r2, .L179
 2577 0192 9A62     		str	r2, [r3, #40]
 926:Drivers/STM32F0xx_HAL_Driver/Src/stm32f0xx_hal_tim_ex.c ****       htim->hdma[TIM_DMA_ID_CC2]->XferHalfCpltCallback = TIM_DMADelayPulseHalfCplt;
 2578              		.loc 1 926 17
 2579 0194 FB68     		ldr	r3, [r7, #12]
 2580 0196 9B6A     		ldr	r3, [r3, #40]
 2581              		.loc 1 926 56
 2582 0198 474A     		ldr	r2, .L179+4
 2583 019a DA62     		str	r2, [r3, #44]
 927:Drivers/STM32F0xx_HAL_Driver/Src/stm32f0xx_hal_tim_ex.c **** 
 928:Drivers/STM32F0xx_HAL_Driver/Src/stm32f0xx_hal_tim_ex.c ****       /* Set the DMA error callback */
 929:Drivers/STM32F0xx_HAL_Driver/Src/stm32f0xx_hal_tim_ex.c ****       htim->hdma[TIM_DMA_ID_CC2]->XferErrorCallback = TIM_DMAErrorCCxN ;
 2584              		.loc 1 929 17
 2585 019c FB68     		ldr	r3, [r7, #12]
 2586 019e 9B6A     		ldr	r3, [r3, #40]
 2587              		.loc 1 929 53
 2588 01a0 464A     		ldr	r2, .L179+8
 2589 01a2 1A63     		str	r2, [r3, #48]
 930:Drivers/STM32F0xx_HAL_Driver/Src/stm32f0xx_hal_tim_ex.c **** 
 931:Drivers/STM32F0xx_HAL_Driver/Src/stm32f0xx_hal_tim_ex.c ****       /* Enable the DMA channel */
 932:Drivers/STM32F0xx_HAL_Driver/Src/stm32f0xx_hal_tim_ex.c ****       if (HAL_DMA_Start_IT(htim->hdma[TIM_DMA_ID_CC2], (uint32_t)pData, (uint32_t)&htim->Instance->
 2590              		.loc 1 932 11
 2591 01a4 FB68     		ldr	r3, [r7, #12]
 2592 01a6 986A     		ldr	r0, [r3, #40]
 2593 01a8 7968     		ldr	r1, [r7, #4]
 2594              		.loc 1 932 88
 2595 01aa FB68     		ldr	r3, [r7, #12]
 2596 01ac 1B68     		ldr	r3, [r3]
 2597              		.loc 1 932 83
 2598 01ae 3833     		adds	r3, r3, #56
 2599              		.loc 1 932 11
 2600 01b0 1A00     		movs	r2, r3
 2601 01b2 BB1C     		adds	r3, r7, #2
 2602 01b4 1B88     		ldrh	r3, [r3]
 2603 01b6 FFF7FEFF 		bl	HAL_DMA_Start_IT
 2604 01ba 031E     		subs	r3, r0, #0
 2605              		.loc 1 932 10
 2606 01bc 01D0     		beq	.L173
 933:Drivers/STM32F0xx_HAL_Driver/Src/stm32f0xx_hal_tim_ex.c ****                            Length) != HAL_OK)
 934:Drivers/STM32F0xx_HAL_Driver/Src/stm32f0xx_hal_tim_ex.c ****       {
 935:Drivers/STM32F0xx_HAL_Driver/Src/stm32f0xx_hal_tim_ex.c ****         /* Return error status */
 936:Drivers/STM32F0xx_HAL_Driver/Src/stm32f0xx_hal_tim_ex.c ****         return HAL_ERROR;
 2607              		.loc 1 936 16
 2608 01be 0123     		movs	r3, #1
 2609 01c0 74E0     		b	.L152
 2610              	.L173:
 937:Drivers/STM32F0xx_HAL_Driver/Src/stm32f0xx_hal_tim_ex.c ****       }
 938:Drivers/STM32F0xx_HAL_Driver/Src/stm32f0xx_hal_tim_ex.c ****       /* Enable the TIM Output Compare DMA request */
 939:Drivers/STM32F0xx_HAL_Driver/Src/stm32f0xx_hal_tim_ex.c ****       __HAL_TIM_ENABLE_DMA(htim, TIM_DMA_CC2);
 2611              		.loc 1 939 7
 2612 01c2 FB68     		ldr	r3, [r7, #12]
 2613 01c4 1B68     		ldr	r3, [r3]
 2614 01c6 DA68     		ldr	r2, [r3, #12]
 2615 01c8 FB68     		ldr	r3, [r7, #12]
 2616 01ca 1B68     		ldr	r3, [r3]
 2617 01cc 8021     		movs	r1, #128
ARM GAS  /var/folders/d0/cymppscj10lcmm48h781wrc80000gn/T//cc0qcKWW.s 			page 63


 2618 01ce C900     		lsls	r1, r1, #3
 2619 01d0 0A43     		orrs	r2, r1
 2620 01d2 DA60     		str	r2, [r3, #12]
 940:Drivers/STM32F0xx_HAL_Driver/Src/stm32f0xx_hal_tim_ex.c ****       break;
 2621              		.loc 1 940 7
 2622 01d4 29E0     		b	.L172
 2623              	.L167:
 941:Drivers/STM32F0xx_HAL_Driver/Src/stm32f0xx_hal_tim_ex.c ****     }
 942:Drivers/STM32F0xx_HAL_Driver/Src/stm32f0xx_hal_tim_ex.c **** 
 943:Drivers/STM32F0xx_HAL_Driver/Src/stm32f0xx_hal_tim_ex.c ****     case TIM_CHANNEL_3:
 944:Drivers/STM32F0xx_HAL_Driver/Src/stm32f0xx_hal_tim_ex.c ****     {
 945:Drivers/STM32F0xx_HAL_Driver/Src/stm32f0xx_hal_tim_ex.c ****       /* Set the DMA compare callbacks */
 946:Drivers/STM32F0xx_HAL_Driver/Src/stm32f0xx_hal_tim_ex.c ****       htim->hdma[TIM_DMA_ID_CC3]->XferCpltCallback = TIM_DMADelayPulseNCplt;
 2624              		.loc 1 946 17
 2625 01d6 FB68     		ldr	r3, [r7, #12]
 2626 01d8 DB6A     		ldr	r3, [r3, #44]
 2627              		.loc 1 946 52
 2628 01da 364A     		ldr	r2, .L179
 2629 01dc 9A62     		str	r2, [r3, #40]
 947:Drivers/STM32F0xx_HAL_Driver/Src/stm32f0xx_hal_tim_ex.c ****       htim->hdma[TIM_DMA_ID_CC3]->XferHalfCpltCallback = TIM_DMADelayPulseHalfCplt;
 2630              		.loc 1 947 17
 2631 01de FB68     		ldr	r3, [r7, #12]
 2632 01e0 DB6A     		ldr	r3, [r3, #44]
 2633              		.loc 1 947 56
 2634 01e2 354A     		ldr	r2, .L179+4
 2635 01e4 DA62     		str	r2, [r3, #44]
 948:Drivers/STM32F0xx_HAL_Driver/Src/stm32f0xx_hal_tim_ex.c **** 
 949:Drivers/STM32F0xx_HAL_Driver/Src/stm32f0xx_hal_tim_ex.c ****       /* Set the DMA error callback */
 950:Drivers/STM32F0xx_HAL_Driver/Src/stm32f0xx_hal_tim_ex.c ****       htim->hdma[TIM_DMA_ID_CC3]->XferErrorCallback = TIM_DMAErrorCCxN ;
 2636              		.loc 1 950 17
 2637 01e6 FB68     		ldr	r3, [r7, #12]
 2638 01e8 DB6A     		ldr	r3, [r3, #44]
 2639              		.loc 1 950 53
 2640 01ea 344A     		ldr	r2, .L179+8
 2641 01ec 1A63     		str	r2, [r3, #48]
 951:Drivers/STM32F0xx_HAL_Driver/Src/stm32f0xx_hal_tim_ex.c **** 
 952:Drivers/STM32F0xx_HAL_Driver/Src/stm32f0xx_hal_tim_ex.c ****       /* Enable the DMA channel */
 953:Drivers/STM32F0xx_HAL_Driver/Src/stm32f0xx_hal_tim_ex.c ****       if (HAL_DMA_Start_IT(htim->hdma[TIM_DMA_ID_CC3], (uint32_t)pData, (uint32_t)&htim->Instance->
 2642              		.loc 1 953 11
 2643 01ee FB68     		ldr	r3, [r7, #12]
 2644 01f0 D86A     		ldr	r0, [r3, #44]
 2645 01f2 7968     		ldr	r1, [r7, #4]
 2646              		.loc 1 953 88
 2647 01f4 FB68     		ldr	r3, [r7, #12]
 2648 01f6 1B68     		ldr	r3, [r3]
 2649              		.loc 1 953 83
 2650 01f8 3C33     		adds	r3, r3, #60
 2651              		.loc 1 953 11
 2652 01fa 1A00     		movs	r2, r3
 2653 01fc BB1C     		adds	r3, r7, #2
 2654 01fe 1B88     		ldrh	r3, [r3]
 2655 0200 FFF7FEFF 		bl	HAL_DMA_Start_IT
 2656 0204 031E     		subs	r3, r0, #0
 2657              		.loc 1 953 10
 2658 0206 01D0     		beq	.L174
 954:Drivers/STM32F0xx_HAL_Driver/Src/stm32f0xx_hal_tim_ex.c ****                            Length) != HAL_OK)
 955:Drivers/STM32F0xx_HAL_Driver/Src/stm32f0xx_hal_tim_ex.c ****       {
ARM GAS  /var/folders/d0/cymppscj10lcmm48h781wrc80000gn/T//cc0qcKWW.s 			page 64


 956:Drivers/STM32F0xx_HAL_Driver/Src/stm32f0xx_hal_tim_ex.c ****         /* Return error status */
 957:Drivers/STM32F0xx_HAL_Driver/Src/stm32f0xx_hal_tim_ex.c ****         return HAL_ERROR;
 2659              		.loc 1 957 16
 2660 0208 0123     		movs	r3, #1
 2661 020a 4FE0     		b	.L152
 2662              	.L174:
 958:Drivers/STM32F0xx_HAL_Driver/Src/stm32f0xx_hal_tim_ex.c ****       }
 959:Drivers/STM32F0xx_HAL_Driver/Src/stm32f0xx_hal_tim_ex.c ****       /* Enable the TIM Output Compare DMA request */
 960:Drivers/STM32F0xx_HAL_Driver/Src/stm32f0xx_hal_tim_ex.c ****       __HAL_TIM_ENABLE_DMA(htim, TIM_DMA_CC3);
 2663              		.loc 1 960 7
 2664 020c FB68     		ldr	r3, [r7, #12]
 2665 020e 1B68     		ldr	r3, [r3]
 2666 0210 DA68     		ldr	r2, [r3, #12]
 2667 0212 FB68     		ldr	r3, [r7, #12]
 2668 0214 1B68     		ldr	r3, [r3]
 2669 0216 8021     		movs	r1, #128
 2670 0218 0901     		lsls	r1, r1, #4
 2671 021a 0A43     		orrs	r2, r1
 2672 021c DA60     		str	r2, [r3, #12]
 961:Drivers/STM32F0xx_HAL_Driver/Src/stm32f0xx_hal_tim_ex.c ****       break;
 2673              		.loc 1 961 7
 2674 021e 04E0     		b	.L172
 2675              	.L168:
 962:Drivers/STM32F0xx_HAL_Driver/Src/stm32f0xx_hal_tim_ex.c ****     }
 963:Drivers/STM32F0xx_HAL_Driver/Src/stm32f0xx_hal_tim_ex.c **** 
 964:Drivers/STM32F0xx_HAL_Driver/Src/stm32f0xx_hal_tim_ex.c ****     default:
 965:Drivers/STM32F0xx_HAL_Driver/Src/stm32f0xx_hal_tim_ex.c ****       status = HAL_ERROR;
 2676              		.loc 1 965 14
 2677 0220 1723     		movs	r3, #23
 2678 0222 FB18     		adds	r3, r7, r3
 2679 0224 0122     		movs	r2, #1
 2680 0226 1A70     		strb	r2, [r3]
 966:Drivers/STM32F0xx_HAL_Driver/Src/stm32f0xx_hal_tim_ex.c ****       break;
 2681              		.loc 1 966 7
 2682 0228 C046     		nop
 2683              	.L172:
 967:Drivers/STM32F0xx_HAL_Driver/Src/stm32f0xx_hal_tim_ex.c ****   }
 968:Drivers/STM32F0xx_HAL_Driver/Src/stm32f0xx_hal_tim_ex.c **** 
 969:Drivers/STM32F0xx_HAL_Driver/Src/stm32f0xx_hal_tim_ex.c ****   if (status == HAL_OK)
 2684              		.loc 1 969 6
 2685 022a 1723     		movs	r3, #23
 2686 022c FB18     		adds	r3, r7, r3
 2687 022e 1B78     		ldrb	r3, [r3]
 2688 0230 002B     		cmp	r3, #0
 2689 0232 38D1     		bne	.L175
 970:Drivers/STM32F0xx_HAL_Driver/Src/stm32f0xx_hal_tim_ex.c ****   {
 971:Drivers/STM32F0xx_HAL_Driver/Src/stm32f0xx_hal_tim_ex.c ****     /* Enable the Capture compare channel N */
 972:Drivers/STM32F0xx_HAL_Driver/Src/stm32f0xx_hal_tim_ex.c ****     TIM_CCxNChannelCmd(htim->Instance, Channel, TIM_CCxN_ENABLE);
 2690              		.loc 1 972 5
 2691 0234 FB68     		ldr	r3, [r7, #12]
 2692 0236 1B68     		ldr	r3, [r3]
 2693 0238 B968     		ldr	r1, [r7, #8]
 2694 023a 0422     		movs	r2, #4
 2695 023c 1800     		movs	r0, r3
 2696 023e FFF7FEFF 		bl	TIM_CCxNChannelCmd
 973:Drivers/STM32F0xx_HAL_Driver/Src/stm32f0xx_hal_tim_ex.c **** 
 974:Drivers/STM32F0xx_HAL_Driver/Src/stm32f0xx_hal_tim_ex.c ****     /* Enable the Main Output */
ARM GAS  /var/folders/d0/cymppscj10lcmm48h781wrc80000gn/T//cc0qcKWW.s 			page 65


 975:Drivers/STM32F0xx_HAL_Driver/Src/stm32f0xx_hal_tim_ex.c ****     __HAL_TIM_MOE_ENABLE(htim);
 2697              		.loc 1 975 5
 2698 0242 FB68     		ldr	r3, [r7, #12]
 2699 0244 1B68     		ldr	r3, [r3]
 2700 0246 5A6C     		ldr	r2, [r3, #68]
 2701 0248 FB68     		ldr	r3, [r7, #12]
 2702 024a 1B68     		ldr	r3, [r3]
 2703 024c 8021     		movs	r1, #128
 2704 024e 0902     		lsls	r1, r1, #8
 2705 0250 0A43     		orrs	r2, r1
 2706 0252 5A64     		str	r2, [r3, #68]
 976:Drivers/STM32F0xx_HAL_Driver/Src/stm32f0xx_hal_tim_ex.c **** 
 977:Drivers/STM32F0xx_HAL_Driver/Src/stm32f0xx_hal_tim_ex.c ****     /* Enable the Peripheral, except in trigger mode where enable is automatically done with trigge
 978:Drivers/STM32F0xx_HAL_Driver/Src/stm32f0xx_hal_tim_ex.c ****     if (IS_TIM_SLAVE_INSTANCE(htim->Instance))
 2707              		.loc 1 978 9
 2708 0254 FB68     		ldr	r3, [r7, #12]
 2709 0256 1B68     		ldr	r3, [r3]
 2710              		.loc 1 978 8
 2711 0258 194A     		ldr	r2, .L179+12
 2712 025a 9342     		cmp	r3, r2
 2713 025c 09D0     		beq	.L176
 2714              		.loc 1 978 9 discriminator 1
 2715 025e FB68     		ldr	r3, [r7, #12]
 2716 0260 1B68     		ldr	r3, [r3]
 2717 0262 184A     		ldr	r2, .L179+16
 2718 0264 9342     		cmp	r3, r2
 2719 0266 04D0     		beq	.L176
 2720              		.loc 1 978 9 is_stmt 0 discriminator 2
 2721 0268 FB68     		ldr	r3, [r7, #12]
 2722 026a 1B68     		ldr	r3, [r3]
 2723 026c 164A     		ldr	r2, .L179+20
 2724 026e 9342     		cmp	r3, r2
 2725 0270 11D1     		bne	.L177
 2726              	.L176:
 979:Drivers/STM32F0xx_HAL_Driver/Src/stm32f0xx_hal_tim_ex.c ****     {
 980:Drivers/STM32F0xx_HAL_Driver/Src/stm32f0xx_hal_tim_ex.c ****       tmpsmcr = htim->Instance->SMCR & TIM_SMCR_SMS;
 2727              		.loc 1 980 21 is_stmt 1
 2728 0272 FB68     		ldr	r3, [r7, #12]
 2729 0274 1B68     		ldr	r3, [r3]
 2730              		.loc 1 980 31
 2731 0276 9B68     		ldr	r3, [r3, #8]
 2732              		.loc 1 980 15
 2733 0278 0722     		movs	r2, #7
 2734 027a 1340     		ands	r3, r2
 2735 027c 3B61     		str	r3, [r7, #16]
 981:Drivers/STM32F0xx_HAL_Driver/Src/stm32f0xx_hal_tim_ex.c ****       if (!IS_TIM_SLAVEMODE_TRIGGER_ENABLED(tmpsmcr))
 2736              		.loc 1 981 10
 2737 027e 3B69     		ldr	r3, [r7, #16]
 2738 0280 062B     		cmp	r3, #6
 2739 0282 10D0     		beq	.L175
 982:Drivers/STM32F0xx_HAL_Driver/Src/stm32f0xx_hal_tim_ex.c ****       {
 983:Drivers/STM32F0xx_HAL_Driver/Src/stm32f0xx_hal_tim_ex.c ****         __HAL_TIM_ENABLE(htim);
 2740              		.loc 1 983 9
 2741 0284 FB68     		ldr	r3, [r7, #12]
 2742 0286 1B68     		ldr	r3, [r3]
 2743 0288 1A68     		ldr	r2, [r3]
 2744 028a FB68     		ldr	r3, [r7, #12]
ARM GAS  /var/folders/d0/cymppscj10lcmm48h781wrc80000gn/T//cc0qcKWW.s 			page 66


 2745 028c 1B68     		ldr	r3, [r3]
 2746 028e 0121     		movs	r1, #1
 2747 0290 0A43     		orrs	r2, r1
 2748 0292 1A60     		str	r2, [r3]
 981:Drivers/STM32F0xx_HAL_Driver/Src/stm32f0xx_hal_tim_ex.c ****       if (!IS_TIM_SLAVEMODE_TRIGGER_ENABLED(tmpsmcr))
 2749              		.loc 1 981 10
 2750 0294 07E0     		b	.L175
 2751              	.L177:
 984:Drivers/STM32F0xx_HAL_Driver/Src/stm32f0xx_hal_tim_ex.c ****       }
 985:Drivers/STM32F0xx_HAL_Driver/Src/stm32f0xx_hal_tim_ex.c ****     }
 986:Drivers/STM32F0xx_HAL_Driver/Src/stm32f0xx_hal_tim_ex.c ****     else
 987:Drivers/STM32F0xx_HAL_Driver/Src/stm32f0xx_hal_tim_ex.c ****     {
 988:Drivers/STM32F0xx_HAL_Driver/Src/stm32f0xx_hal_tim_ex.c ****       __HAL_TIM_ENABLE(htim);
 2752              		.loc 1 988 7
 2753 0296 FB68     		ldr	r3, [r7, #12]
 2754 0298 1B68     		ldr	r3, [r3]
 2755 029a 1A68     		ldr	r2, [r3]
 2756 029c FB68     		ldr	r3, [r7, #12]
 2757 029e 1B68     		ldr	r3, [r3]
 2758 02a0 0121     		movs	r1, #1
 2759 02a2 0A43     		orrs	r2, r1
 2760 02a4 1A60     		str	r2, [r3]
 2761              	.L175:
 989:Drivers/STM32F0xx_HAL_Driver/Src/stm32f0xx_hal_tim_ex.c ****     }
 990:Drivers/STM32F0xx_HAL_Driver/Src/stm32f0xx_hal_tim_ex.c ****   }
 991:Drivers/STM32F0xx_HAL_Driver/Src/stm32f0xx_hal_tim_ex.c **** 
 992:Drivers/STM32F0xx_HAL_Driver/Src/stm32f0xx_hal_tim_ex.c ****   /* Return function status */
 993:Drivers/STM32F0xx_HAL_Driver/Src/stm32f0xx_hal_tim_ex.c ****   return status;
 2762              		.loc 1 993 10
 2763 02a6 1723     		movs	r3, #23
 2764 02a8 FB18     		adds	r3, r7, r3
 2765 02aa 1B78     		ldrb	r3, [r3]
 2766              	.L152:
 994:Drivers/STM32F0xx_HAL_Driver/Src/stm32f0xx_hal_tim_ex.c **** }
 2767              		.loc 1 994 1
 2768 02ac 1800     		movs	r0, r3
 2769 02ae BD46     		mov	sp, r7
 2770 02b0 06B0     		add	sp, sp, #24
 2771              		@ sp needed
 2772 02b2 80BD     		pop	{r7, pc}
 2773              	.L180:
 2774              		.align	2
 2775              	.L179:
 2776 02b4 00000000 		.word	TIM_DMADelayPulseNCplt
 2777 02b8 00000000 		.word	TIM_DMADelayPulseHalfCplt
 2778 02bc 00000000 		.word	TIM_DMAErrorCCxN
 2779 02c0 002C0140 		.word	1073818624
 2780 02c4 00040040 		.word	1073742848
 2781 02c8 00400140 		.word	1073823744
 2782              		.cfi_endproc
 2783              	.LFE54:
 2785              		.section	.text.HAL_TIMEx_OCN_Stop_DMA,"ax",%progbits
 2786              		.align	1
 2787              		.global	HAL_TIMEx_OCN_Stop_DMA
 2788              		.syntax unified
 2789              		.code	16
 2790              		.thumb_func
ARM GAS  /var/folders/d0/cymppscj10lcmm48h781wrc80000gn/T//cc0qcKWW.s 			page 67


 2792              	HAL_TIMEx_OCN_Stop_DMA:
 2793              	.LFB55:
 995:Drivers/STM32F0xx_HAL_Driver/Src/stm32f0xx_hal_tim_ex.c **** 
 996:Drivers/STM32F0xx_HAL_Driver/Src/stm32f0xx_hal_tim_ex.c **** /**
 997:Drivers/STM32F0xx_HAL_Driver/Src/stm32f0xx_hal_tim_ex.c ****   * @brief  Stops the TIM Output Compare signal generation in DMA mode
 998:Drivers/STM32F0xx_HAL_Driver/Src/stm32f0xx_hal_tim_ex.c ****   *         on the complementary output.
 999:Drivers/STM32F0xx_HAL_Driver/Src/stm32f0xx_hal_tim_ex.c ****   * @param  htim TIM Output Compare handle
1000:Drivers/STM32F0xx_HAL_Driver/Src/stm32f0xx_hal_tim_ex.c ****   * @param  Channel TIM Channel to be disabled
1001:Drivers/STM32F0xx_HAL_Driver/Src/stm32f0xx_hal_tim_ex.c ****   *          This parameter can be one of the following values:
1002:Drivers/STM32F0xx_HAL_Driver/Src/stm32f0xx_hal_tim_ex.c ****   *            @arg TIM_CHANNEL_1: TIM Channel 1 selected
1003:Drivers/STM32F0xx_HAL_Driver/Src/stm32f0xx_hal_tim_ex.c ****   *            @arg TIM_CHANNEL_2: TIM Channel 2 selected
1004:Drivers/STM32F0xx_HAL_Driver/Src/stm32f0xx_hal_tim_ex.c ****   *            @arg TIM_CHANNEL_3: TIM Channel 3 selected
1005:Drivers/STM32F0xx_HAL_Driver/Src/stm32f0xx_hal_tim_ex.c ****   * @retval HAL status
1006:Drivers/STM32F0xx_HAL_Driver/Src/stm32f0xx_hal_tim_ex.c ****   */
1007:Drivers/STM32F0xx_HAL_Driver/Src/stm32f0xx_hal_tim_ex.c **** HAL_StatusTypeDef HAL_TIMEx_OCN_Stop_DMA(TIM_HandleTypeDef *htim, uint32_t Channel)
1008:Drivers/STM32F0xx_HAL_Driver/Src/stm32f0xx_hal_tim_ex.c **** {
 2794              		.loc 1 1008 1
 2795              		.cfi_startproc
 2796              		@ args = 0, pretend = 0, frame = 16
 2797              		@ frame_needed = 1, uses_anonymous_args = 0
 2798 0000 80B5     		push	{r7, lr}
 2799              	.LCFI45:
 2800              		.cfi_def_cfa_offset 8
 2801              		.cfi_offset 7, -8
 2802              		.cfi_offset 14, -4
 2803 0002 84B0     		sub	sp, sp, #16
 2804              	.LCFI46:
 2805              		.cfi_def_cfa_offset 24
 2806 0004 00AF     		add	r7, sp, #0
 2807              	.LCFI47:
 2808              		.cfi_def_cfa_register 7
 2809 0006 7860     		str	r0, [r7, #4]
 2810 0008 3960     		str	r1, [r7]
1009:Drivers/STM32F0xx_HAL_Driver/Src/stm32f0xx_hal_tim_ex.c ****   HAL_StatusTypeDef status = HAL_OK;
 2811              		.loc 1 1009 21
 2812 000a 0F23     		movs	r3, #15
 2813 000c FB18     		adds	r3, r7, r3
 2814 000e 0022     		movs	r2, #0
 2815 0010 1A70     		strb	r2, [r3]
1010:Drivers/STM32F0xx_HAL_Driver/Src/stm32f0xx_hal_tim_ex.c **** 
1011:Drivers/STM32F0xx_HAL_Driver/Src/stm32f0xx_hal_tim_ex.c ****   /* Check the parameters */
1012:Drivers/STM32F0xx_HAL_Driver/Src/stm32f0xx_hal_tim_ex.c ****   assert_param(IS_TIM_CCXN_INSTANCE(htim->Instance, Channel));
1013:Drivers/STM32F0xx_HAL_Driver/Src/stm32f0xx_hal_tim_ex.c **** 
1014:Drivers/STM32F0xx_HAL_Driver/Src/stm32f0xx_hal_tim_ex.c ****   switch (Channel)
 2816              		.loc 1 1014 3
 2817 0012 3B68     		ldr	r3, [r7]
 2818 0014 082B     		cmp	r3, #8
 2819 0016 25D0     		beq	.L182
 2820 0018 3B68     		ldr	r3, [r7]
 2821 001a 082B     		cmp	r3, #8
 2822 001c 30D8     		bhi	.L183
 2823 001e 3B68     		ldr	r3, [r7]
 2824 0020 002B     		cmp	r3, #0
 2825 0022 03D0     		beq	.L184
 2826 0024 3B68     		ldr	r3, [r7]
 2827 0026 042B     		cmp	r3, #4
 2828 0028 0ED0     		beq	.L185
ARM GAS  /var/folders/d0/cymppscj10lcmm48h781wrc80000gn/T//cc0qcKWW.s 			page 68


 2829 002a 29E0     		b	.L183
 2830              	.L184:
1015:Drivers/STM32F0xx_HAL_Driver/Src/stm32f0xx_hal_tim_ex.c ****   {
1016:Drivers/STM32F0xx_HAL_Driver/Src/stm32f0xx_hal_tim_ex.c ****     case TIM_CHANNEL_1:
1017:Drivers/STM32F0xx_HAL_Driver/Src/stm32f0xx_hal_tim_ex.c ****     {
1018:Drivers/STM32F0xx_HAL_Driver/Src/stm32f0xx_hal_tim_ex.c ****       /* Disable the TIM Output Compare DMA request */
1019:Drivers/STM32F0xx_HAL_Driver/Src/stm32f0xx_hal_tim_ex.c ****       __HAL_TIM_DISABLE_DMA(htim, TIM_DMA_CC1);
 2831              		.loc 1 1019 7
 2832 002c 7B68     		ldr	r3, [r7, #4]
 2833 002e 1B68     		ldr	r3, [r3]
 2834 0030 DA68     		ldr	r2, [r3, #12]
 2835 0032 7B68     		ldr	r3, [r7, #4]
 2836 0034 1B68     		ldr	r3, [r3]
 2837 0036 4049     		ldr	r1, .L196
 2838 0038 0A40     		ands	r2, r1
 2839 003a DA60     		str	r2, [r3, #12]
1020:Drivers/STM32F0xx_HAL_Driver/Src/stm32f0xx_hal_tim_ex.c ****       (void)HAL_DMA_Abort_IT(htim->hdma[TIM_DMA_ID_CC1]);
 2840              		.loc 1 1020 13
 2841 003c 7B68     		ldr	r3, [r7, #4]
 2842 003e 5B6A     		ldr	r3, [r3, #36]
 2843 0040 1800     		movs	r0, r3
 2844 0042 FFF7FEFF 		bl	HAL_DMA_Abort_IT
1021:Drivers/STM32F0xx_HAL_Driver/Src/stm32f0xx_hal_tim_ex.c ****       break;
 2845              		.loc 1 1021 7
 2846 0046 20E0     		b	.L186
 2847              	.L185:
1022:Drivers/STM32F0xx_HAL_Driver/Src/stm32f0xx_hal_tim_ex.c ****     }
1023:Drivers/STM32F0xx_HAL_Driver/Src/stm32f0xx_hal_tim_ex.c **** 
1024:Drivers/STM32F0xx_HAL_Driver/Src/stm32f0xx_hal_tim_ex.c ****     case TIM_CHANNEL_2:
1025:Drivers/STM32F0xx_HAL_Driver/Src/stm32f0xx_hal_tim_ex.c ****     {
1026:Drivers/STM32F0xx_HAL_Driver/Src/stm32f0xx_hal_tim_ex.c ****       /* Disable the TIM Output Compare DMA request */
1027:Drivers/STM32F0xx_HAL_Driver/Src/stm32f0xx_hal_tim_ex.c ****       __HAL_TIM_DISABLE_DMA(htim, TIM_DMA_CC2);
 2848              		.loc 1 1027 7
 2849 0048 7B68     		ldr	r3, [r7, #4]
 2850 004a 1B68     		ldr	r3, [r3]
 2851 004c DA68     		ldr	r2, [r3, #12]
 2852 004e 7B68     		ldr	r3, [r7, #4]
 2853 0050 1B68     		ldr	r3, [r3]
 2854 0052 3A49     		ldr	r1, .L196+4
 2855 0054 0A40     		ands	r2, r1
 2856 0056 DA60     		str	r2, [r3, #12]
1028:Drivers/STM32F0xx_HAL_Driver/Src/stm32f0xx_hal_tim_ex.c ****       (void)HAL_DMA_Abort_IT(htim->hdma[TIM_DMA_ID_CC2]);
 2857              		.loc 1 1028 13
 2858 0058 7B68     		ldr	r3, [r7, #4]
 2859 005a 9B6A     		ldr	r3, [r3, #40]
 2860 005c 1800     		movs	r0, r3
 2861 005e FFF7FEFF 		bl	HAL_DMA_Abort_IT
1029:Drivers/STM32F0xx_HAL_Driver/Src/stm32f0xx_hal_tim_ex.c ****       break;
 2862              		.loc 1 1029 7
 2863 0062 12E0     		b	.L186
 2864              	.L182:
1030:Drivers/STM32F0xx_HAL_Driver/Src/stm32f0xx_hal_tim_ex.c ****     }
1031:Drivers/STM32F0xx_HAL_Driver/Src/stm32f0xx_hal_tim_ex.c **** 
1032:Drivers/STM32F0xx_HAL_Driver/Src/stm32f0xx_hal_tim_ex.c ****     case TIM_CHANNEL_3:
1033:Drivers/STM32F0xx_HAL_Driver/Src/stm32f0xx_hal_tim_ex.c ****     {
1034:Drivers/STM32F0xx_HAL_Driver/Src/stm32f0xx_hal_tim_ex.c ****       /* Disable the TIM Output Compare DMA request */
1035:Drivers/STM32F0xx_HAL_Driver/Src/stm32f0xx_hal_tim_ex.c ****       __HAL_TIM_DISABLE_DMA(htim, TIM_DMA_CC3);
ARM GAS  /var/folders/d0/cymppscj10lcmm48h781wrc80000gn/T//cc0qcKWW.s 			page 69


 2865              		.loc 1 1035 7
 2866 0064 7B68     		ldr	r3, [r7, #4]
 2867 0066 1B68     		ldr	r3, [r3]
 2868 0068 DA68     		ldr	r2, [r3, #12]
 2869 006a 7B68     		ldr	r3, [r7, #4]
 2870 006c 1B68     		ldr	r3, [r3]
 2871 006e 3449     		ldr	r1, .L196+8
 2872 0070 0A40     		ands	r2, r1
 2873 0072 DA60     		str	r2, [r3, #12]
1036:Drivers/STM32F0xx_HAL_Driver/Src/stm32f0xx_hal_tim_ex.c ****       (void)HAL_DMA_Abort_IT(htim->hdma[TIM_DMA_ID_CC3]);
 2874              		.loc 1 1036 13
 2875 0074 7B68     		ldr	r3, [r7, #4]
 2876 0076 DB6A     		ldr	r3, [r3, #44]
 2877 0078 1800     		movs	r0, r3
 2878 007a FFF7FEFF 		bl	HAL_DMA_Abort_IT
1037:Drivers/STM32F0xx_HAL_Driver/Src/stm32f0xx_hal_tim_ex.c ****       break;
 2879              		.loc 1 1037 7
 2880 007e 04E0     		b	.L186
 2881              	.L183:
1038:Drivers/STM32F0xx_HAL_Driver/Src/stm32f0xx_hal_tim_ex.c ****     }
1039:Drivers/STM32F0xx_HAL_Driver/Src/stm32f0xx_hal_tim_ex.c **** 
1040:Drivers/STM32F0xx_HAL_Driver/Src/stm32f0xx_hal_tim_ex.c ****     default:
1041:Drivers/STM32F0xx_HAL_Driver/Src/stm32f0xx_hal_tim_ex.c ****       status = HAL_ERROR;
 2882              		.loc 1 1041 14
 2883 0080 0F23     		movs	r3, #15
 2884 0082 FB18     		adds	r3, r7, r3
 2885 0084 0122     		movs	r2, #1
 2886 0086 1A70     		strb	r2, [r3]
1042:Drivers/STM32F0xx_HAL_Driver/Src/stm32f0xx_hal_tim_ex.c ****       break;
 2887              		.loc 1 1042 7
 2888 0088 C046     		nop
 2889              	.L186:
1043:Drivers/STM32F0xx_HAL_Driver/Src/stm32f0xx_hal_tim_ex.c ****   }
1044:Drivers/STM32F0xx_HAL_Driver/Src/stm32f0xx_hal_tim_ex.c **** 
1045:Drivers/STM32F0xx_HAL_Driver/Src/stm32f0xx_hal_tim_ex.c ****   if (status == HAL_OK)
 2890              		.loc 1 1045 6
 2891 008a 0F23     		movs	r3, #15
 2892 008c FB18     		adds	r3, r7, r3
 2893 008e 1B78     		ldrb	r3, [r3]
 2894 0090 002B     		cmp	r3, #0
 2895 0092 4AD1     		bne	.L187
1046:Drivers/STM32F0xx_HAL_Driver/Src/stm32f0xx_hal_tim_ex.c ****   {
1047:Drivers/STM32F0xx_HAL_Driver/Src/stm32f0xx_hal_tim_ex.c ****     /* Disable the Capture compare channel N */
1048:Drivers/STM32F0xx_HAL_Driver/Src/stm32f0xx_hal_tim_ex.c ****     TIM_CCxNChannelCmd(htim->Instance, Channel, TIM_CCxN_DISABLE);
 2896              		.loc 1 1048 5
 2897 0094 7B68     		ldr	r3, [r7, #4]
 2898 0096 1B68     		ldr	r3, [r3]
 2899 0098 3968     		ldr	r1, [r7]
 2900 009a 0022     		movs	r2, #0
 2901 009c 1800     		movs	r0, r3
 2902 009e FFF7FEFF 		bl	TIM_CCxNChannelCmd
1049:Drivers/STM32F0xx_HAL_Driver/Src/stm32f0xx_hal_tim_ex.c **** 
1050:Drivers/STM32F0xx_HAL_Driver/Src/stm32f0xx_hal_tim_ex.c ****     /* Disable the Main Output */
1051:Drivers/STM32F0xx_HAL_Driver/Src/stm32f0xx_hal_tim_ex.c ****     __HAL_TIM_MOE_DISABLE(htim);
 2903              		.loc 1 1051 5
 2904 00a2 7B68     		ldr	r3, [r7, #4]
 2905 00a4 1B68     		ldr	r3, [r3]
ARM GAS  /var/folders/d0/cymppscj10lcmm48h781wrc80000gn/T//cc0qcKWW.s 			page 70


 2906 00a6 1B6A     		ldr	r3, [r3, #32]
 2907 00a8 264A     		ldr	r2, .L196+12
 2908 00aa 1340     		ands	r3, r2
 2909 00ac 0DD1     		bne	.L188
 2910              		.loc 1 1051 5 is_stmt 0 discriminator 1
 2911 00ae 7B68     		ldr	r3, [r7, #4]
 2912 00b0 1B68     		ldr	r3, [r3]
 2913 00b2 1B6A     		ldr	r3, [r3, #32]
 2914 00b4 244A     		ldr	r2, .L196+16
 2915 00b6 1340     		ands	r3, r2
 2916 00b8 07D1     		bne	.L188
 2917              		.loc 1 1051 5 discriminator 2
 2918 00ba 7B68     		ldr	r3, [r7, #4]
 2919 00bc 1B68     		ldr	r3, [r3]
 2920 00be 5A6C     		ldr	r2, [r3, #68]
 2921 00c0 7B68     		ldr	r3, [r7, #4]
 2922 00c2 1B68     		ldr	r3, [r3]
 2923 00c4 2149     		ldr	r1, .L196+20
 2924 00c6 0A40     		ands	r2, r1
 2925 00c8 5A64     		str	r2, [r3, #68]
 2926              	.L188:
1052:Drivers/STM32F0xx_HAL_Driver/Src/stm32f0xx_hal_tim_ex.c **** 
1053:Drivers/STM32F0xx_HAL_Driver/Src/stm32f0xx_hal_tim_ex.c ****     /* Disable the Peripheral */
1054:Drivers/STM32F0xx_HAL_Driver/Src/stm32f0xx_hal_tim_ex.c ****     __HAL_TIM_DISABLE(htim);
 2927              		.loc 1 1054 5 is_stmt 1
 2928 00ca 7B68     		ldr	r3, [r7, #4]
 2929 00cc 1B68     		ldr	r3, [r3]
 2930 00ce 1B6A     		ldr	r3, [r3, #32]
 2931 00d0 1C4A     		ldr	r2, .L196+12
 2932 00d2 1340     		ands	r3, r2
 2933 00d4 0DD1     		bne	.L189
 2934              		.loc 1 1054 5 is_stmt 0 discriminator 1
 2935 00d6 7B68     		ldr	r3, [r7, #4]
 2936 00d8 1B68     		ldr	r3, [r3]
 2937 00da 1B6A     		ldr	r3, [r3, #32]
 2938 00dc 1A4A     		ldr	r2, .L196+16
 2939 00de 1340     		ands	r3, r2
 2940 00e0 07D1     		bne	.L189
 2941              		.loc 1 1054 5 discriminator 2
 2942 00e2 7B68     		ldr	r3, [r7, #4]
 2943 00e4 1B68     		ldr	r3, [r3]
 2944 00e6 1A68     		ldr	r2, [r3]
 2945 00e8 7B68     		ldr	r3, [r7, #4]
 2946 00ea 1B68     		ldr	r3, [r3]
 2947 00ec 0121     		movs	r1, #1
 2948 00ee 8A43     		bics	r2, r1
 2949 00f0 1A60     		str	r2, [r3]
 2950              	.L189:
1055:Drivers/STM32F0xx_HAL_Driver/Src/stm32f0xx_hal_tim_ex.c **** 
1056:Drivers/STM32F0xx_HAL_Driver/Src/stm32f0xx_hal_tim_ex.c ****     /* Set the TIM complementary channel state */
1057:Drivers/STM32F0xx_HAL_Driver/Src/stm32f0xx_hal_tim_ex.c ****     TIM_CHANNEL_N_STATE_SET(htim, Channel, HAL_TIM_CHANNEL_STATE_READY);
 2951              		.loc 1 1057 5 is_stmt 1
 2952 00f2 3B68     		ldr	r3, [r7]
 2953 00f4 002B     		cmp	r3, #0
 2954 00f6 04D1     		bne	.L190
 2955              		.loc 1 1057 5 is_stmt 0 discriminator 1
 2956 00f8 7B68     		ldr	r3, [r7, #4]
ARM GAS  /var/folders/d0/cymppscj10lcmm48h781wrc80000gn/T//cc0qcKWW.s 			page 71


 2957 00fa 4222     		movs	r2, #66
 2958 00fc 0121     		movs	r1, #1
 2959 00fe 9954     		strb	r1, [r3, r2]
 2960 0100 13E0     		b	.L187
 2961              	.L190:
 2962              		.loc 1 1057 5 discriminator 2
 2963 0102 3B68     		ldr	r3, [r7]
 2964 0104 042B     		cmp	r3, #4
 2965 0106 04D1     		bne	.L191
 2966              		.loc 1 1057 5 discriminator 3
 2967 0108 7B68     		ldr	r3, [r7, #4]
 2968 010a 4322     		movs	r2, #67
 2969 010c 0121     		movs	r1, #1
 2970 010e 9954     		strb	r1, [r3, r2]
 2971 0110 0BE0     		b	.L187
 2972              	.L191:
 2973              		.loc 1 1057 5 discriminator 4
 2974 0112 3B68     		ldr	r3, [r7]
 2975 0114 082B     		cmp	r3, #8
 2976 0116 04D1     		bne	.L193
 2977              		.loc 1 1057 5 discriminator 6
 2978 0118 7B68     		ldr	r3, [r7, #4]
 2979 011a 4422     		movs	r2, #68
 2980 011c 0121     		movs	r1, #1
 2981 011e 9954     		strb	r1, [r3, r2]
 2982 0120 03E0     		b	.L187
 2983              	.L193:
 2984              		.loc 1 1057 5 discriminator 7
 2985 0122 7B68     		ldr	r3, [r7, #4]
 2986 0124 4522     		movs	r2, #69
 2987 0126 0121     		movs	r1, #1
 2988 0128 9954     		strb	r1, [r3, r2]
 2989              	.L187:
1058:Drivers/STM32F0xx_HAL_Driver/Src/stm32f0xx_hal_tim_ex.c ****   }
1059:Drivers/STM32F0xx_HAL_Driver/Src/stm32f0xx_hal_tim_ex.c **** 
1060:Drivers/STM32F0xx_HAL_Driver/Src/stm32f0xx_hal_tim_ex.c ****   /* Return function status */
1061:Drivers/STM32F0xx_HAL_Driver/Src/stm32f0xx_hal_tim_ex.c ****   return status;
 2990              		.loc 1 1061 10 is_stmt 1
 2991 012a 0F23     		movs	r3, #15
 2992 012c FB18     		adds	r3, r7, r3
 2993 012e 1B78     		ldrb	r3, [r3]
1062:Drivers/STM32F0xx_HAL_Driver/Src/stm32f0xx_hal_tim_ex.c **** }
 2994              		.loc 1 1062 1
 2995 0130 1800     		movs	r0, r3
 2996 0132 BD46     		mov	sp, r7
 2997 0134 04B0     		add	sp, sp, #16
 2998              		@ sp needed
 2999 0136 80BD     		pop	{r7, pc}
 3000              	.L197:
 3001              		.align	2
 3002              	.L196:
 3003 0138 FFFDFFFF 		.word	-513
 3004 013c FFFBFFFF 		.word	-1025
 3005 0140 FFF7FFFF 		.word	-2049
 3006 0144 11110000 		.word	4369
 3007 0148 44040000 		.word	1092
 3008 014c FF7FFFFF 		.word	-32769
ARM GAS  /var/folders/d0/cymppscj10lcmm48h781wrc80000gn/T//cc0qcKWW.s 			page 72


 3009              		.cfi_endproc
 3010              	.LFE55:
 3012              		.section	.text.HAL_TIMEx_PWMN_Start,"ax",%progbits
 3013              		.align	1
 3014              		.global	HAL_TIMEx_PWMN_Start
 3015              		.syntax unified
 3016              		.code	16
 3017              		.thumb_func
 3019              	HAL_TIMEx_PWMN_Start:
 3020              	.LFB56:
1063:Drivers/STM32F0xx_HAL_Driver/Src/stm32f0xx_hal_tim_ex.c **** 
1064:Drivers/STM32F0xx_HAL_Driver/Src/stm32f0xx_hal_tim_ex.c **** /**
1065:Drivers/STM32F0xx_HAL_Driver/Src/stm32f0xx_hal_tim_ex.c ****   * @}
1066:Drivers/STM32F0xx_HAL_Driver/Src/stm32f0xx_hal_tim_ex.c ****   */
1067:Drivers/STM32F0xx_HAL_Driver/Src/stm32f0xx_hal_tim_ex.c **** 
1068:Drivers/STM32F0xx_HAL_Driver/Src/stm32f0xx_hal_tim_ex.c **** /** @defgroup TIMEx_Exported_Functions_Group3 Extended Timer Complementary PWM functions
1069:Drivers/STM32F0xx_HAL_Driver/Src/stm32f0xx_hal_tim_ex.c ****   * @brief    Timer Complementary PWM functions
1070:Drivers/STM32F0xx_HAL_Driver/Src/stm32f0xx_hal_tim_ex.c ****   *
1071:Drivers/STM32F0xx_HAL_Driver/Src/stm32f0xx_hal_tim_ex.c **** @verbatim
1072:Drivers/STM32F0xx_HAL_Driver/Src/stm32f0xx_hal_tim_ex.c ****   ==============================================================================
1073:Drivers/STM32F0xx_HAL_Driver/Src/stm32f0xx_hal_tim_ex.c ****                  ##### Timer Complementary PWM functions #####
1074:Drivers/STM32F0xx_HAL_Driver/Src/stm32f0xx_hal_tim_ex.c ****   ==============================================================================
1075:Drivers/STM32F0xx_HAL_Driver/Src/stm32f0xx_hal_tim_ex.c ****   [..]
1076:Drivers/STM32F0xx_HAL_Driver/Src/stm32f0xx_hal_tim_ex.c ****     This section provides functions allowing to:
1077:Drivers/STM32F0xx_HAL_Driver/Src/stm32f0xx_hal_tim_ex.c ****     (+) Start the Complementary PWM.
1078:Drivers/STM32F0xx_HAL_Driver/Src/stm32f0xx_hal_tim_ex.c ****     (+) Stop the Complementary PWM.
1079:Drivers/STM32F0xx_HAL_Driver/Src/stm32f0xx_hal_tim_ex.c ****     (+) Start the Complementary PWM and enable interrupts.
1080:Drivers/STM32F0xx_HAL_Driver/Src/stm32f0xx_hal_tim_ex.c ****     (+) Stop the Complementary PWM and disable interrupts.
1081:Drivers/STM32F0xx_HAL_Driver/Src/stm32f0xx_hal_tim_ex.c ****     (+) Start the Complementary PWM and enable DMA transfers.
1082:Drivers/STM32F0xx_HAL_Driver/Src/stm32f0xx_hal_tim_ex.c ****     (+) Stop the Complementary PWM and disable DMA transfers.
1083:Drivers/STM32F0xx_HAL_Driver/Src/stm32f0xx_hal_tim_ex.c ****     (+) Start the Complementary Input Capture measurement.
1084:Drivers/STM32F0xx_HAL_Driver/Src/stm32f0xx_hal_tim_ex.c ****     (+) Stop the Complementary Input Capture.
1085:Drivers/STM32F0xx_HAL_Driver/Src/stm32f0xx_hal_tim_ex.c ****     (+) Start the Complementary Input Capture and enable interrupts.
1086:Drivers/STM32F0xx_HAL_Driver/Src/stm32f0xx_hal_tim_ex.c ****     (+) Stop the Complementary Input Capture and disable interrupts.
1087:Drivers/STM32F0xx_HAL_Driver/Src/stm32f0xx_hal_tim_ex.c ****     (+) Start the Complementary Input Capture and enable DMA transfers.
1088:Drivers/STM32F0xx_HAL_Driver/Src/stm32f0xx_hal_tim_ex.c ****     (+) Stop the Complementary Input Capture and disable DMA transfers.
1089:Drivers/STM32F0xx_HAL_Driver/Src/stm32f0xx_hal_tim_ex.c ****     (+) Start the Complementary One Pulse generation.
1090:Drivers/STM32F0xx_HAL_Driver/Src/stm32f0xx_hal_tim_ex.c ****     (+) Stop the Complementary One Pulse.
1091:Drivers/STM32F0xx_HAL_Driver/Src/stm32f0xx_hal_tim_ex.c ****     (+) Start the Complementary One Pulse and enable interrupts.
1092:Drivers/STM32F0xx_HAL_Driver/Src/stm32f0xx_hal_tim_ex.c ****     (+) Stop the Complementary One Pulse and disable interrupts.
1093:Drivers/STM32F0xx_HAL_Driver/Src/stm32f0xx_hal_tim_ex.c **** 
1094:Drivers/STM32F0xx_HAL_Driver/Src/stm32f0xx_hal_tim_ex.c **** @endverbatim
1095:Drivers/STM32F0xx_HAL_Driver/Src/stm32f0xx_hal_tim_ex.c ****   * @{
1096:Drivers/STM32F0xx_HAL_Driver/Src/stm32f0xx_hal_tim_ex.c ****   */
1097:Drivers/STM32F0xx_HAL_Driver/Src/stm32f0xx_hal_tim_ex.c **** 
1098:Drivers/STM32F0xx_HAL_Driver/Src/stm32f0xx_hal_tim_ex.c **** /**
1099:Drivers/STM32F0xx_HAL_Driver/Src/stm32f0xx_hal_tim_ex.c ****   * @brief  Starts the PWM signal generation on the complementary output.
1100:Drivers/STM32F0xx_HAL_Driver/Src/stm32f0xx_hal_tim_ex.c ****   * @param  htim TIM handle
1101:Drivers/STM32F0xx_HAL_Driver/Src/stm32f0xx_hal_tim_ex.c ****   * @param  Channel TIM Channel to be enabled
1102:Drivers/STM32F0xx_HAL_Driver/Src/stm32f0xx_hal_tim_ex.c ****   *          This parameter can be one of the following values:
1103:Drivers/STM32F0xx_HAL_Driver/Src/stm32f0xx_hal_tim_ex.c ****   *            @arg TIM_CHANNEL_1: TIM Channel 1 selected
1104:Drivers/STM32F0xx_HAL_Driver/Src/stm32f0xx_hal_tim_ex.c ****   *            @arg TIM_CHANNEL_2: TIM Channel 2 selected
1105:Drivers/STM32F0xx_HAL_Driver/Src/stm32f0xx_hal_tim_ex.c ****   *            @arg TIM_CHANNEL_3: TIM Channel 3 selected
1106:Drivers/STM32F0xx_HAL_Driver/Src/stm32f0xx_hal_tim_ex.c ****   * @retval HAL status
1107:Drivers/STM32F0xx_HAL_Driver/Src/stm32f0xx_hal_tim_ex.c ****   */
1108:Drivers/STM32F0xx_HAL_Driver/Src/stm32f0xx_hal_tim_ex.c **** HAL_StatusTypeDef HAL_TIMEx_PWMN_Start(TIM_HandleTypeDef *htim, uint32_t Channel)
1109:Drivers/STM32F0xx_HAL_Driver/Src/stm32f0xx_hal_tim_ex.c **** {
ARM GAS  /var/folders/d0/cymppscj10lcmm48h781wrc80000gn/T//cc0qcKWW.s 			page 73


 3021              		.loc 1 1109 1
 3022              		.cfi_startproc
 3023              		@ args = 0, pretend = 0, frame = 16
 3024              		@ frame_needed = 1, uses_anonymous_args = 0
 3025 0000 80B5     		push	{r7, lr}
 3026              	.LCFI48:
 3027              		.cfi_def_cfa_offset 8
 3028              		.cfi_offset 7, -8
 3029              		.cfi_offset 14, -4
 3030 0002 84B0     		sub	sp, sp, #16
 3031              	.LCFI49:
 3032              		.cfi_def_cfa_offset 24
 3033 0004 00AF     		add	r7, sp, #0
 3034              	.LCFI50:
 3035              		.cfi_def_cfa_register 7
 3036 0006 7860     		str	r0, [r7, #4]
 3037 0008 3960     		str	r1, [r7]
1110:Drivers/STM32F0xx_HAL_Driver/Src/stm32f0xx_hal_tim_ex.c ****   uint32_t tmpsmcr;
1111:Drivers/STM32F0xx_HAL_Driver/Src/stm32f0xx_hal_tim_ex.c **** 
1112:Drivers/STM32F0xx_HAL_Driver/Src/stm32f0xx_hal_tim_ex.c ****   /* Check the parameters */
1113:Drivers/STM32F0xx_HAL_Driver/Src/stm32f0xx_hal_tim_ex.c ****   assert_param(IS_TIM_CCXN_INSTANCE(htim->Instance, Channel));
1114:Drivers/STM32F0xx_HAL_Driver/Src/stm32f0xx_hal_tim_ex.c **** 
1115:Drivers/STM32F0xx_HAL_Driver/Src/stm32f0xx_hal_tim_ex.c ****   /* Check the TIM complementary channel state */
1116:Drivers/STM32F0xx_HAL_Driver/Src/stm32f0xx_hal_tim_ex.c ****   if (TIM_CHANNEL_N_STATE_GET(htim, Channel) != HAL_TIM_CHANNEL_STATE_READY)
 3038              		.loc 1 1116 46
 3039 000a 3B68     		ldr	r3, [r7]
 3040 000c 002B     		cmp	r3, #0
 3041 000e 08D1     		bne	.L199
 3042              		.loc 1 1116 7 discriminator 1
 3043 0010 7B68     		ldr	r3, [r7, #4]
 3044 0012 4222     		movs	r2, #66
 3045 0014 9B5C     		ldrb	r3, [r3, r2]
 3046 0016 DBB2     		uxtb	r3, r3
 3047              		.loc 1 1116 46 discriminator 1
 3048 0018 013B     		subs	r3, r3, #1
 3049 001a 5A1E     		subs	r2, r3, #1
 3050 001c 9341     		sbcs	r3, r3, r2
 3051 001e DBB2     		uxtb	r3, r3
 3052 0020 1FE0     		b	.L200
 3053              	.L199:
 3054              		.loc 1 1116 46 is_stmt 0 discriminator 2
 3055 0022 3B68     		ldr	r3, [r7]
 3056 0024 042B     		cmp	r3, #4
 3057 0026 08D1     		bne	.L201
 3058              		.loc 1 1116 7 is_stmt 1 discriminator 4
 3059 0028 7B68     		ldr	r3, [r7, #4]
 3060 002a 4322     		movs	r2, #67
 3061 002c 9B5C     		ldrb	r3, [r3, r2]
 3062 002e DBB2     		uxtb	r3, r3
 3063              		.loc 1 1116 46 discriminator 4
 3064 0030 013B     		subs	r3, r3, #1
 3065 0032 5A1E     		subs	r2, r3, #1
 3066 0034 9341     		sbcs	r3, r3, r2
 3067 0036 DBB2     		uxtb	r3, r3
 3068 0038 13E0     		b	.L200
 3069              	.L201:
 3070              		.loc 1 1116 46 is_stmt 0 discriminator 5
ARM GAS  /var/folders/d0/cymppscj10lcmm48h781wrc80000gn/T//cc0qcKWW.s 			page 74


 3071 003a 3B68     		ldr	r3, [r7]
 3072 003c 082B     		cmp	r3, #8
 3073 003e 08D1     		bne	.L203
 3074              		.loc 1 1116 7 is_stmt 1 discriminator 7
 3075 0040 7B68     		ldr	r3, [r7, #4]
 3076 0042 4422     		movs	r2, #68
 3077 0044 9B5C     		ldrb	r3, [r3, r2]
 3078 0046 DBB2     		uxtb	r3, r3
 3079              		.loc 1 1116 46 discriminator 7
 3080 0048 013B     		subs	r3, r3, #1
 3081 004a 5A1E     		subs	r2, r3, #1
 3082 004c 9341     		sbcs	r3, r3, r2
 3083 004e DBB2     		uxtb	r3, r3
 3084 0050 07E0     		b	.L200
 3085              	.L203:
 3086              		.loc 1 1116 7 discriminator 8
 3087 0052 7B68     		ldr	r3, [r7, #4]
 3088 0054 4522     		movs	r2, #69
 3089 0056 9B5C     		ldrb	r3, [r3, r2]
 3090 0058 DBB2     		uxtb	r3, r3
 3091              		.loc 1 1116 46 discriminator 8
 3092 005a 013B     		subs	r3, r3, #1
 3093 005c 5A1E     		subs	r2, r3, #1
 3094 005e 9341     		sbcs	r3, r3, r2
 3095 0060 DBB2     		uxtb	r3, r3
 3096              	.L200:
 3097              		.loc 1 1116 6 discriminator 12
 3098 0062 002B     		cmp	r3, #0
 3099 0064 01D0     		beq	.L205
1117:Drivers/STM32F0xx_HAL_Driver/Src/stm32f0xx_hal_tim_ex.c ****   {
1118:Drivers/STM32F0xx_HAL_Driver/Src/stm32f0xx_hal_tim_ex.c ****     return HAL_ERROR;
 3100              		.loc 1 1118 12
 3101 0066 0123     		movs	r3, #1
 3102 0068 55E0     		b	.L206
 3103              	.L205:
1119:Drivers/STM32F0xx_HAL_Driver/Src/stm32f0xx_hal_tim_ex.c ****   }
1120:Drivers/STM32F0xx_HAL_Driver/Src/stm32f0xx_hal_tim_ex.c **** 
1121:Drivers/STM32F0xx_HAL_Driver/Src/stm32f0xx_hal_tim_ex.c ****   /* Set the TIM complementary channel state */
1122:Drivers/STM32F0xx_HAL_Driver/Src/stm32f0xx_hal_tim_ex.c ****   TIM_CHANNEL_N_STATE_SET(htim, Channel, HAL_TIM_CHANNEL_STATE_BUSY);
 3104              		.loc 1 1122 3
 3105 006a 3B68     		ldr	r3, [r7]
 3106 006c 002B     		cmp	r3, #0
 3107 006e 04D1     		bne	.L207
 3108              		.loc 1 1122 3 is_stmt 0 discriminator 1
 3109 0070 7B68     		ldr	r3, [r7, #4]
 3110 0072 4222     		movs	r2, #66
 3111 0074 0221     		movs	r1, #2
 3112 0076 9954     		strb	r1, [r3, r2]
 3113 0078 13E0     		b	.L208
 3114              	.L207:
 3115              		.loc 1 1122 3 discriminator 2
 3116 007a 3B68     		ldr	r3, [r7]
 3117 007c 042B     		cmp	r3, #4
 3118 007e 04D1     		bne	.L209
 3119              		.loc 1 1122 3 discriminator 3
 3120 0080 7B68     		ldr	r3, [r7, #4]
 3121 0082 4322     		movs	r2, #67
ARM GAS  /var/folders/d0/cymppscj10lcmm48h781wrc80000gn/T//cc0qcKWW.s 			page 75


 3122 0084 0221     		movs	r1, #2
 3123 0086 9954     		strb	r1, [r3, r2]
 3124 0088 0BE0     		b	.L208
 3125              	.L209:
 3126              		.loc 1 1122 3 discriminator 4
 3127 008a 3B68     		ldr	r3, [r7]
 3128 008c 082B     		cmp	r3, #8
 3129 008e 04D1     		bne	.L211
 3130              		.loc 1 1122 3 discriminator 6
 3131 0090 7B68     		ldr	r3, [r7, #4]
 3132 0092 4422     		movs	r2, #68
 3133 0094 0221     		movs	r1, #2
 3134 0096 9954     		strb	r1, [r3, r2]
 3135 0098 03E0     		b	.L208
 3136              	.L211:
 3137              		.loc 1 1122 3 discriminator 7
 3138 009a 7B68     		ldr	r3, [r7, #4]
 3139 009c 4522     		movs	r2, #69
 3140 009e 0221     		movs	r1, #2
 3141 00a0 9954     		strb	r1, [r3, r2]
 3142              	.L208:
1123:Drivers/STM32F0xx_HAL_Driver/Src/stm32f0xx_hal_tim_ex.c **** 
1124:Drivers/STM32F0xx_HAL_Driver/Src/stm32f0xx_hal_tim_ex.c ****   /* Enable the complementary PWM output  */
1125:Drivers/STM32F0xx_HAL_Driver/Src/stm32f0xx_hal_tim_ex.c ****   TIM_CCxNChannelCmd(htim->Instance, Channel, TIM_CCxN_ENABLE);
 3143              		.loc 1 1125 3 is_stmt 1
 3144 00a2 7B68     		ldr	r3, [r7, #4]
 3145 00a4 1B68     		ldr	r3, [r3]
 3146 00a6 3968     		ldr	r1, [r7]
 3147 00a8 0422     		movs	r2, #4
 3148 00aa 1800     		movs	r0, r3
 3149 00ac FFF7FEFF 		bl	TIM_CCxNChannelCmd
1126:Drivers/STM32F0xx_HAL_Driver/Src/stm32f0xx_hal_tim_ex.c **** 
1127:Drivers/STM32F0xx_HAL_Driver/Src/stm32f0xx_hal_tim_ex.c ****   /* Enable the Main Output */
1128:Drivers/STM32F0xx_HAL_Driver/Src/stm32f0xx_hal_tim_ex.c ****   __HAL_TIM_MOE_ENABLE(htim);
 3150              		.loc 1 1128 3
 3151 00b0 7B68     		ldr	r3, [r7, #4]
 3152 00b2 1B68     		ldr	r3, [r3]
 3153 00b4 5A6C     		ldr	r2, [r3, #68]
 3154 00b6 7B68     		ldr	r3, [r7, #4]
 3155 00b8 1B68     		ldr	r3, [r3]
 3156 00ba 8021     		movs	r1, #128
 3157 00bc 0902     		lsls	r1, r1, #8
 3158 00be 0A43     		orrs	r2, r1
 3159 00c0 5A64     		str	r2, [r3, #68]
1129:Drivers/STM32F0xx_HAL_Driver/Src/stm32f0xx_hal_tim_ex.c **** 
1130:Drivers/STM32F0xx_HAL_Driver/Src/stm32f0xx_hal_tim_ex.c ****   /* Enable the Peripheral, except in trigger mode where enable is automatically done with trigger 
1131:Drivers/STM32F0xx_HAL_Driver/Src/stm32f0xx_hal_tim_ex.c ****   if (IS_TIM_SLAVE_INSTANCE(htim->Instance))
 3160              		.loc 1 1131 7
 3161 00c2 7B68     		ldr	r3, [r7, #4]
 3162 00c4 1B68     		ldr	r3, [r3]
 3163              		.loc 1 1131 6
 3164 00c6 164A     		ldr	r2, .L217
 3165 00c8 9342     		cmp	r3, r2
 3166 00ca 09D0     		beq	.L213
 3167              		.loc 1 1131 7 discriminator 1
 3168 00cc 7B68     		ldr	r3, [r7, #4]
 3169 00ce 1B68     		ldr	r3, [r3]
ARM GAS  /var/folders/d0/cymppscj10lcmm48h781wrc80000gn/T//cc0qcKWW.s 			page 76


 3170 00d0 144A     		ldr	r2, .L217+4
 3171 00d2 9342     		cmp	r3, r2
 3172 00d4 04D0     		beq	.L213
 3173              		.loc 1 1131 7 is_stmt 0 discriminator 2
 3174 00d6 7B68     		ldr	r3, [r7, #4]
 3175 00d8 1B68     		ldr	r3, [r3]
 3176 00da 134A     		ldr	r2, .L217+8
 3177 00dc 9342     		cmp	r3, r2
 3178 00de 11D1     		bne	.L214
 3179              	.L213:
1132:Drivers/STM32F0xx_HAL_Driver/Src/stm32f0xx_hal_tim_ex.c ****   {
1133:Drivers/STM32F0xx_HAL_Driver/Src/stm32f0xx_hal_tim_ex.c ****     tmpsmcr = htim->Instance->SMCR & TIM_SMCR_SMS;
 3180              		.loc 1 1133 19 is_stmt 1
 3181 00e0 7B68     		ldr	r3, [r7, #4]
 3182 00e2 1B68     		ldr	r3, [r3]
 3183              		.loc 1 1133 29
 3184 00e4 9B68     		ldr	r3, [r3, #8]
 3185              		.loc 1 1133 13
 3186 00e6 0722     		movs	r2, #7
 3187 00e8 1340     		ands	r3, r2
 3188 00ea FB60     		str	r3, [r7, #12]
1134:Drivers/STM32F0xx_HAL_Driver/Src/stm32f0xx_hal_tim_ex.c ****     if (!IS_TIM_SLAVEMODE_TRIGGER_ENABLED(tmpsmcr))
 3189              		.loc 1 1134 8
 3190 00ec FB68     		ldr	r3, [r7, #12]
 3191 00ee 062B     		cmp	r3, #6
 3192 00f0 10D0     		beq	.L216
1135:Drivers/STM32F0xx_HAL_Driver/Src/stm32f0xx_hal_tim_ex.c ****     {
1136:Drivers/STM32F0xx_HAL_Driver/Src/stm32f0xx_hal_tim_ex.c ****       __HAL_TIM_ENABLE(htim);
 3193              		.loc 1 1136 7
 3194 00f2 7B68     		ldr	r3, [r7, #4]
 3195 00f4 1B68     		ldr	r3, [r3]
 3196 00f6 1A68     		ldr	r2, [r3]
 3197 00f8 7B68     		ldr	r3, [r7, #4]
 3198 00fa 1B68     		ldr	r3, [r3]
 3199 00fc 0121     		movs	r1, #1
 3200 00fe 0A43     		orrs	r2, r1
 3201 0100 1A60     		str	r2, [r3]
1134:Drivers/STM32F0xx_HAL_Driver/Src/stm32f0xx_hal_tim_ex.c ****     if (!IS_TIM_SLAVEMODE_TRIGGER_ENABLED(tmpsmcr))
 3202              		.loc 1 1134 8
 3203 0102 07E0     		b	.L216
 3204              	.L214:
1137:Drivers/STM32F0xx_HAL_Driver/Src/stm32f0xx_hal_tim_ex.c ****     }
1138:Drivers/STM32F0xx_HAL_Driver/Src/stm32f0xx_hal_tim_ex.c ****   }
1139:Drivers/STM32F0xx_HAL_Driver/Src/stm32f0xx_hal_tim_ex.c ****   else
1140:Drivers/STM32F0xx_HAL_Driver/Src/stm32f0xx_hal_tim_ex.c ****   {
1141:Drivers/STM32F0xx_HAL_Driver/Src/stm32f0xx_hal_tim_ex.c ****     __HAL_TIM_ENABLE(htim);
 3205              		.loc 1 1141 5
 3206 0104 7B68     		ldr	r3, [r7, #4]
 3207 0106 1B68     		ldr	r3, [r3]
 3208 0108 1A68     		ldr	r2, [r3]
 3209 010a 7B68     		ldr	r3, [r7, #4]
 3210 010c 1B68     		ldr	r3, [r3]
 3211 010e 0121     		movs	r1, #1
 3212 0110 0A43     		orrs	r2, r1
 3213 0112 1A60     		str	r2, [r3]
 3214              	.L216:
1142:Drivers/STM32F0xx_HAL_Driver/Src/stm32f0xx_hal_tim_ex.c ****   }
ARM GAS  /var/folders/d0/cymppscj10lcmm48h781wrc80000gn/T//cc0qcKWW.s 			page 77


1143:Drivers/STM32F0xx_HAL_Driver/Src/stm32f0xx_hal_tim_ex.c **** 
1144:Drivers/STM32F0xx_HAL_Driver/Src/stm32f0xx_hal_tim_ex.c ****   /* Return function status */
1145:Drivers/STM32F0xx_HAL_Driver/Src/stm32f0xx_hal_tim_ex.c ****   return HAL_OK;
 3215              		.loc 1 1145 10
 3216 0114 0023     		movs	r3, #0
 3217              	.L206:
1146:Drivers/STM32F0xx_HAL_Driver/Src/stm32f0xx_hal_tim_ex.c **** }
 3218              		.loc 1 1146 1
 3219 0116 1800     		movs	r0, r3
 3220 0118 BD46     		mov	sp, r7
 3221 011a 04B0     		add	sp, sp, #16
 3222              		@ sp needed
 3223 011c 80BD     		pop	{r7, pc}
 3224              	.L218:
 3225 011e C046     		.align	2
 3226              	.L217:
 3227 0120 002C0140 		.word	1073818624
 3228 0124 00040040 		.word	1073742848
 3229 0128 00400140 		.word	1073823744
 3230              		.cfi_endproc
 3231              	.LFE56:
 3233              		.section	.text.HAL_TIMEx_PWMN_Stop,"ax",%progbits
 3234              		.align	1
 3235              		.global	HAL_TIMEx_PWMN_Stop
 3236              		.syntax unified
 3237              		.code	16
 3238              		.thumb_func
 3240              	HAL_TIMEx_PWMN_Stop:
 3241              	.LFB57:
1147:Drivers/STM32F0xx_HAL_Driver/Src/stm32f0xx_hal_tim_ex.c **** 
1148:Drivers/STM32F0xx_HAL_Driver/Src/stm32f0xx_hal_tim_ex.c **** /**
1149:Drivers/STM32F0xx_HAL_Driver/Src/stm32f0xx_hal_tim_ex.c ****   * @brief  Stops the PWM signal generation on the complementary output.
1150:Drivers/STM32F0xx_HAL_Driver/Src/stm32f0xx_hal_tim_ex.c ****   * @param  htim TIM handle
1151:Drivers/STM32F0xx_HAL_Driver/Src/stm32f0xx_hal_tim_ex.c ****   * @param  Channel TIM Channel to be disabled
1152:Drivers/STM32F0xx_HAL_Driver/Src/stm32f0xx_hal_tim_ex.c ****   *          This parameter can be one of the following values:
1153:Drivers/STM32F0xx_HAL_Driver/Src/stm32f0xx_hal_tim_ex.c ****   *            @arg TIM_CHANNEL_1: TIM Channel 1 selected
1154:Drivers/STM32F0xx_HAL_Driver/Src/stm32f0xx_hal_tim_ex.c ****   *            @arg TIM_CHANNEL_2: TIM Channel 2 selected
1155:Drivers/STM32F0xx_HAL_Driver/Src/stm32f0xx_hal_tim_ex.c ****   *            @arg TIM_CHANNEL_3: TIM Channel 3 selected
1156:Drivers/STM32F0xx_HAL_Driver/Src/stm32f0xx_hal_tim_ex.c ****   * @retval HAL status
1157:Drivers/STM32F0xx_HAL_Driver/Src/stm32f0xx_hal_tim_ex.c ****   */
1158:Drivers/STM32F0xx_HAL_Driver/Src/stm32f0xx_hal_tim_ex.c **** HAL_StatusTypeDef HAL_TIMEx_PWMN_Stop(TIM_HandleTypeDef *htim, uint32_t Channel)
1159:Drivers/STM32F0xx_HAL_Driver/Src/stm32f0xx_hal_tim_ex.c **** {
 3242              		.loc 1 1159 1
 3243              		.cfi_startproc
 3244              		@ args = 0, pretend = 0, frame = 8
 3245              		@ frame_needed = 1, uses_anonymous_args = 0
 3246 0000 80B5     		push	{r7, lr}
 3247              	.LCFI51:
 3248              		.cfi_def_cfa_offset 8
 3249              		.cfi_offset 7, -8
 3250              		.cfi_offset 14, -4
 3251 0002 82B0     		sub	sp, sp, #8
 3252              	.LCFI52:
 3253              		.cfi_def_cfa_offset 16
 3254 0004 00AF     		add	r7, sp, #0
 3255              	.LCFI53:
 3256              		.cfi_def_cfa_register 7
ARM GAS  /var/folders/d0/cymppscj10lcmm48h781wrc80000gn/T//cc0qcKWW.s 			page 78


 3257 0006 7860     		str	r0, [r7, #4]
 3258 0008 3960     		str	r1, [r7]
1160:Drivers/STM32F0xx_HAL_Driver/Src/stm32f0xx_hal_tim_ex.c ****   /* Check the parameters */
1161:Drivers/STM32F0xx_HAL_Driver/Src/stm32f0xx_hal_tim_ex.c ****   assert_param(IS_TIM_CCXN_INSTANCE(htim->Instance, Channel));
1162:Drivers/STM32F0xx_HAL_Driver/Src/stm32f0xx_hal_tim_ex.c **** 
1163:Drivers/STM32F0xx_HAL_Driver/Src/stm32f0xx_hal_tim_ex.c ****   /* Disable the complementary PWM output  */
1164:Drivers/STM32F0xx_HAL_Driver/Src/stm32f0xx_hal_tim_ex.c ****   TIM_CCxNChannelCmd(htim->Instance, Channel, TIM_CCxN_DISABLE);
 3259              		.loc 1 1164 3
 3260 000a 7B68     		ldr	r3, [r7, #4]
 3261 000c 1B68     		ldr	r3, [r3]
 3262 000e 3968     		ldr	r1, [r7]
 3263 0010 0022     		movs	r2, #0
 3264 0012 1800     		movs	r0, r3
 3265 0014 FFF7FEFF 		bl	TIM_CCxNChannelCmd
1165:Drivers/STM32F0xx_HAL_Driver/Src/stm32f0xx_hal_tim_ex.c **** 
1166:Drivers/STM32F0xx_HAL_Driver/Src/stm32f0xx_hal_tim_ex.c ****   /* Disable the Main Output */
1167:Drivers/STM32F0xx_HAL_Driver/Src/stm32f0xx_hal_tim_ex.c ****   __HAL_TIM_MOE_DISABLE(htim);
 3266              		.loc 1 1167 3
 3267 0018 7B68     		ldr	r3, [r7, #4]
 3268 001a 1B68     		ldr	r3, [r3]
 3269 001c 1B6A     		ldr	r3, [r3, #32]
 3270 001e 234A     		ldr	r2, .L229
 3271 0020 1340     		ands	r3, r2
 3272 0022 0DD1     		bne	.L220
 3273              		.loc 1 1167 3 is_stmt 0 discriminator 1
 3274 0024 7B68     		ldr	r3, [r7, #4]
 3275 0026 1B68     		ldr	r3, [r3]
 3276 0028 1B6A     		ldr	r3, [r3, #32]
 3277 002a 214A     		ldr	r2, .L229+4
 3278 002c 1340     		ands	r3, r2
 3279 002e 07D1     		bne	.L220
 3280              		.loc 1 1167 3 discriminator 2
 3281 0030 7B68     		ldr	r3, [r7, #4]
 3282 0032 1B68     		ldr	r3, [r3]
 3283 0034 5A6C     		ldr	r2, [r3, #68]
 3284 0036 7B68     		ldr	r3, [r7, #4]
 3285 0038 1B68     		ldr	r3, [r3]
 3286 003a 1E49     		ldr	r1, .L229+8
 3287 003c 0A40     		ands	r2, r1
 3288 003e 5A64     		str	r2, [r3, #68]
 3289              	.L220:
1168:Drivers/STM32F0xx_HAL_Driver/Src/stm32f0xx_hal_tim_ex.c **** 
1169:Drivers/STM32F0xx_HAL_Driver/Src/stm32f0xx_hal_tim_ex.c ****   /* Disable the Peripheral */
1170:Drivers/STM32F0xx_HAL_Driver/Src/stm32f0xx_hal_tim_ex.c ****   __HAL_TIM_DISABLE(htim);
 3290              		.loc 1 1170 3 is_stmt 1
 3291 0040 7B68     		ldr	r3, [r7, #4]
 3292 0042 1B68     		ldr	r3, [r3]
 3293 0044 1B6A     		ldr	r3, [r3, #32]
 3294 0046 194A     		ldr	r2, .L229
 3295 0048 1340     		ands	r3, r2
 3296 004a 0DD1     		bne	.L221
 3297              		.loc 1 1170 3 is_stmt 0 discriminator 1
 3298 004c 7B68     		ldr	r3, [r7, #4]
 3299 004e 1B68     		ldr	r3, [r3]
 3300 0050 1B6A     		ldr	r3, [r3, #32]
 3301 0052 174A     		ldr	r2, .L229+4
 3302 0054 1340     		ands	r3, r2
ARM GAS  /var/folders/d0/cymppscj10lcmm48h781wrc80000gn/T//cc0qcKWW.s 			page 79


 3303 0056 07D1     		bne	.L221
 3304              		.loc 1 1170 3 discriminator 2
 3305 0058 7B68     		ldr	r3, [r7, #4]
 3306 005a 1B68     		ldr	r3, [r3]
 3307 005c 1A68     		ldr	r2, [r3]
 3308 005e 7B68     		ldr	r3, [r7, #4]
 3309 0060 1B68     		ldr	r3, [r3]
 3310 0062 0121     		movs	r1, #1
 3311 0064 8A43     		bics	r2, r1
 3312 0066 1A60     		str	r2, [r3]
 3313              	.L221:
1171:Drivers/STM32F0xx_HAL_Driver/Src/stm32f0xx_hal_tim_ex.c **** 
1172:Drivers/STM32F0xx_HAL_Driver/Src/stm32f0xx_hal_tim_ex.c ****   /* Set the TIM complementary channel state */
1173:Drivers/STM32F0xx_HAL_Driver/Src/stm32f0xx_hal_tim_ex.c ****   TIM_CHANNEL_N_STATE_SET(htim, Channel, HAL_TIM_CHANNEL_STATE_READY);
 3314              		.loc 1 1173 3 is_stmt 1
 3315 0068 3B68     		ldr	r3, [r7]
 3316 006a 002B     		cmp	r3, #0
 3317 006c 04D1     		bne	.L222
 3318              		.loc 1 1173 3 is_stmt 0 discriminator 1
 3319 006e 7B68     		ldr	r3, [r7, #4]
 3320 0070 4222     		movs	r2, #66
 3321 0072 0121     		movs	r1, #1
 3322 0074 9954     		strb	r1, [r3, r2]
 3323 0076 13E0     		b	.L223
 3324              	.L222:
 3325              		.loc 1 1173 3 discriminator 2
 3326 0078 3B68     		ldr	r3, [r7]
 3327 007a 042B     		cmp	r3, #4
 3328 007c 04D1     		bne	.L224
 3329              		.loc 1 1173 3 discriminator 3
 3330 007e 7B68     		ldr	r3, [r7, #4]
 3331 0080 4322     		movs	r2, #67
 3332 0082 0121     		movs	r1, #1
 3333 0084 9954     		strb	r1, [r3, r2]
 3334 0086 0BE0     		b	.L223
 3335              	.L224:
 3336              		.loc 1 1173 3 discriminator 4
 3337 0088 3B68     		ldr	r3, [r7]
 3338 008a 082B     		cmp	r3, #8
 3339 008c 04D1     		bne	.L226
 3340              		.loc 1 1173 3 discriminator 6
 3341 008e 7B68     		ldr	r3, [r7, #4]
 3342 0090 4422     		movs	r2, #68
 3343 0092 0121     		movs	r1, #1
 3344 0094 9954     		strb	r1, [r3, r2]
 3345 0096 03E0     		b	.L223
 3346              	.L226:
 3347              		.loc 1 1173 3 discriminator 7
 3348 0098 7B68     		ldr	r3, [r7, #4]
 3349 009a 4522     		movs	r2, #69
 3350 009c 0121     		movs	r1, #1
 3351 009e 9954     		strb	r1, [r3, r2]
 3352              	.L223:
1174:Drivers/STM32F0xx_HAL_Driver/Src/stm32f0xx_hal_tim_ex.c **** 
1175:Drivers/STM32F0xx_HAL_Driver/Src/stm32f0xx_hal_tim_ex.c ****   /* Return function status */
1176:Drivers/STM32F0xx_HAL_Driver/Src/stm32f0xx_hal_tim_ex.c ****   return HAL_OK;
 3353              		.loc 1 1176 10 is_stmt 1
ARM GAS  /var/folders/d0/cymppscj10lcmm48h781wrc80000gn/T//cc0qcKWW.s 			page 80


 3354 00a0 0023     		movs	r3, #0
1177:Drivers/STM32F0xx_HAL_Driver/Src/stm32f0xx_hal_tim_ex.c **** }
 3355              		.loc 1 1177 1
 3356 00a2 1800     		movs	r0, r3
 3357 00a4 BD46     		mov	sp, r7
 3358 00a6 02B0     		add	sp, sp, #8
 3359              		@ sp needed
 3360 00a8 80BD     		pop	{r7, pc}
 3361              	.L230:
 3362 00aa C046     		.align	2
 3363              	.L229:
 3364 00ac 11110000 		.word	4369
 3365 00b0 44040000 		.word	1092
 3366 00b4 FF7FFFFF 		.word	-32769
 3367              		.cfi_endproc
 3368              	.LFE57:
 3370              		.section	.text.HAL_TIMEx_PWMN_Start_IT,"ax",%progbits
 3371              		.align	1
 3372              		.global	HAL_TIMEx_PWMN_Start_IT
 3373              		.syntax unified
 3374              		.code	16
 3375              		.thumb_func
 3377              	HAL_TIMEx_PWMN_Start_IT:
 3378              	.LFB58:
1178:Drivers/STM32F0xx_HAL_Driver/Src/stm32f0xx_hal_tim_ex.c **** 
1179:Drivers/STM32F0xx_HAL_Driver/Src/stm32f0xx_hal_tim_ex.c **** /**
1180:Drivers/STM32F0xx_HAL_Driver/Src/stm32f0xx_hal_tim_ex.c ****   * @brief  Starts the PWM signal generation in interrupt mode on the
1181:Drivers/STM32F0xx_HAL_Driver/Src/stm32f0xx_hal_tim_ex.c ****   *         complementary output.
1182:Drivers/STM32F0xx_HAL_Driver/Src/stm32f0xx_hal_tim_ex.c ****   * @param  htim TIM handle
1183:Drivers/STM32F0xx_HAL_Driver/Src/stm32f0xx_hal_tim_ex.c ****   * @param  Channel TIM Channel to be disabled
1184:Drivers/STM32F0xx_HAL_Driver/Src/stm32f0xx_hal_tim_ex.c ****   *          This parameter can be one of the following values:
1185:Drivers/STM32F0xx_HAL_Driver/Src/stm32f0xx_hal_tim_ex.c ****   *            @arg TIM_CHANNEL_1: TIM Channel 1 selected
1186:Drivers/STM32F0xx_HAL_Driver/Src/stm32f0xx_hal_tim_ex.c ****   *            @arg TIM_CHANNEL_2: TIM Channel 2 selected
1187:Drivers/STM32F0xx_HAL_Driver/Src/stm32f0xx_hal_tim_ex.c ****   *            @arg TIM_CHANNEL_3: TIM Channel 3 selected
1188:Drivers/STM32F0xx_HAL_Driver/Src/stm32f0xx_hal_tim_ex.c ****   * @retval HAL status
1189:Drivers/STM32F0xx_HAL_Driver/Src/stm32f0xx_hal_tim_ex.c ****   */
1190:Drivers/STM32F0xx_HAL_Driver/Src/stm32f0xx_hal_tim_ex.c **** HAL_StatusTypeDef HAL_TIMEx_PWMN_Start_IT(TIM_HandleTypeDef *htim, uint32_t Channel)
1191:Drivers/STM32F0xx_HAL_Driver/Src/stm32f0xx_hal_tim_ex.c **** {
 3379              		.loc 1 1191 1
 3380              		.cfi_startproc
 3381              		@ args = 0, pretend = 0, frame = 16
 3382              		@ frame_needed = 1, uses_anonymous_args = 0
 3383 0000 80B5     		push	{r7, lr}
 3384              	.LCFI54:
 3385              		.cfi_def_cfa_offset 8
 3386              		.cfi_offset 7, -8
 3387              		.cfi_offset 14, -4
 3388 0002 84B0     		sub	sp, sp, #16
 3389              	.LCFI55:
 3390              		.cfi_def_cfa_offset 24
 3391 0004 00AF     		add	r7, sp, #0
 3392              	.LCFI56:
 3393              		.cfi_def_cfa_register 7
 3394 0006 7860     		str	r0, [r7, #4]
 3395 0008 3960     		str	r1, [r7]
1192:Drivers/STM32F0xx_HAL_Driver/Src/stm32f0xx_hal_tim_ex.c ****   HAL_StatusTypeDef status = HAL_OK;
 3396              		.loc 1 1192 21
ARM GAS  /var/folders/d0/cymppscj10lcmm48h781wrc80000gn/T//cc0qcKWW.s 			page 81


 3397 000a 0F23     		movs	r3, #15
 3398 000c FB18     		adds	r3, r7, r3
 3399 000e 0022     		movs	r2, #0
 3400 0010 1A70     		strb	r2, [r3]
1193:Drivers/STM32F0xx_HAL_Driver/Src/stm32f0xx_hal_tim_ex.c ****   uint32_t tmpsmcr;
1194:Drivers/STM32F0xx_HAL_Driver/Src/stm32f0xx_hal_tim_ex.c **** 
1195:Drivers/STM32F0xx_HAL_Driver/Src/stm32f0xx_hal_tim_ex.c ****   /* Check the parameters */
1196:Drivers/STM32F0xx_HAL_Driver/Src/stm32f0xx_hal_tim_ex.c ****   assert_param(IS_TIM_CCXN_INSTANCE(htim->Instance, Channel));
1197:Drivers/STM32F0xx_HAL_Driver/Src/stm32f0xx_hal_tim_ex.c **** 
1198:Drivers/STM32F0xx_HAL_Driver/Src/stm32f0xx_hal_tim_ex.c ****   /* Check the TIM complementary channel state */
